
picojpeg.elf:     file format elf32-littlearm


Disassembly of section .text:

00000000 <hang-0x50>:
       0:	407ffffc 	ldrshtmi	pc, [pc], #-252	; <UNPREDICTABLE>
       4:	00000053 	andeq	r0, r0, r3, asr r0
       8:	00000051 	andeq	r0, r0, r1, asr r0
       c:	00000051 	andeq	r0, r0, r1, asr r0
      10:	00000051 	andeq	r0, r0, r1, asr r0
      14:	00000051 	andeq	r0, r0, r1, asr r0
      18:	00000051 	andeq	r0, r0, r1, asr r0
      1c:	00000051 	andeq	r0, r0, r1, asr r0
      20:	00000051 	andeq	r0, r0, r1, asr r0
      24:	00000051 	andeq	r0, r0, r1, asr r0
      28:	00000051 	andeq	r0, r0, r1, asr r0
      2c:	00000051 	andeq	r0, r0, r1, asr r0
      30:	00000051 	andeq	r0, r0, r1, asr r0
      34:	00000051 	andeq	r0, r0, r1, asr r0
      38:	00000051 	andeq	r0, r0, r1, asr r0
      3c:	00000051 	andeq	r0, r0, r1, asr r0
      40:	00000051 	andeq	r0, r0, r1, asr r0
      44:	00000051 	andeq	r0, r0, r1, asr r0
      48:	00000051 	andeq	r0, r0, r1, asr r0
      4c:	00000051 	andeq	r0, r0, r1, asr r0

00000050 <hang>:
      50:	e7fe      	b.n	50 <hang>

00000052 <_start>:
      52:	f000 f85d 	bl	110 <notmain>
      56:	df01      	svc	1
      58:	e7fe      	b.n	58 <_start+0x6>

0000005a <PUT32>:
      5a:	b500      	push	{lr}
      5c:	6001      	str	r1, [r0, #0]
      5e:	bd00      	pop	{pc}

00000060 <GET32>:
      60:	b500      	push	{lr}
      62:	6800      	ldr	r0, [r0, #0]
      64:	bd00      	pop	{pc}

00000066 <PUTGETCLR>:
      66:	b500      	push	{lr}
      68:	6802      	ldr	r2, [r0, #0]
      6a:	438a      	bics	r2, r1
      6c:	6002      	str	r2, [r0, #0]
      6e:	bd00      	pop	{pc}

00000070 <PUTGETSET>:
      70:	b500      	push	{lr}
      72:	6802      	ldr	r2, [r0, #0]
      74:	430a      	orrs	r2, r1
      76:	6002      	str	r2, [r0, #0]
      78:	bd00      	pop	{pc}
	...

0000007c <hexstring>:
      7c:	b570      	push	{r4, r5, r6, lr}
      7e:	1c06      	adds	r6, r0, #0
      80:	2420      	movs	r4, #32
      82:	250f      	movs	r5, #15
      84:	3c04      	subs	r4, #4
      86:	1c33      	adds	r3, r6, #0
      88:	40e3      	lsrs	r3, r4
      8a:	402b      	ands	r3, r5
      8c:	1c1a      	adds	r2, r3, #0
      8e:	3230      	adds	r2, #48	; 0x30
      90:	2b09      	cmp	r3, #9
      92:	d900      	bls.n	96 <hexstring+0x1a>
      94:	3207      	adds	r2, #7
      96:	b2d0      	uxtb	r0, r2
      98:	f002 f97c 	bl	2394 <uart_send>
      9c:	2c00      	cmp	r4, #0
      9e:	d1f1      	bne.n	84 <hexstring+0x8>
      a0:	200d      	movs	r0, #13
      a2:	f002 f977 	bl	2394 <uart_send>
      a6:	200a      	movs	r0, #10
      a8:	f002 f974 	bl	2394 <uart_send>
      ac:	bd70      	pop	{r4, r5, r6, pc}
      ae:	46c0      	nop			; (mov r8, r8)

000000b0 <hexstrings>:
      b0:	b570      	push	{r4, r5, r6, lr}
      b2:	1c06      	adds	r6, r0, #0
      b4:	2420      	movs	r4, #32
      b6:	250f      	movs	r5, #15
      b8:	3c04      	subs	r4, #4
      ba:	1c33      	adds	r3, r6, #0
      bc:	40e3      	lsrs	r3, r4
      be:	402b      	ands	r3, r5
      c0:	1c1a      	adds	r2, r3, #0
      c2:	3230      	adds	r2, #48	; 0x30
      c4:	2b09      	cmp	r3, #9
      c6:	d900      	bls.n	ca <hexstrings+0x1a>
      c8:	3207      	adds	r2, #7
      ca:	b2d0      	uxtb	r0, r2
      cc:	f002 f962 	bl	2394 <uart_send>
      d0:	2c00      	cmp	r4, #0
      d2:	d1f1      	bne.n	b8 <hexstrings+0x8>
      d4:	2020      	movs	r0, #32
      d6:	f002 f95d 	bl	2394 <uart_send>
      da:	bd70      	pop	{r4, r5, r6, pc}

000000dc <hexstringcr>:
      dc:	b570      	push	{r4, r5, r6, lr}
      de:	1c06      	adds	r6, r0, #0
      e0:	200d      	movs	r0, #13
      e2:	f002 f957 	bl	2394 <uart_send>
      e6:	2420      	movs	r4, #32
      e8:	250f      	movs	r5, #15
      ea:	3c04      	subs	r4, #4
      ec:	1c33      	adds	r3, r6, #0
      ee:	40e3      	lsrs	r3, r4
      f0:	402b      	ands	r3, r5
      f2:	1c1a      	adds	r2, r3, #0
      f4:	3230      	adds	r2, #48	; 0x30
      f6:	2b09      	cmp	r3, #9
      f8:	d900      	bls.n	fc <hexstringcr+0x20>
      fa:	3207      	adds	r2, #7
      fc:	b2d0      	uxtb	r0, r2
      fe:	f002 f949 	bl	2394 <uart_send>
     102:	2c00      	cmp	r4, #0
     104:	d1f1      	bne.n	ea <hexstringcr+0xe>
     106:	2020      	movs	r0, #32
     108:	f002 f944 	bl	2394 <uart_send>
     10c:	bd70      	pop	{r4, r5, r6, pc}
     10e:	46c0      	nop			; (mov r8, r8)

00000110 <notmain>:
     110:	b508      	push	{r3, lr}
     112:	f002 f949 	bl	23a8 <uart_init>
     116:	f000 f81d 	bl	154 <run_test>
     11a:	2000      	movs	r0, #0
     11c:	bd08      	pop	{r3, pc}
     11e:	46c0      	nop			; (mov r8, r8)

00000120 <pjpeg_need_bytes_callback>:
     120:	b5f0      	push	{r4, r5, r6, r7, lr}
     122:	2900      	cmp	r1, #0
     124:	d00f      	beq.n	146 <pjpeg_need_bytes_callback+0x26>
     126:	4d09      	ldr	r5, [pc, #36]	; (14c <pjpeg_need_bytes_callback+0x2c>)
     128:	4e09      	ldr	r6, [pc, #36]	; (150 <pjpeg_need_bytes_callback+0x30>)
     12a:	2300      	movs	r3, #0
     12c:	682f      	ldr	r7, [r5, #0]
     12e:	18f4      	adds	r4, r6, r3
     130:	5de4      	ldrb	r4, [r4, r7]
     132:	54c4      	strb	r4, [r0, r3]
     134:	3301      	adds	r3, #1
     136:	428b      	cmp	r3, r1
     138:	d3f8      	bcc.n	12c <pjpeg_need_bytes_callback+0xc>
     13a:	6828      	ldr	r0, [r5, #0]
     13c:	180b      	adds	r3, r1, r0
     13e:	602b      	str	r3, [r5, #0]
     140:	2000      	movs	r0, #0
     142:	7011      	strb	r1, [r2, #0]
     144:	bdf0      	pop	{r4, r5, r6, r7, pc}
     146:	4d01      	ldr	r5, [pc, #4]	; (14c <pjpeg_need_bytes_callback+0x2c>)
     148:	e7f7      	b.n	13a <pjpeg_need_bytes_callback+0x1a>
     14a:	46c0      	nop			; (mov r8, r8)
     14c:	4000093c 	andmi	r0, r0, ip, lsr r9
     150:	000023b0 			; <UNDEFINED> instruction: 0x000023b0

00000154 <run_test>:
     154:	b5f0      	push	{r4, r5, r6, r7, lr}
     156:	4b16      	ldr	r3, [pc, #88]	; (1b0 <run_test+0x5c>)
     158:	b08d      	sub	sp, #52	; 0x34
     15a:	2200      	movs	r2, #0
     15c:	ad01      	add	r5, sp, #4
     15e:	601a      	str	r2, [r3, #0]
     160:	1c28      	adds	r0, r5, #0
     162:	4914      	ldr	r1, [pc, #80]	; (1b4 <run_test+0x60>)
     164:	2300      	movs	r3, #0
     166:	f001 fe45 	bl	1df4 <pjpeg_decode_init>
     16a:	2400      	movs	r4, #0
     16c:	2800      	cmp	r0, #0
     16e:	d105      	bne.n	17c <run_test+0x28>
     170:	f000 fdd0 	bl	d14 <pjpeg_decode_mcu>
     174:	2800      	cmp	r0, #0
     176:	d004      	beq.n	182 <run_test+0x2e>
     178:	2801      	cmp	r0, #1
     17a:	d013      	beq.n	1a4 <run_test+0x50>
     17c:	2001      	movs	r0, #1
     17e:	b00d      	add	sp, #52	; 0x34
     180:	bdf0      	pop	{r4, r5, r6, r7, pc}
     182:	7d2b      	ldrb	r3, [r5, #20]
     184:	2b01      	cmp	r3, #1
     186:	d1f3      	bne.n	170 <run_test+0x1c>
     188:	6aaf      	ldr	r7, [r5, #40]	; 0x28
     18a:	6a6e      	ldr	r6, [r5, #36]	; 0x24
     18c:	6a28      	ldr	r0, [r5, #32]
     18e:	2300      	movs	r3, #0
     190:	5cf1      	ldrb	r1, [r6, r3]
     192:	5cfa      	ldrb	r2, [r7, r3]
     194:	188a      	adds	r2, r1, r2
     196:	5cc1      	ldrb	r1, [r0, r3]
     198:	3301      	adds	r3, #1
     19a:	1852      	adds	r2, r2, r1
     19c:	18a4      	adds	r4, r4, r2
     19e:	2b40      	cmp	r3, #64	; 0x40
     1a0:	d1f6      	bne.n	190 <run_test+0x3c>
     1a2:	e7e5      	b.n	170 <run_test+0x1c>
     1a4:	1c20      	adds	r0, r4, #0
     1a6:	f7ff ff69 	bl	7c <hexstring>
     1aa:	2000      	movs	r0, #0
     1ac:	e7e7      	b.n	17e <run_test+0x2a>
     1ae:	46c0      	nop			; (mov r8, r8)
     1b0:	4000093c 	andmi	r0, r0, ip, lsr r9
     1b4:	00000121 	andeq	r0, r0, r1, lsr #2

000001b8 <upsampleCb>:
     1b8:	b5f0      	push	{r4, r5, r6, r7, lr}
     1ba:	4b50      	ldr	r3, [pc, #320]	; (2fc <upsampleCb+0x144>)
     1bc:	4644      	mov	r4, r8
     1be:	465f      	mov	r7, fp
     1c0:	4656      	mov	r6, sl
     1c2:	464d      	mov	r5, r9
     1c4:	0040      	lsls	r0, r0, #1
     1c6:	b4f0      	push	{r4, r5, r6, r7}
     1c8:	181b      	adds	r3, r3, r0
     1ca:	469a      	mov	sl, r3
     1cc:	4a4c      	ldr	r2, [pc, #304]	; (300 <upsampleCb+0x148>)
     1ce:	4b4d      	ldr	r3, [pc, #308]	; (304 <upsampleCb+0x14c>)
     1d0:	1852      	adds	r2, r2, r1
     1d2:	185b      	adds	r3, r3, r1
     1d4:	4693      	mov	fp, r2
     1d6:	1c1a      	adds	r2, r3, #0
     1d8:	3240      	adds	r2, #64	; 0x40
     1da:	2458      	movs	r4, #88	; 0x58
     1dc:	b083      	sub	sp, #12
     1de:	9201      	str	r2, [sp, #4]
     1e0:	46a1      	mov	r9, r4
     1e2:	22ff      	movs	r2, #255	; 0xff
     1e4:	24c6      	movs	r4, #198	; 0xc6
     1e6:	4690      	mov	r8, r2
     1e8:	46a4      	mov	ip, r4
     1ea:	1c1f      	adds	r7, r3, #0
     1ec:	9300      	str	r3, [sp, #0]
     1ee:	3708      	adds	r7, #8
     1f0:	4650      	mov	r0, sl
     1f2:	465a      	mov	r2, fp
     1f4:	8801      	ldrh	r1, [r0, #0]
     1f6:	464c      	mov	r4, r9
     1f8:	b2cd      	uxtb	r5, r1
     1fa:	436c      	muls	r4, r5
     1fc:	0a24      	lsrs	r4, r4, #8
     1fe:	3c2c      	subs	r4, #44	; 0x2c
     200:	781e      	ldrb	r6, [r3, #0]
     202:	b2a4      	uxth	r4, r4
     204:	1b36      	subs	r6, r6, r4
     206:	b2b6      	uxth	r6, r6
     208:	2eff      	cmp	r6, #255	; 0xff
     20a:	d800      	bhi.n	20e <upsampleCb+0x56>
     20c:	e074      	b.n	2f8 <upsampleCb+0x140>
     20e:	43f6      	mvns	r6, r6
     210:	0436      	lsls	r6, r6, #16
     212:	17f6      	asrs	r6, r6, #31
     214:	b2f6      	uxtb	r6, r6
     216:	701e      	strb	r6, [r3, #0]
     218:	785e      	ldrb	r6, [r3, #1]
     21a:	1b36      	subs	r6, r6, r4
     21c:	b2b6      	uxth	r6, r6
     21e:	2eff      	cmp	r6, #255	; 0xff
     220:	d968      	bls.n	2f4 <upsampleCb+0x13c>
     222:	43f6      	mvns	r6, r6
     224:	0436      	lsls	r6, r6, #16
     226:	17f6      	asrs	r6, r6, #31
     228:	b2f6      	uxtb	r6, r6
     22a:	705e      	strb	r6, [r3, #1]
     22c:	7a1e      	ldrb	r6, [r3, #8]
     22e:	1b36      	subs	r6, r6, r4
     230:	b2b6      	uxth	r6, r6
     232:	2eff      	cmp	r6, #255	; 0xff
     234:	d95c      	bls.n	2f0 <upsampleCb+0x138>
     236:	43f6      	mvns	r6, r6
     238:	0436      	lsls	r6, r6, #16
     23a:	17f6      	asrs	r6, r6, #31
     23c:	b2f6      	uxtb	r6, r6
     23e:	721e      	strb	r6, [r3, #8]
     240:	7a5e      	ldrb	r6, [r3, #9]
     242:	1b34      	subs	r4, r6, r4
     244:	b2a4      	uxth	r4, r4
     246:	2cff      	cmp	r4, #255	; 0xff
     248:	d950      	bls.n	2ec <upsampleCb+0x134>
     24a:	43e4      	mvns	r4, r4
     24c:	0424      	lsls	r4, r4, #16
     24e:	17e4      	asrs	r4, r4, #31
     250:	b2e4      	uxtb	r4, r4
     252:	725c      	strb	r4, [r3, #9]
     254:	4644      	mov	r4, r8
     256:	4021      	ands	r1, r4
     258:	4664      	mov	r4, ip
     25a:	4365      	muls	r5, r4
     25c:	39e3      	subs	r1, #227	; 0xe3
     25e:	0a2d      	lsrs	r5, r5, #8
     260:	1949      	adds	r1, r1, r5
     262:	7814      	ldrb	r4, [r2, #0]
     264:	b289      	uxth	r1, r1
     266:	190c      	adds	r4, r1, r4
     268:	b2a4      	uxth	r4, r4
     26a:	2cff      	cmp	r4, #255	; 0xff
     26c:	d93c      	bls.n	2e8 <upsampleCb+0x130>
     26e:	43e4      	mvns	r4, r4
     270:	0424      	lsls	r4, r4, #16
     272:	17e4      	asrs	r4, r4, #31
     274:	b2e4      	uxtb	r4, r4
     276:	7014      	strb	r4, [r2, #0]
     278:	7854      	ldrb	r4, [r2, #1]
     27a:	190c      	adds	r4, r1, r4
     27c:	b2a4      	uxth	r4, r4
     27e:	2cff      	cmp	r4, #255	; 0xff
     280:	d930      	bls.n	2e4 <upsampleCb+0x12c>
     282:	43e4      	mvns	r4, r4
     284:	0424      	lsls	r4, r4, #16
     286:	17e4      	asrs	r4, r4, #31
     288:	b2e4      	uxtb	r4, r4
     28a:	7054      	strb	r4, [r2, #1]
     28c:	7a14      	ldrb	r4, [r2, #8]
     28e:	190c      	adds	r4, r1, r4
     290:	b2a4      	uxth	r4, r4
     292:	2cff      	cmp	r4, #255	; 0xff
     294:	d924      	bls.n	2e0 <upsampleCb+0x128>
     296:	43e4      	mvns	r4, r4
     298:	0424      	lsls	r4, r4, #16
     29a:	17e4      	asrs	r4, r4, #31
     29c:	b2e4      	uxtb	r4, r4
     29e:	7214      	strb	r4, [r2, #8]
     2a0:	7a54      	ldrb	r4, [r2, #9]
     2a2:	1909      	adds	r1, r1, r4
     2a4:	b289      	uxth	r1, r1
     2a6:	29ff      	cmp	r1, #255	; 0xff
     2a8:	d918      	bls.n	2dc <upsampleCb+0x124>
     2aa:	43c9      	mvns	r1, r1
     2ac:	0409      	lsls	r1, r1, #16
     2ae:	17c9      	asrs	r1, r1, #31
     2b0:	b2c9      	uxtb	r1, r1
     2b2:	3302      	adds	r3, #2
     2b4:	7251      	strb	r1, [r2, #9]
     2b6:	3002      	adds	r0, #2
     2b8:	3202      	adds	r2, #2
     2ba:	42bb      	cmp	r3, r7
     2bc:	d19a      	bne.n	1f4 <upsampleCb+0x3c>
     2be:	9b00      	ldr	r3, [sp, #0]
     2c0:	9c01      	ldr	r4, [sp, #4]
     2c2:	2210      	movs	r2, #16
     2c4:	3310      	adds	r3, #16
     2c6:	4492      	add	sl, r2
     2c8:	4493      	add	fp, r2
     2ca:	42a3      	cmp	r3, r4
     2cc:	d18d      	bne.n	1ea <upsampleCb+0x32>
     2ce:	b003      	add	sp, #12
     2d0:	bc3c      	pop	{r2, r3, r4, r5}
     2d2:	4690      	mov	r8, r2
     2d4:	4699      	mov	r9, r3
     2d6:	46a2      	mov	sl, r4
     2d8:	46ab      	mov	fp, r5
     2da:	bdf0      	pop	{r4, r5, r6, r7, pc}
     2dc:	b2c9      	uxtb	r1, r1
     2de:	e7e8      	b.n	2b2 <upsampleCb+0xfa>
     2e0:	b2e4      	uxtb	r4, r4
     2e2:	e7dc      	b.n	29e <upsampleCb+0xe6>
     2e4:	b2e4      	uxtb	r4, r4
     2e6:	e7d0      	b.n	28a <upsampleCb+0xd2>
     2e8:	b2e4      	uxtb	r4, r4
     2ea:	e7c4      	b.n	276 <upsampleCb+0xbe>
     2ec:	b2e4      	uxtb	r4, r4
     2ee:	e7b0      	b.n	252 <upsampleCb+0x9a>
     2f0:	b2f6      	uxtb	r6, r6
     2f2:	e7a4      	b.n	23e <upsampleCb+0x86>
     2f4:	b2f6      	uxtb	r6, r6
     2f6:	e798      	b.n	22a <upsampleCb+0x72>
     2f8:	b2f6      	uxtb	r6, r6
     2fa:	e78c      	b.n	216 <upsampleCb+0x5e>
     2fc:	40000000 	andmi	r0, r0, r0
     300:	40000180 	andmi	r0, r0, r0, lsl #3
     304:	40000080 	andmi	r0, r0, r0, lsl #1

00000308 <upsampleCbH>:
     308:	b5f0      	push	{r4, r5, r6, r7, lr}
     30a:	4b37      	ldr	r3, [pc, #220]	; (3e8 <upsampleCbH+0xe0>)
     30c:	0040      	lsls	r0, r0, #1
     30e:	181b      	adds	r3, r3, r0
     310:	465f      	mov	r7, fp
     312:	469b      	mov	fp, r3
     314:	4b35      	ldr	r3, [pc, #212]	; (3ec <upsampleCbH+0xe4>)
     316:	4644      	mov	r4, r8
     318:	4656      	mov	r6, sl
     31a:	464d      	mov	r5, r9
     31c:	b4f0      	push	{r4, r5, r6, r7}
     31e:	185b      	adds	r3, r3, r1
     320:	469a      	mov	sl, r3
     322:	4b33      	ldr	r3, [pc, #204]	; (3f0 <upsampleCbH+0xe8>)
     324:	2458      	movs	r4, #88	; 0x58
     326:	185b      	adds	r3, r3, r1
     328:	1c1a      	adds	r2, r3, #0
     32a:	3240      	adds	r2, #64	; 0x40
     32c:	b083      	sub	sp, #12
     32e:	9201      	str	r2, [sp, #4]
     330:	46a1      	mov	r9, r4
     332:	22ff      	movs	r2, #255	; 0xff
     334:	24c6      	movs	r4, #198	; 0xc6
     336:	4690      	mov	r8, r2
     338:	46a4      	mov	ip, r4
     33a:	1c1f      	adds	r7, r3, #0
     33c:	3708      	adds	r7, #8
     33e:	4659      	mov	r1, fp
     340:	4652      	mov	r2, sl
     342:	8808      	ldrh	r0, [r1, #0]
     344:	464c      	mov	r4, r9
     346:	b2c6      	uxtb	r6, r0
     348:	4374      	muls	r4, r6
     34a:	0a24      	lsrs	r4, r4, #8
     34c:	3c2c      	subs	r4, #44	; 0x2c
     34e:	7815      	ldrb	r5, [r2, #0]
     350:	b2a4      	uxth	r4, r4
     352:	1b2d      	subs	r5, r5, r4
     354:	b2ad      	uxth	r5, r5
     356:	2dff      	cmp	r5, #255	; 0xff
     358:	d943      	bls.n	3e2 <upsampleCbH+0xda>
     35a:	43ed      	mvns	r5, r5
     35c:	042d      	lsls	r5, r5, #16
     35e:	17ed      	asrs	r5, r5, #31
     360:	b2ed      	uxtb	r5, r5
     362:	7015      	strb	r5, [r2, #0]
     364:	7855      	ldrb	r5, [r2, #1]
     366:	1b2c      	subs	r4, r5, r4
     368:	b2a4      	uxth	r4, r4
     36a:	2cff      	cmp	r4, #255	; 0xff
     36c:	d937      	bls.n	3de <upsampleCbH+0xd6>
     36e:	43e4      	mvns	r4, r4
     370:	0424      	lsls	r4, r4, #16
     372:	17e4      	asrs	r4, r4, #31
     374:	b2e4      	uxtb	r4, r4
     376:	7054      	strb	r4, [r2, #1]
     378:	4644      	mov	r4, r8
     37a:	4020      	ands	r0, r4
     37c:	4664      	mov	r4, ip
     37e:	4366      	muls	r6, r4
     380:	38e3      	subs	r0, #227	; 0xe3
     382:	0a36      	lsrs	r6, r6, #8
     384:	1980      	adds	r0, r0, r6
     386:	781c      	ldrb	r4, [r3, #0]
     388:	b280      	uxth	r0, r0
     38a:	1904      	adds	r4, r0, r4
     38c:	b2a4      	uxth	r4, r4
     38e:	2cff      	cmp	r4, #255	; 0xff
     390:	d923      	bls.n	3da <upsampleCbH+0xd2>
     392:	43e4      	mvns	r4, r4
     394:	0424      	lsls	r4, r4, #16
     396:	17e4      	asrs	r4, r4, #31
     398:	b2e4      	uxtb	r4, r4
     39a:	701c      	strb	r4, [r3, #0]
     39c:	785c      	ldrb	r4, [r3, #1]
     39e:	1900      	adds	r0, r0, r4
     3a0:	b280      	uxth	r0, r0
     3a2:	28ff      	cmp	r0, #255	; 0xff
     3a4:	d917      	bls.n	3d6 <upsampleCbH+0xce>
     3a6:	43c0      	mvns	r0, r0
     3a8:	0400      	lsls	r0, r0, #16
     3aa:	17c0      	asrs	r0, r0, #31
     3ac:	b2c0      	uxtb	r0, r0
     3ae:	7058      	strb	r0, [r3, #1]
     3b0:	3302      	adds	r3, #2
     3b2:	3202      	adds	r2, #2
     3b4:	3102      	adds	r1, #2
     3b6:	42bb      	cmp	r3, r7
     3b8:	d1c3      	bne.n	342 <upsampleCbH+0x3a>
     3ba:	2208      	movs	r2, #8
     3bc:	4492      	add	sl, r2
     3be:	9a01      	ldr	r2, [sp, #4]
     3c0:	2410      	movs	r4, #16
     3c2:	44a3      	add	fp, r4
     3c4:	4293      	cmp	r3, r2
     3c6:	d1b8      	bne.n	33a <upsampleCbH+0x32>
     3c8:	b003      	add	sp, #12
     3ca:	bc3c      	pop	{r2, r3, r4, r5}
     3cc:	4690      	mov	r8, r2
     3ce:	4699      	mov	r9, r3
     3d0:	46a2      	mov	sl, r4
     3d2:	46ab      	mov	fp, r5
     3d4:	bdf0      	pop	{r4, r5, r6, r7, pc}
     3d6:	b2c0      	uxtb	r0, r0
     3d8:	e7e9      	b.n	3ae <upsampleCbH+0xa6>
     3da:	b2e4      	uxtb	r4, r4
     3dc:	e7dd      	b.n	39a <upsampleCbH+0x92>
     3de:	b2e4      	uxtb	r4, r4
     3e0:	e7c9      	b.n	376 <upsampleCbH+0x6e>
     3e2:	b2ed      	uxtb	r5, r5
     3e4:	e7bd      	b.n	362 <upsampleCbH+0x5a>
     3e6:	46c0      	nop			; (mov r8, r8)
     3e8:	40000000 	andmi	r0, r0, r0
     3ec:	40000080 	andmi	r0, r0, r0, lsl #1
     3f0:	40000180 	andmi	r0, r0, r0, lsl #3

000003f4 <upsampleCbV>:
     3f4:	b5f0      	push	{r4, r5, r6, r7, lr}
     3f6:	4b3d      	ldr	r3, [pc, #244]	; (4ec <upsampleCbV+0xf8>)
     3f8:	0040      	lsls	r0, r0, #1
     3fa:	181b      	adds	r3, r3, r0
     3fc:	4656      	mov	r6, sl
     3fe:	469a      	mov	sl, r3
     400:	4b3b      	ldr	r3, [pc, #236]	; (4f0 <upsampleCbV+0xfc>)
     402:	4644      	mov	r4, r8
     404:	465f      	mov	r7, fp
     406:	464d      	mov	r5, r9
     408:	b4f0      	push	{r4, r5, r6, r7}
     40a:	185b      	adds	r3, r3, r1
     40c:	469b      	mov	fp, r3
     40e:	4b39      	ldr	r3, [pc, #228]	; (4f4 <upsampleCbV+0x100>)
     410:	2458      	movs	r4, #88	; 0x58
     412:	1859      	adds	r1, r3, r1
     414:	1c0b      	adds	r3, r1, #0
     416:	3340      	adds	r3, #64	; 0x40
     418:	b083      	sub	sp, #12
     41a:	9301      	str	r3, [sp, #4]
     41c:	46a1      	mov	r9, r4
     41e:	23ff      	movs	r3, #255	; 0xff
     420:	24c6      	movs	r4, #198	; 0xc6
     422:	4698      	mov	r8, r3
     424:	46a4      	mov	ip, r4
     426:	1c0f      	adds	r7, r1, #0
     428:	4650      	mov	r0, sl
     42a:	9100      	str	r1, [sp, #0]
     42c:	3708      	adds	r7, #8
     42e:	465b      	mov	r3, fp
     430:	e02f      	b.n	492 <upsampleCbV+0x9e>
     432:	43ed      	mvns	r5, r5
     434:	042d      	lsls	r5, r5, #16
     436:	17ed      	asrs	r5, r5, #31
     438:	b2ed      	uxtb	r5, r5
     43a:	701d      	strb	r5, [r3, #0]
     43c:	7a1d      	ldrb	r5, [r3, #8]
     43e:	1b2c      	subs	r4, r5, r4
     440:	b2a4      	uxth	r4, r4
     442:	2cff      	cmp	r4, #255	; 0xff
     444:	d938      	bls.n	4b8 <upsampleCbV+0xc4>
     446:	43e4      	mvns	r4, r4
     448:	0424      	lsls	r4, r4, #16
     44a:	17e4      	asrs	r4, r4, #31
     44c:	b2e4      	uxtb	r4, r4
     44e:	721c      	strb	r4, [r3, #8]
     450:	4644      	mov	r4, r8
     452:	4022      	ands	r2, r4
     454:	4664      	mov	r4, ip
     456:	4366      	muls	r6, r4
     458:	3ae3      	subs	r2, #227	; 0xe3
     45a:	0a36      	lsrs	r6, r6, #8
     45c:	1992      	adds	r2, r2, r6
     45e:	780c      	ldrb	r4, [r1, #0]
     460:	b292      	uxth	r2, r2
     462:	1914      	adds	r4, r2, r4
     464:	b2a4      	uxth	r4, r4
     466:	2cff      	cmp	r4, #255	; 0xff
     468:	d93e      	bls.n	4e8 <upsampleCbV+0xf4>
     46a:	43e4      	mvns	r4, r4
     46c:	0424      	lsls	r4, r4, #16
     46e:	17e4      	asrs	r4, r4, #31
     470:	b2e4      	uxtb	r4, r4
     472:	700c      	strb	r4, [r1, #0]
     474:	7a0c      	ldrb	r4, [r1, #8]
     476:	1912      	adds	r2, r2, r4
     478:	b292      	uxth	r2, r2
     47a:	2aff      	cmp	r2, #255	; 0xff
     47c:	d91e      	bls.n	4bc <upsampleCbV+0xc8>
     47e:	43d2      	mvns	r2, r2
     480:	0412      	lsls	r2, r2, #16
     482:	17d2      	asrs	r2, r2, #31
     484:	b2d2      	uxtb	r2, r2
     486:	720a      	strb	r2, [r1, #8]
     488:	3101      	adds	r1, #1
     48a:	3301      	adds	r3, #1
     48c:	3002      	adds	r0, #2
     48e:	42b9      	cmp	r1, r7
     490:	d01b      	beq.n	4ca <upsampleCbV+0xd6>
     492:	8802      	ldrh	r2, [r0, #0]
     494:	464c      	mov	r4, r9
     496:	b2d6      	uxtb	r6, r2
     498:	4374      	muls	r4, r6
     49a:	0a24      	lsrs	r4, r4, #8
     49c:	3c2c      	subs	r4, #44	; 0x2c
     49e:	781d      	ldrb	r5, [r3, #0]
     4a0:	b2a4      	uxth	r4, r4
     4a2:	1b2d      	subs	r5, r5, r4
     4a4:	b2ad      	uxth	r5, r5
     4a6:	2dff      	cmp	r5, #255	; 0xff
     4a8:	d8c3      	bhi.n	432 <upsampleCbV+0x3e>
     4aa:	b2ed      	uxtb	r5, r5
     4ac:	701d      	strb	r5, [r3, #0]
     4ae:	7a1d      	ldrb	r5, [r3, #8]
     4b0:	1b2c      	subs	r4, r5, r4
     4b2:	b2a4      	uxth	r4, r4
     4b4:	2cff      	cmp	r4, #255	; 0xff
     4b6:	d8c6      	bhi.n	446 <upsampleCbV+0x52>
     4b8:	b2e4      	uxtb	r4, r4
     4ba:	e7c8      	b.n	44e <upsampleCbV+0x5a>
     4bc:	b2d2      	uxtb	r2, r2
     4be:	720a      	strb	r2, [r1, #8]
     4c0:	3101      	adds	r1, #1
     4c2:	3301      	adds	r3, #1
     4c4:	3002      	adds	r0, #2
     4c6:	42b9      	cmp	r1, r7
     4c8:	d1e3      	bne.n	492 <upsampleCbV+0x9e>
     4ca:	9900      	ldr	r1, [sp, #0]
     4cc:	9c01      	ldr	r4, [sp, #4]
     4ce:	2310      	movs	r3, #16
     4d0:	3110      	adds	r1, #16
     4d2:	449a      	add	sl, r3
     4d4:	449b      	add	fp, r3
     4d6:	42a1      	cmp	r1, r4
     4d8:	d1a5      	bne.n	426 <upsampleCbV+0x32>
     4da:	b003      	add	sp, #12
     4dc:	bc3c      	pop	{r2, r3, r4, r5}
     4de:	4690      	mov	r8, r2
     4e0:	4699      	mov	r9, r3
     4e2:	46a2      	mov	sl, r4
     4e4:	46ab      	mov	fp, r5
     4e6:	bdf0      	pop	{r4, r5, r6, r7, pc}
     4e8:	b2e4      	uxtb	r4, r4
     4ea:	e7c2      	b.n	472 <upsampleCbV+0x7e>
     4ec:	40000000 	andmi	r0, r0, r0
     4f0:	40000080 	andmi	r0, r0, r0, lsl #1
     4f4:	40000180 	andmi	r0, r0, r0, lsl #3

000004f8 <upsampleCr>:
     4f8:	b5f0      	push	{r4, r5, r6, r7, lr}
     4fa:	4b4f      	ldr	r3, [pc, #316]	; (638 <upsampleCr+0x140>)
     4fc:	4656      	mov	r6, sl
     4fe:	464d      	mov	r5, r9
     500:	4644      	mov	r4, r8
     502:	465f      	mov	r7, fp
     504:	0040      	lsls	r0, r0, #1
     506:	b4f0      	push	{r4, r5, r6, r7}
     508:	181b      	adds	r3, r3, r0
     50a:	469a      	mov	sl, r3
     50c:	4a4b      	ldr	r2, [pc, #300]	; (63c <upsampleCr+0x144>)
     50e:	4b4c      	ldr	r3, [pc, #304]	; (640 <upsampleCr+0x148>)
     510:	1852      	adds	r2, r2, r1
     512:	185b      	adds	r3, r3, r1
     514:	4691      	mov	r9, r2
     516:	1c1a      	adds	r2, r3, #0
     518:	3240      	adds	r2, #64	; 0x40
     51a:	b083      	sub	sp, #12
     51c:	9201      	str	r2, [sp, #4]
     51e:	26ff      	movs	r6, #255	; 0xff
     520:	2267      	movs	r2, #103	; 0x67
     522:	46b0      	mov	r8, r6
     524:	4694      	mov	ip, r2
     526:	21b7      	movs	r1, #183	; 0xb7
     528:	1c1f      	adds	r7, r3, #0
     52a:	469b      	mov	fp, r3
     52c:	3708      	adds	r7, #8
     52e:	4654      	mov	r4, sl
     530:	464a      	mov	r2, r9
     532:	8825      	ldrh	r5, [r4, #0]
     534:	4646      	mov	r6, r8
     536:	b2e8      	uxtb	r0, r5
     538:	4035      	ands	r5, r6
     53a:	4666      	mov	r6, ip
     53c:	4346      	muls	r6, r0
     53e:	3db3      	subs	r5, #179	; 0xb3
     540:	0a36      	lsrs	r6, r6, #8
     542:	19ad      	adds	r5, r5, r6
     544:	781e      	ldrb	r6, [r3, #0]
     546:	b2ad      	uxth	r5, r5
     548:	19ae      	adds	r6, r5, r6
     54a:	b2b6      	uxth	r6, r6
     54c:	2eff      	cmp	r6, #255	; 0xff
     54e:	d800      	bhi.n	552 <upsampleCr+0x5a>
     550:	e070      	b.n	634 <upsampleCr+0x13c>
     552:	43f6      	mvns	r6, r6
     554:	0436      	lsls	r6, r6, #16
     556:	17f6      	asrs	r6, r6, #31
     558:	b2f6      	uxtb	r6, r6
     55a:	701e      	strb	r6, [r3, #0]
     55c:	785e      	ldrb	r6, [r3, #1]
     55e:	19ae      	adds	r6, r5, r6
     560:	b2b6      	uxth	r6, r6
     562:	2eff      	cmp	r6, #255	; 0xff
     564:	d964      	bls.n	630 <upsampleCr+0x138>
     566:	43f6      	mvns	r6, r6
     568:	0436      	lsls	r6, r6, #16
     56a:	17f6      	asrs	r6, r6, #31
     56c:	b2f6      	uxtb	r6, r6
     56e:	705e      	strb	r6, [r3, #1]
     570:	7a1e      	ldrb	r6, [r3, #8]
     572:	19ae      	adds	r6, r5, r6
     574:	b2b6      	uxth	r6, r6
     576:	2eff      	cmp	r6, #255	; 0xff
     578:	d958      	bls.n	62c <upsampleCr+0x134>
     57a:	43f6      	mvns	r6, r6
     57c:	0436      	lsls	r6, r6, #16
     57e:	17f6      	asrs	r6, r6, #31
     580:	b2f6      	uxtb	r6, r6
     582:	721e      	strb	r6, [r3, #8]
     584:	7a5e      	ldrb	r6, [r3, #9]
     586:	19ad      	adds	r5, r5, r6
     588:	b2ad      	uxth	r5, r5
     58a:	2dff      	cmp	r5, #255	; 0xff
     58c:	d94c      	bls.n	628 <upsampleCr+0x130>
     58e:	43ed      	mvns	r5, r5
     590:	042d      	lsls	r5, r5, #16
     592:	17ed      	asrs	r5, r5, #31
     594:	b2ed      	uxtb	r5, r5
     596:	4348      	muls	r0, r1
     598:	0a00      	lsrs	r0, r0, #8
     59a:	725d      	strb	r5, [r3, #9]
     59c:	385b      	subs	r0, #91	; 0x5b
     59e:	7815      	ldrb	r5, [r2, #0]
     5a0:	b280      	uxth	r0, r0
     5a2:	1a2d      	subs	r5, r5, r0
     5a4:	b2ad      	uxth	r5, r5
     5a6:	2dff      	cmp	r5, #255	; 0xff
     5a8:	d93c      	bls.n	624 <upsampleCr+0x12c>
     5aa:	43ed      	mvns	r5, r5
     5ac:	042d      	lsls	r5, r5, #16
     5ae:	17ed      	asrs	r5, r5, #31
     5b0:	b2ed      	uxtb	r5, r5
     5b2:	7015      	strb	r5, [r2, #0]
     5b4:	7855      	ldrb	r5, [r2, #1]
     5b6:	1a2d      	subs	r5, r5, r0
     5b8:	b2ad      	uxth	r5, r5
     5ba:	2dff      	cmp	r5, #255	; 0xff
     5bc:	d930      	bls.n	620 <upsampleCr+0x128>
     5be:	43ed      	mvns	r5, r5
     5c0:	042d      	lsls	r5, r5, #16
     5c2:	17ed      	asrs	r5, r5, #31
     5c4:	b2ed      	uxtb	r5, r5
     5c6:	7055      	strb	r5, [r2, #1]
     5c8:	7a15      	ldrb	r5, [r2, #8]
     5ca:	1a2d      	subs	r5, r5, r0
     5cc:	b2ad      	uxth	r5, r5
     5ce:	2dff      	cmp	r5, #255	; 0xff
     5d0:	d924      	bls.n	61c <upsampleCr+0x124>
     5d2:	43ed      	mvns	r5, r5
     5d4:	042d      	lsls	r5, r5, #16
     5d6:	17ed      	asrs	r5, r5, #31
     5d8:	b2ed      	uxtb	r5, r5
     5da:	7215      	strb	r5, [r2, #8]
     5dc:	7a55      	ldrb	r5, [r2, #9]
     5de:	1a28      	subs	r0, r5, r0
     5e0:	b280      	uxth	r0, r0
     5e2:	28ff      	cmp	r0, #255	; 0xff
     5e4:	d918      	bls.n	618 <upsampleCr+0x120>
     5e6:	43c0      	mvns	r0, r0
     5e8:	0400      	lsls	r0, r0, #16
     5ea:	17c0      	asrs	r0, r0, #31
     5ec:	b2c0      	uxtb	r0, r0
     5ee:	3302      	adds	r3, #2
     5f0:	7250      	strb	r0, [r2, #9]
     5f2:	3402      	adds	r4, #2
     5f4:	3202      	adds	r2, #2
     5f6:	42bb      	cmp	r3, r7
     5f8:	d19b      	bne.n	532 <upsampleCr+0x3a>
     5fa:	465b      	mov	r3, fp
     5fc:	9e01      	ldr	r6, [sp, #4]
     5fe:	2210      	movs	r2, #16
     600:	3310      	adds	r3, #16
     602:	4492      	add	sl, r2
     604:	4491      	add	r9, r2
     606:	42b3      	cmp	r3, r6
     608:	d18e      	bne.n	528 <upsampleCr+0x30>
     60a:	b003      	add	sp, #12
     60c:	bc3c      	pop	{r2, r3, r4, r5}
     60e:	4690      	mov	r8, r2
     610:	4699      	mov	r9, r3
     612:	46a2      	mov	sl, r4
     614:	46ab      	mov	fp, r5
     616:	bdf0      	pop	{r4, r5, r6, r7, pc}
     618:	b2c0      	uxtb	r0, r0
     61a:	e7e8      	b.n	5ee <upsampleCr+0xf6>
     61c:	b2ed      	uxtb	r5, r5
     61e:	e7dc      	b.n	5da <upsampleCr+0xe2>
     620:	b2ed      	uxtb	r5, r5
     622:	e7d0      	b.n	5c6 <upsampleCr+0xce>
     624:	b2ed      	uxtb	r5, r5
     626:	e7c4      	b.n	5b2 <upsampleCr+0xba>
     628:	b2ed      	uxtb	r5, r5
     62a:	e7b4      	b.n	596 <upsampleCr+0x9e>
     62c:	b2f6      	uxtb	r6, r6
     62e:	e7a8      	b.n	582 <upsampleCr+0x8a>
     630:	b2f6      	uxtb	r6, r6
     632:	e79c      	b.n	56e <upsampleCr+0x76>
     634:	b2f6      	uxtb	r6, r6
     636:	e790      	b.n	55a <upsampleCr+0x62>
     638:	40000000 	andmi	r0, r0, r0
     63c:	40000080 	andmi	r0, r0, r0, lsl #1
     640:	40000280 	andmi	r0, r0, r0, lsl #5

00000644 <upsampleCrH>:
     644:	4b35      	ldr	r3, [pc, #212]	; (71c <upsampleCrH+0xd8>)
     646:	0040      	lsls	r0, r0, #1
     648:	181b      	adds	r3, r3, r0
     64a:	b5f0      	push	{r4, r5, r6, r7, lr}
     64c:	464d      	mov	r5, r9
     64e:	4699      	mov	r9, r3
     650:	4b33      	ldr	r3, [pc, #204]	; (720 <upsampleCrH+0xdc>)
     652:	4644      	mov	r4, r8
     654:	185b      	adds	r3, r3, r1
     656:	4698      	mov	r8, r3
     658:	4b32      	ldr	r3, [pc, #200]	; (724 <upsampleCrH+0xe0>)
     65a:	2240      	movs	r2, #64	; 0x40
     65c:	185b      	adds	r3, r3, r1
     65e:	465f      	mov	r7, fp
     660:	4656      	mov	r6, sl
     662:	18d2      	adds	r2, r2, r3
     664:	b4f0      	push	{r4, r5, r6, r7}
     666:	4692      	mov	sl, r2
     668:	24ff      	movs	r4, #255	; 0xff
     66a:	22b7      	movs	r2, #183	; 0xb7
     66c:	46a4      	mov	ip, r4
     66e:	2767      	movs	r7, #103	; 0x67
     670:	4693      	mov	fp, r2
     672:	1c1d      	adds	r5, r3, #0
     674:	3508      	adds	r5, #8
     676:	4648      	mov	r0, r9
     678:	4642      	mov	r2, r8
     67a:	8801      	ldrh	r1, [r0, #0]
     67c:	4664      	mov	r4, ip
     67e:	b2ce      	uxtb	r6, r1
     680:	4021      	ands	r1, r4
     682:	1c3c      	adds	r4, r7, #0
     684:	4374      	muls	r4, r6
     686:	39b3      	subs	r1, #179	; 0xb3
     688:	0a24      	lsrs	r4, r4, #8
     68a:	1909      	adds	r1, r1, r4
     68c:	7814      	ldrb	r4, [r2, #0]
     68e:	b289      	uxth	r1, r1
     690:	190c      	adds	r4, r1, r4
     692:	b2a4      	uxth	r4, r4
     694:	2cff      	cmp	r4, #255	; 0xff
     696:	d93e      	bls.n	716 <upsampleCrH+0xd2>
     698:	43e4      	mvns	r4, r4
     69a:	0424      	lsls	r4, r4, #16
     69c:	17e4      	asrs	r4, r4, #31
     69e:	b2e4      	uxtb	r4, r4
     6a0:	7014      	strb	r4, [r2, #0]
     6a2:	7854      	ldrb	r4, [r2, #1]
     6a4:	1909      	adds	r1, r1, r4
     6a6:	b289      	uxth	r1, r1
     6a8:	29ff      	cmp	r1, #255	; 0xff
     6aa:	d932      	bls.n	712 <upsampleCrH+0xce>
     6ac:	43c9      	mvns	r1, r1
     6ae:	0409      	lsls	r1, r1, #16
     6b0:	17c9      	asrs	r1, r1, #31
     6b2:	b2c9      	uxtb	r1, r1
     6b4:	7051      	strb	r1, [r2, #1]
     6b6:	4659      	mov	r1, fp
     6b8:	4371      	muls	r1, r6
     6ba:	0a09      	lsrs	r1, r1, #8
     6bc:	395b      	subs	r1, #91	; 0x5b
     6be:	781c      	ldrb	r4, [r3, #0]
     6c0:	b289      	uxth	r1, r1
     6c2:	1a64      	subs	r4, r4, r1
     6c4:	b2a4      	uxth	r4, r4
     6c6:	2cff      	cmp	r4, #255	; 0xff
     6c8:	d921      	bls.n	70e <upsampleCrH+0xca>
     6ca:	43e4      	mvns	r4, r4
     6cc:	0424      	lsls	r4, r4, #16
     6ce:	17e4      	asrs	r4, r4, #31
     6d0:	b2e4      	uxtb	r4, r4
     6d2:	701c      	strb	r4, [r3, #0]
     6d4:	785c      	ldrb	r4, [r3, #1]
     6d6:	1a61      	subs	r1, r4, r1
     6d8:	b289      	uxth	r1, r1
     6da:	29ff      	cmp	r1, #255	; 0xff
     6dc:	d915      	bls.n	70a <upsampleCrH+0xc6>
     6de:	43c9      	mvns	r1, r1
     6e0:	0409      	lsls	r1, r1, #16
     6e2:	17c9      	asrs	r1, r1, #31
     6e4:	b2c9      	uxtb	r1, r1
     6e6:	7059      	strb	r1, [r3, #1]
     6e8:	3302      	adds	r3, #2
     6ea:	3202      	adds	r2, #2
     6ec:	3002      	adds	r0, #2
     6ee:	42ab      	cmp	r3, r5
     6f0:	d1c3      	bne.n	67a <upsampleCrH+0x36>
     6f2:	2208      	movs	r2, #8
     6f4:	2410      	movs	r4, #16
     6f6:	4490      	add	r8, r2
     6f8:	44a1      	add	r9, r4
     6fa:	4553      	cmp	r3, sl
     6fc:	d1b9      	bne.n	672 <upsampleCrH+0x2e>
     6fe:	bc3c      	pop	{r2, r3, r4, r5}
     700:	4690      	mov	r8, r2
     702:	4699      	mov	r9, r3
     704:	46a2      	mov	sl, r4
     706:	46ab      	mov	fp, r5
     708:	bdf0      	pop	{r4, r5, r6, r7, pc}
     70a:	b2c9      	uxtb	r1, r1
     70c:	e7eb      	b.n	6e6 <upsampleCrH+0xa2>
     70e:	b2e4      	uxtb	r4, r4
     710:	e7df      	b.n	6d2 <upsampleCrH+0x8e>
     712:	b2c9      	uxtb	r1, r1
     714:	e7ce      	b.n	6b4 <upsampleCrH+0x70>
     716:	b2e4      	uxtb	r4, r4
     718:	e7c2      	b.n	6a0 <upsampleCrH+0x5c>
     71a:	46c0      	nop			; (mov r8, r8)
     71c:	40000000 	andmi	r0, r0, r0
     720:	40000280 	andmi	r0, r0, r0, lsl #5
     724:	40000080 	andmi	r0, r0, r0, lsl #1

00000728 <upsampleCrV>:
     728:	b5f0      	push	{r4, r5, r6, r7, lr}
     72a:	4b3d      	ldr	r3, [pc, #244]	; (820 <upsampleCrV+0xf8>)
     72c:	0040      	lsls	r0, r0, #1
     72e:	181b      	adds	r3, r3, r0
     730:	4656      	mov	r6, sl
     732:	469a      	mov	sl, r3
     734:	4b3b      	ldr	r3, [pc, #236]	; (824 <upsampleCrV+0xfc>)
     736:	4644      	mov	r4, r8
     738:	465f      	mov	r7, fp
     73a:	464d      	mov	r5, r9
     73c:	b4f0      	push	{r4, r5, r6, r7}
     73e:	185b      	adds	r3, r3, r1
     740:	4699      	mov	r9, r3
     742:	4b39      	ldr	r3, [pc, #228]	; (828 <upsampleCrV+0x100>)
     744:	b083      	sub	sp, #12
     746:	1859      	adds	r1, r3, r1
     748:	1c0b      	adds	r3, r1, #0
     74a:	3340      	adds	r3, #64	; 0x40
     74c:	9301      	str	r3, [sp, #4]
     74e:	24ff      	movs	r4, #255	; 0xff
     750:	2367      	movs	r3, #103	; 0x67
     752:	46a0      	mov	r8, r4
     754:	469c      	mov	ip, r3
     756:	27b7      	movs	r7, #183	; 0xb7
     758:	1c0e      	adds	r6, r1, #0
     75a:	4650      	mov	r0, sl
     75c:	468b      	mov	fp, r1
     75e:	3608      	adds	r6, #8
     760:	464b      	mov	r3, r9
     762:	e02c      	b.n	7be <upsampleCrV+0x96>
     764:	43e4      	mvns	r4, r4
     766:	0424      	lsls	r4, r4, #16
     768:	17e4      	asrs	r4, r4, #31
     76a:	b2e4      	uxtb	r4, r4
     76c:	701c      	strb	r4, [r3, #0]
     76e:	7a1c      	ldrb	r4, [r3, #8]
     770:	1912      	adds	r2, r2, r4
     772:	b292      	uxth	r2, r2
     774:	2aff      	cmp	r2, #255	; 0xff
     776:	d938      	bls.n	7ea <upsampleCrV+0xc2>
     778:	43d2      	mvns	r2, r2
     77a:	0412      	lsls	r2, r2, #16
     77c:	17d2      	asrs	r2, r2, #31
     77e:	b2d2      	uxtb	r2, r2
     780:	721a      	strb	r2, [r3, #8]
     782:	1c3a      	adds	r2, r7, #0
     784:	436a      	muls	r2, r5
     786:	0a12      	lsrs	r2, r2, #8
     788:	3a5b      	subs	r2, #91	; 0x5b
     78a:	780c      	ldrb	r4, [r1, #0]
     78c:	b292      	uxth	r2, r2
     78e:	1aa4      	subs	r4, r4, r2
     790:	b2a4      	uxth	r4, r4
     792:	2cff      	cmp	r4, #255	; 0xff
     794:	d941      	bls.n	81a <upsampleCrV+0xf2>
     796:	43e4      	mvns	r4, r4
     798:	0424      	lsls	r4, r4, #16
     79a:	17e4      	asrs	r4, r4, #31
     79c:	b2e4      	uxtb	r4, r4
     79e:	700c      	strb	r4, [r1, #0]
     7a0:	7a0c      	ldrb	r4, [r1, #8]
     7a2:	1aa2      	subs	r2, r4, r2
     7a4:	b292      	uxth	r2, r2
     7a6:	2aff      	cmp	r2, #255	; 0xff
     7a8:	d921      	bls.n	7ee <upsampleCrV+0xc6>
     7aa:	43d2      	mvns	r2, r2
     7ac:	0412      	lsls	r2, r2, #16
     7ae:	17d2      	asrs	r2, r2, #31
     7b0:	b2d2      	uxtb	r2, r2
     7b2:	720a      	strb	r2, [r1, #8]
     7b4:	3101      	adds	r1, #1
     7b6:	3301      	adds	r3, #1
     7b8:	3002      	adds	r0, #2
     7ba:	42b1      	cmp	r1, r6
     7bc:	d01e      	beq.n	7fc <upsampleCrV+0xd4>
     7be:	8802      	ldrh	r2, [r0, #0]
     7c0:	4644      	mov	r4, r8
     7c2:	b2d5      	uxtb	r5, r2
     7c4:	4022      	ands	r2, r4
     7c6:	4664      	mov	r4, ip
     7c8:	436c      	muls	r4, r5
     7ca:	3ab3      	subs	r2, #179	; 0xb3
     7cc:	0a24      	lsrs	r4, r4, #8
     7ce:	1912      	adds	r2, r2, r4
     7d0:	781c      	ldrb	r4, [r3, #0]
     7d2:	b292      	uxth	r2, r2
     7d4:	1914      	adds	r4, r2, r4
     7d6:	b2a4      	uxth	r4, r4
     7d8:	2cff      	cmp	r4, #255	; 0xff
     7da:	d8c3      	bhi.n	764 <upsampleCrV+0x3c>
     7dc:	b2e4      	uxtb	r4, r4
     7de:	701c      	strb	r4, [r3, #0]
     7e0:	7a1c      	ldrb	r4, [r3, #8]
     7e2:	1912      	adds	r2, r2, r4
     7e4:	b292      	uxth	r2, r2
     7e6:	2aff      	cmp	r2, #255	; 0xff
     7e8:	d8c6      	bhi.n	778 <upsampleCrV+0x50>
     7ea:	b2d2      	uxtb	r2, r2
     7ec:	e7c8      	b.n	780 <upsampleCrV+0x58>
     7ee:	b2d2      	uxtb	r2, r2
     7f0:	720a      	strb	r2, [r1, #8]
     7f2:	3101      	adds	r1, #1
     7f4:	3301      	adds	r3, #1
     7f6:	3002      	adds	r0, #2
     7f8:	42b1      	cmp	r1, r6
     7fa:	d1e0      	bne.n	7be <upsampleCrV+0x96>
     7fc:	4659      	mov	r1, fp
     7fe:	9c01      	ldr	r4, [sp, #4]
     800:	2310      	movs	r3, #16
     802:	3110      	adds	r1, #16
     804:	449a      	add	sl, r3
     806:	4499      	add	r9, r3
     808:	42a1      	cmp	r1, r4
     80a:	d1a5      	bne.n	758 <upsampleCrV+0x30>
     80c:	b003      	add	sp, #12
     80e:	bc3c      	pop	{r2, r3, r4, r5}
     810:	4690      	mov	r8, r2
     812:	4699      	mov	r9, r3
     814:	46a2      	mov	sl, r4
     816:	46ab      	mov	fp, r5
     818:	bdf0      	pop	{r4, r5, r6, r7, pc}
     81a:	b2e4      	uxtb	r4, r4
     81c:	e7bf      	b.n	79e <upsampleCrV+0x76>
     81e:	46c0      	nop			; (mov r8, r8)
     820:	40000000 	andmi	r0, r0, r0
     824:	40000280 	andmi	r0, r0, r0, lsl #5
     828:	40000080 	andmi	r0, r0, r0, lsl #1

0000082c <copyY>:
     82c:	b530      	push	{r4, r5, lr}
     82e:	4b08      	ldr	r3, [pc, #32]	; (850 <copyY+0x24>)
     830:	4d08      	ldr	r5, [pc, #32]	; (854 <copyY+0x28>)
     832:	4c09      	ldr	r4, [pc, #36]	; (858 <copyY+0x2c>)
     834:	4909      	ldr	r1, [pc, #36]	; (85c <copyY+0x30>)
     836:	182d      	adds	r5, r5, r0
     838:	1824      	adds	r4, r4, r0
     83a:	1818      	adds	r0, r3, r0
     83c:	2300      	movs	r3, #0
     83e:	780a      	ldrb	r2, [r1, #0]
     840:	3102      	adds	r1, #2
     842:	54ea      	strb	r2, [r5, r3]
     844:	54e2      	strb	r2, [r4, r3]
     846:	54c2      	strb	r2, [r0, r3]
     848:	3301      	adds	r3, #1
     84a:	2b40      	cmp	r3, #64	; 0x40
     84c:	d1f7      	bne.n	83e <copyY+0x12>
     84e:	bd30      	pop	{r4, r5, pc}
     850:	40000180 	andmi	r0, r0, r0, lsl #3
     854:	40000280 	andmi	r0, r0, r0, lsl #5
     858:	40000080 	andmi	r0, r0, r0, lsl #1
     85c:	40000000 	andmi	r0, r0, r0

00000860 <getChar>:
     860:	b570      	push	{r4, r5, r6, lr}
     862:	4c13      	ldr	r4, [pc, #76]	; (8b0 <getChar+0x50>)
     864:	7823      	ldrb	r3, [r4, #0]
     866:	1e1a      	subs	r2, r3, #0
     868:	d007      	beq.n	87a <getChar+0x1a>
     86a:	7863      	ldrb	r3, [r4, #1]
     86c:	3a01      	subs	r2, #1
     86e:	7022      	strb	r2, [r4, #0]
     870:	1c5a      	adds	r2, r3, #1
     872:	7062      	strb	r2, [r4, #1]
     874:	18e4      	adds	r4, r4, r3
     876:	7a20      	ldrb	r0, [r4, #8]
     878:	bd70      	pop	{r4, r5, r6, pc}
     87a:	4d0e      	ldr	r5, [pc, #56]	; (8b4 <getChar+0x54>)
     87c:	2204      	movs	r2, #4
     87e:	1c20      	adds	r0, r4, #0
     880:	7062      	strb	r2, [r4, #1]
     882:	7023      	strb	r3, [r4, #0]
     884:	300c      	adds	r0, #12
     886:	21fc      	movs	r1, #252	; 0xfc
     888:	1c22      	adds	r2, r4, #0
     88a:	68ab      	ldr	r3, [r5, #8]
     88c:	6866      	ldr	r6, [r4, #4]
     88e:	47b0      	blx	r6
     890:	2800      	cmp	r0, #0
     892:	d000      	beq.n	896 <getChar+0x36>
     894:	7328      	strb	r0, [r5, #12]
     896:	7822      	ldrb	r2, [r4, #0]
     898:	2a00      	cmp	r2, #0
     89a:	d1e6      	bne.n	86a <getChar+0xa>
     89c:	7b6b      	ldrb	r3, [r5, #13]
     89e:	20d9      	movs	r0, #217	; 0xd9
     8a0:	43db      	mvns	r3, r3
     8a2:	b2db      	uxtb	r3, r3
     8a4:	736b      	strb	r3, [r5, #13]
     8a6:	2b00      	cmp	r3, #0
     8a8:	d0e6      	beq.n	878 <getChar+0x18>
     8aa:	20ff      	movs	r0, #255	; 0xff
     8ac:	e7e4      	b.n	878 <getChar+0x18>
     8ae:	46c0      	nop			; (mov r8, r8)
     8b0:	40000380 	andmi	r0, r0, r0, lsl #7
     8b4:	40000480 	andmi	r0, r0, r0, lsl #9

000008b8 <getOctet.part.1>:
     8b8:	b508      	push	{r3, lr}
     8ba:	f7ff ffd1 	bl	860 <getChar>
     8be:	2800      	cmp	r0, #0
     8c0:	d00e      	beq.n	8e0 <getOctet.part.1+0x28>
     8c2:	4b08      	ldr	r3, [pc, #32]	; (8e4 <getOctet.part.1+0x2c>)
     8c4:	785a      	ldrb	r2, [r3, #1]
     8c6:	1e51      	subs	r1, r2, #1
     8c8:	b2c9      	uxtb	r1, r1
     8ca:	1859      	adds	r1, r3, r1
     8cc:	7208      	strb	r0, [r1, #8]
     8ce:	3a02      	subs	r2, #2
     8d0:	7819      	ldrb	r1, [r3, #0]
     8d2:	b2d2      	uxtb	r2, r2
     8d4:	705a      	strb	r2, [r3, #1]
     8d6:	20ff      	movs	r0, #255	; 0xff
     8d8:	189a      	adds	r2, r3, r2
     8da:	7210      	strb	r0, [r2, #8]
     8dc:	1c8a      	adds	r2, r1, #2
     8de:	701a      	strb	r2, [r3, #0]
     8e0:	bd08      	pop	{r3, pc}
     8e2:	46c0      	nop			; (mov r8, r8)
     8e4:	40000380 	andmi	r0, r0, r0, lsl #7

000008e8 <getBit>:
     8e8:	b570      	push	{r4, r5, r6, lr}
     8ea:	4c0d      	ldr	r4, [pc, #52]	; (920 <getBit+0x38>)
     8ec:	89e2      	ldrh	r2, [r4, #14]
     8ee:	7c23      	ldrb	r3, [r4, #16]
     8f0:	0bd5      	lsrs	r5, r2, #15
     8f2:	2b00      	cmp	r3, #0
     8f4:	d005      	beq.n	902 <getBit+0x1a>
     8f6:	3b01      	subs	r3, #1
     8f8:	0052      	lsls	r2, r2, #1
     8fa:	1c28      	adds	r0, r5, #0
     8fc:	7423      	strb	r3, [r4, #16]
     8fe:	81e2      	strh	r2, [r4, #14]
     900:	bd70      	pop	{r4, r5, r6, pc}
     902:	f7ff ffad 	bl	860 <getChar>
     906:	1e06      	subs	r6, r0, #0
     908:	2eff      	cmp	r6, #255	; 0xff
     90a:	d006      	beq.n	91a <getBit+0x32>
     90c:	89e2      	ldrh	r2, [r4, #14]
     90e:	7c23      	ldrb	r3, [r4, #16]
     910:	4316      	orrs	r6, r2
     912:	3308      	adds	r3, #8
     914:	b2b2      	uxth	r2, r6
     916:	b2db      	uxtb	r3, r3
     918:	e7ed      	b.n	8f6 <getBit+0xe>
     91a:	f7ff ffcd 	bl	8b8 <getOctet.part.1>
     91e:	e7f5      	b.n	90c <getBit+0x24>
     920:	40000480 	andmi	r0, r0, r0, lsl #9

00000924 <huffDecode>:
     924:	b5f8      	push	{r3, r4, r5, r6, r7, lr}
     926:	464f      	mov	r7, r9
     928:	4646      	mov	r6, r8
     92a:	b4c0      	push	{r6, r7}
     92c:	4680      	mov	r8, r0
     92e:	4689      	mov	r9, r1
     930:	f7ff ffda 	bl	8e8 <getBit>
     934:	4645      	mov	r5, r8
     936:	4f12      	ldr	r7, [pc, #72]	; (980 <huffDecode+0x5c>)
     938:	3520      	adds	r5, #32
     93a:	2400      	movs	r4, #0
     93c:	882b      	ldrh	r3, [r5, #0]
     93e:	4283      	cmp	r3, r0
     940:	d301      	bcc.n	946 <huffDecode+0x22>
     942:	42bb      	cmp	r3, r7
     944:	d10e      	bne.n	964 <huffDecode+0x40>
     946:	0040      	lsls	r0, r0, #1
     948:	b286      	uxth	r6, r0
     94a:	f7ff ffcd 	bl	8e8 <getBit>
     94e:	3401      	adds	r4, #1
     950:	4306      	orrs	r6, r0
     952:	b2b0      	uxth	r0, r6
     954:	3502      	adds	r5, #2
     956:	2c10      	cmp	r4, #16
     958:	d1f0      	bne.n	93c <huffDecode+0x18>
     95a:	2000      	movs	r0, #0
     95c:	bc0c      	pop	{r2, r3}
     95e:	4690      	mov	r8, r2
     960:	4699      	mov	r9, r3
     962:	bdf8      	pop	{r3, r4, r5, r6, r7, pc}
     964:	4642      	mov	r2, r8
     966:	1913      	adds	r3, r2, r4
     968:	3340      	adds	r3, #64	; 0x40
     96a:	781b      	ldrb	r3, [r3, #0]
     96c:	0064      	lsls	r4, r4, #1
     96e:	18c0      	adds	r0, r0, r3
     970:	5aa3      	ldrh	r3, [r4, r2]
     972:	b2c0      	uxtb	r0, r0
     974:	1ac3      	subs	r3, r0, r3
     976:	b2db      	uxtb	r3, r3
     978:	464a      	mov	r2, r9
     97a:	5cd0      	ldrb	r0, [r2, r3]
     97c:	e7ee      	b.n	95c <huffDecode+0x38>
     97e:	46c0      	nop			; (mov r8, r8)
     980:	0000ffff 	strdeq	pc, [r0], -pc	; <UNPREDICTABLE>

00000984 <getBits>:
     984:	b5f8      	push	{r3, r4, r5, r6, r7, lr}
     986:	4c2a      	ldr	r4, [pc, #168]	; (a30 <getBits+0xac>)
     988:	464f      	mov	r7, r9
     98a:	4646      	mov	r6, r8
     98c:	b4c0      	push	{r6, r7}
     98e:	1c05      	adds	r5, r0, #0
     990:	4688      	mov	r8, r1
     992:	89e7      	ldrh	r7, [r4, #14]
     994:	2808      	cmp	r0, #8
     996:	d810      	bhi.n	9ba <getBits+0x36>
     998:	7c23      	ldrb	r3, [r4, #16]
     99a:	1c3a      	adds	r2, r7, #0
     99c:	1c06      	adds	r6, r0, #0
     99e:	429e      	cmp	r6, r3
     9a0:	d829      	bhi.n	9f6 <getBits+0x72>
     9a2:	1b9b      	subs	r3, r3, r6
     9a4:	40b2      	lsls	r2, r6
     9a6:	7423      	strb	r3, [r4, #16]
     9a8:	81e2      	strh	r2, [r4, #14]
     9aa:	2010      	movs	r0, #16
     9ac:	1b45      	subs	r5, r0, r5
     9ae:	412f      	asrs	r7, r5
     9b0:	b2b8      	uxth	r0, r7
     9b2:	bc0c      	pop	{r2, r3}
     9b4:	4690      	mov	r8, r2
     9b6:	4699      	mov	r9, r3
     9b8:	bdf8      	pop	{r3, r4, r5, r6, r7, pc}
     9ba:	7c23      	ldrb	r3, [r4, #16]
     9bc:	1c39      	adds	r1, r7, #0
     9be:	4099      	lsls	r1, r3
     9c0:	1c06      	adds	r6, r0, #0
     9c2:	81e1      	strh	r1, [r4, #14]
     9c4:	f7ff ff4c 	bl	860 <getChar>
     9c8:	3e08      	subs	r6, #8
     9ca:	4642      	mov	r2, r8
     9cc:	b2f6      	uxtb	r6, r6
     9ce:	4681      	mov	r9, r0
     9d0:	2a00      	cmp	r2, #0
     9d2:	d001      	beq.n	9d8 <getBits+0x54>
     9d4:	28ff      	cmp	r0, #255	; 0xff
     9d6:	d024      	beq.n	a22 <getBits+0x9e>
     9d8:	89e2      	ldrh	r2, [r4, #14]
     9da:	4649      	mov	r1, r9
     9dc:	7c23      	ldrb	r3, [r4, #16]
     9de:	430a      	orrs	r2, r1
     9e0:	2108      	movs	r1, #8
     9e2:	1ac9      	subs	r1, r1, r3
     9e4:	b292      	uxth	r2, r2
     9e6:	408a      	lsls	r2, r1
     9e8:	b292      	uxth	r2, r2
     9ea:	20ff      	movs	r0, #255	; 0xff
     9ec:	0a11      	lsrs	r1, r2, #8
     9ee:	4387      	bics	r7, r0
     9f0:	430f      	orrs	r7, r1
     9f2:	429e      	cmp	r6, r3
     9f4:	d9d5      	bls.n	9a2 <getBits+0x1e>
     9f6:	409a      	lsls	r2, r3
     9f8:	81e2      	strh	r2, [r4, #14]
     9fa:	f7ff ff31 	bl	860 <getChar>
     9fe:	4642      	mov	r2, r8
     a00:	4681      	mov	r9, r0
     a02:	2a00      	cmp	r2, #0
     a04:	d001      	beq.n	a0a <getBits+0x86>
     a06:	28ff      	cmp	r0, #255	; 0xff
     a08:	d00e      	beq.n	a28 <getBits+0xa4>
     a0a:	89e2      	ldrh	r2, [r4, #14]
     a0c:	7c23      	ldrb	r3, [r4, #16]
     a0e:	4649      	mov	r1, r9
     a10:	430a      	orrs	r2, r1
     a12:	b292      	uxth	r2, r2
     a14:	1af1      	subs	r1, r6, r3
     a16:	3308      	adds	r3, #8
     a18:	408a      	lsls	r2, r1
     a1a:	1b9e      	subs	r6, r3, r6
     a1c:	81e2      	strh	r2, [r4, #14]
     a1e:	7426      	strb	r6, [r4, #16]
     a20:	e7c3      	b.n	9aa <getBits+0x26>
     a22:	f7ff ff49 	bl	8b8 <getOctet.part.1>
     a26:	e7d7      	b.n	9d8 <getBits+0x54>
     a28:	f7ff ff46 	bl	8b8 <getOctet.part.1>
     a2c:	e7ed      	b.n	a0a <getBits+0x86>
     a2e:	46c0      	nop			; (mov r8, r8)
     a30:	40000480 	andmi	r0, r0, r0, lsl #9

00000a34 <processMarkers>:
     a34:	b5f0      	push	{r4, r5, r6, r7, lr}
     a36:	465f      	mov	r7, fp
     a38:	4656      	mov	r6, sl
     a3a:	464d      	mov	r5, r9
     a3c:	4644      	mov	r4, r8
     a3e:	b4f0      	push	{r4, r5, r6, r7}
     a40:	b089      	sub	sp, #36	; 0x24
     a42:	9003      	str	r0, [sp, #12]
     a44:	49af      	ldr	r1, [pc, #700]	; (d04 <processMarkers+0x2d0>)
     a46:	48b0      	ldr	r0, [pc, #704]	; (d08 <processMarkers+0x2d4>)
     a48:	468b      	mov	fp, r1
     a4a:	4682      	mov	sl, r0
     a4c:	2008      	movs	r0, #8
     a4e:	2100      	movs	r1, #0
     a50:	f7ff ff98 	bl	984 <getBits>
     a54:	b2c0      	uxtb	r0, r0
     a56:	28ff      	cmp	r0, #255	; 0xff
     a58:	d1f8      	bne.n	a4c <processMarkers+0x18>
     a5a:	2008      	movs	r0, #8
     a5c:	2100      	movs	r1, #0
     a5e:	f7ff ff91 	bl	984 <getBits>
     a62:	b2c0      	uxtb	r0, r0
     a64:	28ff      	cmp	r0, #255	; 0xff
     a66:	d0f8      	beq.n	a5a <processMarkers+0x26>
     a68:	2800      	cmp	r0, #0
     a6a:	d0ef      	beq.n	a4c <processMarkers+0x18>
     a6c:	28cb      	cmp	r0, #203	; 0xcb
     a6e:	d913      	bls.n	a98 <processMarkers+0x64>
     a70:	28d7      	cmp	r0, #215	; 0xd7
     a72:	d922      	bls.n	aba <processMarkers+0x86>
     a74:	28db      	cmp	r0, #219	; 0xdb
     a76:	d04a      	beq.n	b0e <processMarkers+0xda>
     a78:	d324      	bcc.n	ac4 <processMarkers+0x90>
     a7a:	28dd      	cmp	r0, #221	; 0xdd
     a7c:	d12c      	bne.n	ad8 <processMarkers+0xa4>
     a7e:	2010      	movs	r0, #16
     a80:	2100      	movs	r1, #0
     a82:	f7ff ff7f 	bl	984 <getBits>
     a86:	2804      	cmp	r0, #4
     a88:	d1e0      	bne.n	a4c <processMarkers+0x18>
     a8a:	2010      	movs	r0, #16
     a8c:	2100      	movs	r1, #0
     a8e:	f7ff ff79 	bl	984 <getBits>
     a92:	4b9e      	ldr	r3, [pc, #632]	; (d0c <processMarkers+0x2d8>)
     a94:	82d8      	strh	r0, [r3, #22]
     a96:	e7d9      	b.n	a4c <processMarkers+0x18>
     a98:	28c9      	cmp	r0, #201	; 0xc9
     a9a:	d213      	bcs.n	ac4 <processMarkers+0x90>
     a9c:	28c4      	cmp	r0, #196	; 0xc4
     a9e:	d100      	bne.n	aa2 <processMarkers+0x6e>
     aa0:	e095      	b.n	bce <processMarkers+0x19a>
     aa2:	d913      	bls.n	acc <processMarkers+0x98>
     aa4:	28c7      	cmp	r0, #199	; 0xc7
     aa6:	d90d      	bls.n	ac4 <processMarkers+0x90>
     aa8:	2312      	movs	r3, #18
     aaa:	1c18      	adds	r0, r3, #0
     aac:	b009      	add	sp, #36	; 0x24
     aae:	bc3c      	pop	{r2, r3, r4, r5}
     ab0:	4690      	mov	r8, r2
     ab2:	4699      	mov	r9, r3
     ab4:	46a2      	mov	sl, r4
     ab6:	46ab      	mov	fp, r5
     ab8:	bdf0      	pop	{r4, r5, r6, r7, pc}
     aba:	28d0      	cmp	r0, #208	; 0xd0
     abc:	d2f4      	bcs.n	aa8 <processMarkers+0x74>
     abe:	2311      	movs	r3, #17
     ac0:	28cc      	cmp	r0, #204	; 0xcc
     ac2:	d0f2      	beq.n	aaa <processMarkers+0x76>
     ac4:	9f03      	ldr	r7, [sp, #12]
     ac6:	2300      	movs	r3, #0
     ac8:	7038      	strb	r0, [r7, #0]
     aca:	e7ee      	b.n	aaa <processMarkers+0x76>
     acc:	2801      	cmp	r0, #1
     ace:	d0eb      	beq.n	aa8 <processMarkers+0x74>
     ad0:	2800      	cmp	r0, #0
     ad2:	d001      	beq.n	ad8 <processMarkers+0xa4>
     ad4:	28c0      	cmp	r0, #192	; 0xc0
     ad6:	d2f5      	bcs.n	ac4 <processMarkers+0x90>
     ad8:	2010      	movs	r0, #16
     ada:	2100      	movs	r1, #0
     adc:	f7ff ff52 	bl	984 <getBits>
     ae0:	2801      	cmp	r0, #1
     ae2:	d9b3      	bls.n	a4c <processMarkers+0x18>
     ae4:	3802      	subs	r0, #2
     ae6:	b284      	uxth	r4, r0
     ae8:	2c00      	cmp	r4, #0
     aea:	d0af      	beq.n	a4c <processMarkers+0x18>
     aec:	3c01      	subs	r4, #1
     aee:	2008      	movs	r0, #8
     af0:	2100      	movs	r1, #0
     af2:	b2a4      	uxth	r4, r4
     af4:	f7ff ff46 	bl	984 <getBits>
     af8:	2c00      	cmp	r4, #0
     afa:	d0a7      	beq.n	a4c <processMarkers+0x18>
     afc:	3c01      	subs	r4, #1
     afe:	2008      	movs	r0, #8
     b00:	2100      	movs	r1, #0
     b02:	b2a4      	uxth	r4, r4
     b04:	f7ff ff3e 	bl	984 <getBits>
     b08:	2c00      	cmp	r4, #0
     b0a:	d1ef      	bne.n	aec <processMarkers+0xb8>
     b0c:	e79e      	b.n	a4c <processMarkers+0x18>
     b0e:	2010      	movs	r0, #16
     b10:	2100      	movs	r1, #0
     b12:	f7ff ff37 	bl	984 <getBits>
     b16:	2801      	cmp	r0, #1
     b18:	d998      	bls.n	a4c <processMarkers+0x18>
     b1a:	3802      	subs	r0, #2
     b1c:	b280      	uxth	r0, r0
     b1e:	4680      	mov	r8, r0
     b20:	2800      	cmp	r0, #0
     b22:	d093      	beq.n	a4c <processMarkers+0x18>
     b24:	2008      	movs	r0, #8
     b26:	2100      	movs	r1, #0
     b28:	f7ff ff2c 	bl	984 <getBits>
     b2c:	270f      	movs	r7, #15
     b2e:	b2c0      	uxtb	r0, r0
     b30:	0905      	lsrs	r5, r0, #4
     b32:	4007      	ands	r7, r0
     b34:	2f01      	cmp	r7, #1
     b36:	d900      	bls.n	b3a <processMarkers+0x106>
     b38:	e788      	b.n	a4c <processMarkers+0x18>
     b3a:	4874      	ldr	r0, [pc, #464]	; (d0c <processMarkers+0x2d8>)
     b3c:	427b      	negs	r3, r7
     b3e:	417b      	adcs	r3, r7
     b40:	2202      	movs	r2, #2
     b42:	1ad2      	subs	r2, r2, r3
     b44:	7d43      	ldrb	r3, [r0, #21]
     b46:	2401      	movs	r4, #1
     b48:	4313      	orrs	r3, r2
     b4a:	7543      	strb	r3, [r0, #21]
     b4c:	e005      	b.n	b5a <processMarkers+0x126>
     b4e:	445b      	add	r3, fp
     b50:	8298      	strh	r0, [r3, #20]
     b52:	2c40      	cmp	r4, #64	; 0x40
     b54:	d038      	beq.n	bc8 <processMarkers+0x194>
     b56:	3401      	adds	r4, #1
     b58:	b2e4      	uxtb	r4, r4
     b5a:	1e63      	subs	r3, r4, #1
     b5c:	2008      	movs	r0, #8
     b5e:	2100      	movs	r1, #0
     b60:	b2de      	uxtb	r6, r3
     b62:	f7ff ff0f 	bl	984 <getBits>
     b66:	2d00      	cmp	r5, #0
     b68:	d124      	bne.n	bb4 <processMarkers+0x180>
     b6a:	0073      	lsls	r3, r6, #1
     b6c:	2f00      	cmp	r7, #0
     b6e:	d1ee      	bne.n	b4e <processMarkers+0x11a>
     b70:	4453      	add	r3, sl
     b72:	8298      	strh	r0, [r3, #20]
     b74:	2c40      	cmp	r4, #64	; 0x40
     b76:	d1ee      	bne.n	b56 <processMarkers+0x122>
     b78:	4652      	mov	r2, sl
     b7a:	3214      	adds	r2, #20
     b7c:	4b64      	ldr	r3, [pc, #400]	; (d10 <processMarkers+0x2dc>)
     b7e:	1c1c      	adds	r4, r3, #0
     b80:	3440      	adds	r4, #64	; 0x40
     b82:	2700      	movs	r7, #0
     b84:	5fd1      	ldrsh	r1, [r2, r7]
     b86:	7818      	ldrb	r0, [r3, #0]
     b88:	3301      	adds	r3, #1
     b8a:	4341      	muls	r1, r0
     b8c:	3104      	adds	r1, #4
     b8e:	10c9      	asrs	r1, r1, #3
     b90:	8011      	strh	r1, [r2, #0]
     b92:	3202      	adds	r2, #2
     b94:	42a3      	cmp	r3, r4
     b96:	d1f4      	bne.n	b82 <processMarkers+0x14e>
     b98:	2381      	movs	r3, #129	; 0x81
     b9a:	2d00      	cmp	r5, #0
     b9c:	d100      	bne.n	ba0 <processMarkers+0x16c>
     b9e:	2341      	movs	r3, #65	; 0x41
     ba0:	4543      	cmp	r3, r8
     ba2:	d900      	bls.n	ba6 <processMarkers+0x172>
     ba4:	e752      	b.n	a4c <processMarkers+0x18>
     ba6:	4640      	mov	r0, r8
     ba8:	1ac6      	subs	r6, r0, r3
     baa:	b2b6      	uxth	r6, r6
     bac:	46b0      	mov	r8, r6
     bae:	2e00      	cmp	r6, #0
     bb0:	d1b8      	bne.n	b24 <processMarkers+0xf0>
     bb2:	e74b      	b.n	a4c <processMarkers+0x18>
     bb4:	0200      	lsls	r0, r0, #8
     bb6:	b280      	uxth	r0, r0
     bb8:	4681      	mov	r9, r0
     bba:	2100      	movs	r1, #0
     bbc:	2008      	movs	r0, #8
     bbe:	f7ff fee1 	bl	984 <getBits>
     bc2:	4448      	add	r0, r9
     bc4:	b280      	uxth	r0, r0
     bc6:	e7d0      	b.n	b6a <processMarkers+0x136>
     bc8:	465a      	mov	r2, fp
     bca:	3214      	adds	r2, #20
     bcc:	e7d6      	b.n	b7c <processMarkers+0x148>
     bce:	2010      	movs	r0, #16
     bd0:	2100      	movs	r1, #0
     bd2:	f7ff fed7 	bl	984 <getBits>
     bd6:	2801      	cmp	r0, #1
     bd8:	d800      	bhi.n	bdc <processMarkers+0x1a8>
     bda:	e737      	b.n	a4c <processMarkers+0x18>
     bdc:	3802      	subs	r0, #2
     bde:	b280      	uxth	r0, r0
     be0:	9001      	str	r0, [sp, #4]
     be2:	2800      	cmp	r0, #0
     be4:	d100      	bne.n	be8 <processMarkers+0x1b4>
     be6:	e731      	b.n	a4c <processMarkers+0x18>
     be8:	2008      	movs	r0, #8
     bea:	2100      	movs	r1, #0
     bec:	f7ff feca 	bl	984 <getBits>
     bf0:	230f      	movs	r3, #15
     bf2:	b2c0      	uxtb	r0, r0
     bf4:	4003      	ands	r3, r0
     bf6:	2b01      	cmp	r3, #1
     bf8:	dd00      	ble.n	bfc <processMarkers+0x1c8>
     bfa:	e727      	b.n	a4c <processMarkers+0x18>
     bfc:	1c03      	adds	r3, r0, #0
     bfe:	210f      	movs	r1, #15
     c00:	438b      	bics	r3, r1
     c02:	2b10      	cmp	r3, #16
     c04:	dd00      	ble.n	c08 <processMarkers+0x1d4>
     c06:	e721      	b.n	a4c <processMarkers+0x18>
     c08:	08c3      	lsrs	r3, r0, #3
     c0a:	2202      	movs	r2, #2
     c0c:	401a      	ands	r2, r3
     c0e:	2301      	movs	r3, #1
     c10:	4018      	ands	r0, r3
     c12:	1812      	adds	r2, r2, r0
     c14:	4f3e      	ldr	r7, [pc, #248]	; (d10 <processMarkers+0x2dc>)
     c16:	4691      	mov	r9, r2
     c18:	0092      	lsls	r2, r2, #2
     c1a:	18ba      	adds	r2, r7, r2
     c1c:	6c17      	ldr	r7, [r2, #64]	; 0x40
     c1e:	6d10      	ldr	r0, [r2, #80]	; 0x50
     c20:	9702      	str	r7, [sp, #8]
     c22:	4f3a      	ldr	r7, [pc, #232]	; (d0c <processMarkers+0x2d8>)
     c24:	4649      	mov	r1, r9
     c26:	7d3a      	ldrb	r2, [r7, #20]
     c28:	408b      	lsls	r3, r1
     c2a:	4313      	orrs	r3, r2
     c2c:	753b      	strb	r3, [r7, #20]
     c2e:	4680      	mov	r8, r0
     c30:	ac04      	add	r4, sp, #16
     c32:	ad08      	add	r5, sp, #32
     c34:	2600      	movs	r6, #0
     c36:	27ff      	movs	r7, #255	; 0xff
     c38:	2008      	movs	r0, #8
     c3a:	2100      	movs	r1, #0
     c3c:	f7ff fea2 	bl	984 <getBits>
     c40:	7020      	strb	r0, [r4, #0]
     c42:	4038      	ands	r0, r7
     c44:	1836      	adds	r6, r6, r0
     c46:	3401      	adds	r4, #1
     c48:	b2b6      	uxth	r6, r6
     c4a:	42ac      	cmp	r4, r5
     c4c:	d1f4      	bne.n	c38 <processMarkers+0x204>
     c4e:	4648      	mov	r0, r9
     c50:	23ff      	movs	r3, #255	; 0xff
     c52:	2801      	cmp	r0, #1
     c54:	d953      	bls.n	cfe <processMarkers+0x2ca>
     c56:	42b3      	cmp	r3, r6
     c58:	d200      	bcs.n	c5c <processMarkers+0x228>
     c5a:	e6f7      	b.n	a4c <processMarkers+0x18>
     c5c:	2400      	movs	r4, #0
     c5e:	2e00      	cmp	r6, #0
     c60:	d00d      	beq.n	c7e <processMarkers+0x24a>
     c62:	1c33      	adds	r3, r6, #0
     c64:	4646      	mov	r6, r8
     c66:	4698      	mov	r8, r3
     c68:	2008      	movs	r0, #8
     c6a:	2100      	movs	r1, #0
     c6c:	f7ff fe8a 	bl	984 <getBits>
     c70:	1937      	adds	r7, r6, r4
     c72:	3401      	adds	r4, #1
     c74:	b2e4      	uxtb	r4, r4
     c76:	7038      	strb	r0, [r7, #0]
     c78:	4544      	cmp	r4, r8
     c7a:	d3f5      	bcc.n	c68 <processMarkers+0x234>
     c7c:	4646      	mov	r6, r8
     c7e:	3611      	adds	r6, #17
     c80:	9f01      	ldr	r7, [sp, #4]
     c82:	b2b6      	uxth	r6, r6
     c84:	42be      	cmp	r6, r7
     c86:	d900      	bls.n	c8a <processMarkers+0x256>
     c88:	e6e0      	b.n	a4c <processMarkers+0x18>
     c8a:	9f01      	ldr	r7, [sp, #4]
     c8c:	9802      	ldr	r0, [sp, #8]
     c8e:	1bbe      	subs	r6, r7, r6
     c90:	2100      	movs	r1, #0
     c92:	b2b6      	uxth	r6, r6
     c94:	4689      	mov	r9, r1
     c96:	2101      	movs	r1, #1
     c98:	9601      	str	r6, [sp, #4]
     c9a:	1c04      	adds	r4, r0, #0
     c9c:	1c06      	adds	r6, r0, #0
     c9e:	2700      	movs	r7, #0
     ca0:	4249      	negs	r1, r1
     ca2:	3620      	adds	r6, #32
     ca4:	3440      	adds	r4, #64	; 0x40
     ca6:	ab04      	add	r3, sp, #16
     ca8:	2200      	movs	r2, #0
     caa:	4688      	mov	r8, r1
     cac:	9702      	str	r7, [sp, #8]
     cae:	e00c      	b.n	cca <processMarkers+0x296>
     cb0:	8001      	strh	r1, [r0, #0]
     cb2:	4647      	mov	r7, r8
     cb4:	4649      	mov	r1, r9
     cb6:	0052      	lsls	r2, r2, #1
     cb8:	3301      	adds	r3, #1
     cba:	8037      	strh	r7, [r6, #0]
     cbc:	b292      	uxth	r2, r2
     cbe:	7021      	strb	r1, [r4, #0]
     cc0:	3002      	adds	r0, #2
     cc2:	3602      	adds	r6, #2
     cc4:	3401      	adds	r4, #1
     cc6:	429d      	cmp	r5, r3
     cc8:	d014      	beq.n	cf4 <processMarkers+0x2c0>
     cca:	7819      	ldrb	r1, [r3, #0]
     ccc:	2900      	cmp	r1, #0
     cce:	d0ef      	beq.n	cb0 <processMarkers+0x27c>
     cd0:	8002      	strh	r2, [r0, #0]
     cd2:	188a      	adds	r2, r1, r2
     cd4:	b292      	uxth	r2, r2
     cd6:	1e57      	subs	r7, r2, #1
     cd8:	8037      	strh	r7, [r6, #0]
     cda:	9f02      	ldr	r7, [sp, #8]
     cdc:	0052      	lsls	r2, r2, #1
     cde:	19c9      	adds	r1, r1, r7
     ce0:	b2c9      	uxtb	r1, r1
     ce2:	3301      	adds	r3, #1
     ce4:	7027      	strb	r7, [r4, #0]
     ce6:	9102      	str	r1, [sp, #8]
     ce8:	b292      	uxth	r2, r2
     cea:	3002      	adds	r0, #2
     cec:	3602      	adds	r6, #2
     cee:	3401      	adds	r4, #1
     cf0:	429d      	cmp	r5, r3
     cf2:	d1ea      	bne.n	cca <processMarkers+0x296>
     cf4:	9f01      	ldr	r7, [sp, #4]
     cf6:	2f00      	cmp	r7, #0
     cf8:	d000      	beq.n	cfc <processMarkers+0x2c8>
     cfa:	e775      	b.n	be8 <processMarkers+0x1b4>
     cfc:	e6a6      	b.n	a4c <processMarkers+0x18>
     cfe:	230c      	movs	r3, #12
     d00:	e7a9      	b.n	c56 <processMarkers+0x222>
     d02:	46c0      	nop			; (mov r8, r8)
     d04:	40000480 	andmi	r0, r0, r0, lsl #9
     d08:	40000500 	andmi	r0, r0, r0, lsl #10
     d0c:	40000580 	andmi	r0, r0, r0, lsl #11
     d10:	0000dd78 	andeq	sp, r0, r8, ror sp

00000d14 <pjpeg_decode_mcu>:
     d14:	b5f0      	push	{r4, r5, r6, r7, lr}
     d16:	4644      	mov	r4, r8
     d18:	465f      	mov	r7, fp
     d1a:	4656      	mov	r6, sl
     d1c:	464d      	mov	r5, r9
     d1e:	b4f0      	push	{r4, r5, r6, r7}
     d20:	4c9d      	ldr	r4, [pc, #628]	; (f98 <pjpeg_decode_mcu+0x284>)
     d22:	b08b      	sub	sp, #44	; 0x2c
     d24:	7b20      	ldrb	r0, [r4, #12]
     d26:	2800      	cmp	r0, #0
     d28:	d105      	bne.n	d36 <pjpeg_decode_mcu+0x22>
     d2a:	4d9c      	ldr	r5, [pc, #624]	; (f9c <pjpeg_decode_mcu+0x288>)
     d2c:	2378      	movs	r3, #120	; 0x78
     d2e:	5aeb      	ldrh	r3, [r5, r3]
     d30:	2001      	movs	r0, #1
     d32:	2b00      	cmp	r3, #0
     d34:	d106      	bne.n	d44 <pjpeg_decode_mcu+0x30>
     d36:	b00b      	add	sp, #44	; 0x2c
     d38:	bc3c      	pop	{r2, r3, r4, r5}
     d3a:	4690      	mov	r8, r2
     d3c:	4699      	mov	r9, r3
     d3e:	46a2      	mov	sl, r4
     d40:	46ab      	mov	fp, r5
     d42:	bdf0      	pop	{r4, r5, r6, r7, pc}
     d44:	4f96      	ldr	r7, [pc, #600]	; (fa0 <pjpeg_decode_mcu+0x28c>)
     d46:	8afb      	ldrh	r3, [r7, #22]
     d48:	2b00      	cmp	r3, #0
     d4a:	d000      	beq.n	d4e <pjpeg_decode_mcu+0x3a>
     d4c:	e081      	b.n	e52 <pjpeg_decode_mcu+0x13e>
     d4e:	4c95      	ldr	r4, [pc, #596]	; (fa4 <pjpeg_decode_mcu+0x290>)
     d50:	9405      	str	r4, [sp, #20]
     d52:	9f05      	ldr	r7, [sp, #20]
     d54:	793b      	ldrb	r3, [r7, #4]
     d56:	2b00      	cmp	r3, #0
     d58:	d100      	bne.n	d5c <pjpeg_decode_mcu+0x48>
     d5a:	e0c4      	b.n	ee6 <pjpeg_decode_mcu+0x1d2>
     d5c:	2400      	movs	r4, #0
     d5e:	4e92      	ldr	r6, [pc, #584]	; (fa8 <pjpeg_decode_mcu+0x294>)
     d60:	9406      	str	r4, [sp, #24]
     d62:	9d05      	ldr	r5, [sp, #20]
     d64:	9f06      	ldr	r7, [sp, #24]
     d66:	4891      	ldr	r0, [pc, #580]	; (fac <pjpeg_decode_mcu+0x298>)
     d68:	19eb      	adds	r3, r5, r7
     d6a:	7a1c      	ldrb	r4, [r3, #8]
     d6c:	4681      	mov	r9, r0
     d6e:	192b      	adds	r3, r5, r4
     d70:	7c1a      	ldrb	r2, [r3, #16]
     d72:	7d1b      	ldrb	r3, [r3, #20]
     d74:	2014      	movs	r0, #20
     d76:	4481      	add	r9, r0
     d78:	2b00      	cmp	r3, #0
     d7a:	d002      	beq.n	d82 <pjpeg_decode_mcu+0x6e>
     d7c:	4986      	ldr	r1, [pc, #536]	; (f98 <pjpeg_decode_mcu+0x284>)
     d7e:	4689      	mov	r9, r1
     d80:	4481      	add	r9, r0
     d82:	4887      	ldr	r0, [pc, #540]	; (fa0 <pjpeg_decode_mcu+0x28c>)
     d84:	2a00      	cmp	r2, #0
     d86:	d000      	beq.n	d8a <pjpeg_decode_mcu+0x76>
     d88:	e0b8      	b.n	efc <pjpeg_decode_mcu+0x1e8>
     d8a:	4989      	ldr	r1, [pc, #548]	; (fb0 <pjpeg_decode_mcu+0x29c>)
     d8c:	3078      	adds	r0, #120	; 0x78
     d8e:	3148      	adds	r1, #72	; 0x48
     d90:	f7ff fdc8 	bl	924 <huffDecode>
     d94:	1c05      	adds	r5, r0, #0
     d96:	200f      	movs	r0, #15
     d98:	4028      	ands	r0, r5
     d9a:	2300      	movs	r3, #0
     d9c:	2800      	cmp	r0, #0
     d9e:	d000      	beq.n	da2 <pjpeg_decode_mcu+0x8e>
     da0:	e0b8      	b.n	f14 <pjpeg_decode_mcu+0x200>
     da2:	3d01      	subs	r5, #1
     da4:	b2ed      	uxtb	r5, r5
     da6:	2d0e      	cmp	r5, #14
     da8:	d900      	bls.n	dac <pjpeg_decode_mcu+0x98>
     daa:	e0bc      	b.n	f26 <pjpeg_decode_mcu+0x212>
     dac:	4a81      	ldr	r2, [pc, #516]	; (fb4 <pjpeg_decode_mcu+0x2a0>)
     dae:	006d      	lsls	r5, r5, #1
     db0:	1952      	adds	r2, r2, r5
     db2:	3260      	adds	r2, #96	; 0x60
     db4:	8812      	ldrh	r2, [r2, #0]
     db6:	429a      	cmp	r2, r3
     db8:	d800      	bhi.n	dbc <pjpeg_decode_mcu+0xa8>
     dba:	e0b4      	b.n	f26 <pjpeg_decode_mcu+0x212>
     dbc:	497e      	ldr	r1, [pc, #504]	; (fb8 <pjpeg_decode_mcu+0x2a4>)
     dbe:	5b4a      	ldrh	r2, [r1, r5]
     dc0:	189b      	adds	r3, r3, r2
     dc2:	b29b      	uxth	r3, r3
     dc4:	4d75      	ldr	r5, [pc, #468]	; (f9c <pjpeg_decode_mcu+0x288>)
     dc6:	0062      	lsls	r2, r4, #1
     dc8:	18aa      	adds	r2, r5, r2
     dca:	327c      	adds	r2, #124	; 0x7c
     dcc:	8811      	ldrh	r1, [r2, #0]
     dce:	464f      	mov	r7, r9
     dd0:	185b      	adds	r3, r3, r1
     dd2:	b29b      	uxth	r3, r3
     dd4:	8013      	strh	r3, [r2, #0]
     dd6:	883a      	ldrh	r2, [r7, #0]
     dd8:	9d05      	ldr	r5, [sp, #20]
     dda:	4353      	muls	r3, r2
     ddc:	8033      	strh	r3, [r6, #0]
     dde:	7eeb      	ldrb	r3, [r5, #27]
     de0:	192c      	adds	r4, r5, r4
     de2:	7e27      	ldrb	r7, [r4, #24]
     de4:	2401      	movs	r4, #1
     de6:	2b00      	cmp	r3, #0
     de8:	d100      	bne.n	dec <pjpeg_decode_mcu+0xd8>
     dea:	e09e      	b.n	f2a <pjpeg_decode_mcu+0x216>
     dec:	4870      	ldr	r0, [pc, #448]	; (fb0 <pjpeg_decode_mcu+0x29c>)
     dee:	4973      	ldr	r1, [pc, #460]	; (fbc <pjpeg_decode_mcu+0x2a8>)
     df0:	4a73      	ldr	r2, [pc, #460]	; (fc0 <pjpeg_decode_mcu+0x2ac>)
     df2:	4682      	mov	sl, r0
     df4:	4689      	mov	r9, r1
     df6:	4690      	mov	r8, r2
     df8:	2f00      	cmp	r7, #0
     dfa:	d138      	bne.n	e6e <pjpeg_decode_mcu+0x15a>
     dfc:	4640      	mov	r0, r8
     dfe:	4641      	mov	r1, r8
     e00:	3028      	adds	r0, #40	; 0x28
     e02:	3178      	adds	r1, #120	; 0x78
     e04:	f7ff fd8e 	bl	924 <huffDecode>
     e08:	1c05      	adds	r5, r0, #0
     e0a:	200f      	movs	r0, #15
     e0c:	4028      	ands	r0, r5
     e0e:	d138      	bne.n	e82 <pjpeg_decode_mcu+0x16e>
     e10:	092d      	lsrs	r5, r5, #4
     e12:	b2ed      	uxtb	r5, r5
     e14:	2d0f      	cmp	r5, #15
     e16:	d107      	bne.n	e28 <pjpeg_decode_mcu+0x114>
     e18:	2c30      	cmp	r4, #48	; 0x30
     e1a:	dc3c      	bgt.n	e96 <pjpeg_decode_mcu+0x182>
     e1c:	340f      	adds	r4, #15
     e1e:	b2e4      	uxtb	r4, r4
     e20:	3401      	adds	r4, #1
     e22:	b2e4      	uxtb	r4, r4
     e24:	2c3f      	cmp	r4, #63	; 0x3f
     e26:	d9e7      	bls.n	df8 <pjpeg_decode_mcu+0xe4>
     e28:	2400      	movs	r4, #0
     e2a:	5f33      	ldrsh	r3, [r6, r4]
     e2c:	3340      	adds	r3, #64	; 0x40
     e2e:	09db      	lsrs	r3, r3, #7
     e30:	3380      	adds	r3, #128	; 0x80
     e32:	b29b      	uxth	r3, r3
     e34:	2bff      	cmp	r3, #255	; 0xff
     e36:	d800      	bhi.n	e3a <pjpeg_decode_mcu+0x126>
     e38:	e33a      	b.n	14b0 <pjpeg_decode_mcu+0x79c>
     e3a:	43db      	mvns	r3, r3
     e3c:	041b      	lsls	r3, r3, #16
     e3e:	17db      	asrs	r3, r3, #31
     e40:	b2db      	uxtb	r3, r3
     e42:	9d05      	ldr	r5, [sp, #20]
     e44:	7f2a      	ldrb	r2, [r5, #28]
     e46:	2a04      	cmp	r2, #4
     e48:	d843      	bhi.n	ed2 <pjpeg_decode_mcu+0x1be>
     e4a:	495e      	ldr	r1, [pc, #376]	; (fc4 <pjpeg_decode_mcu+0x2b0>)
     e4c:	0092      	lsls	r2, r2, #2
     e4e:	588a      	ldr	r2, [r1, r2]
     e50:	4697      	mov	pc, r2
     e52:	4d52      	ldr	r5, [pc, #328]	; (f9c <pjpeg_decode_mcu+0x288>)
     e54:	237a      	movs	r3, #122	; 0x7a
     e56:	5aeb      	ldrh	r3, [r5, r3]
     e58:	2b00      	cmp	r3, #0
     e5a:	d101      	bne.n	e60 <pjpeg_decode_mcu+0x14c>
     e5c:	f000 fe2c 	bl	1ab8 <pjpeg_decode_mcu+0xda4>
     e60:	4c50      	ldr	r4, [pc, #320]	; (fa4 <pjpeg_decode_mcu+0x290>)
     e62:	9405      	str	r4, [sp, #20]
     e64:	4d4d      	ldr	r5, [pc, #308]	; (f9c <pjpeg_decode_mcu+0x288>)
     e66:	3b01      	subs	r3, #1
     e68:	227a      	movs	r2, #122	; 0x7a
     e6a:	52ab      	strh	r3, [r5, r2]
     e6c:	e771      	b.n	d52 <pjpeg_decode_mcu+0x3e>
     e6e:	4650      	mov	r0, sl
     e70:	4649      	mov	r1, r9
     e72:	3058      	adds	r0, #88	; 0x58
     e74:	3128      	adds	r1, #40	; 0x28
     e76:	f7ff fd55 	bl	924 <huffDecode>
     e7a:	1c05      	adds	r5, r0, #0
     e7c:	200f      	movs	r0, #15
     e7e:	4028      	ands	r0, r5
     e80:	d0c6      	beq.n	e10 <pjpeg_decode_mcu+0xfc>
     e82:	092d      	lsrs	r5, r5, #4
     e84:	2101      	movs	r1, #1
     e86:	b2ed      	uxtb	r5, r5
     e88:	f7ff fd7c 	bl	984 <getBits>
     e8c:	2d00      	cmp	r5, #0
     e8e:	d0c7      	beq.n	e20 <pjpeg_decode_mcu+0x10c>
     e90:	1964      	adds	r4, r4, r5
     e92:	2c3f      	cmp	r4, #63	; 0x3f
     e94:	ddc3      	ble.n	e1e <pjpeg_decode_mcu+0x10a>
     e96:	201c      	movs	r0, #28
     e98:	4c3f      	ldr	r4, [pc, #252]	; (f98 <pjpeg_decode_mcu+0x284>)
     e9a:	7b23      	ldrb	r3, [r4, #12]
     e9c:	2b00      	cmp	r3, #0
     e9e:	d100      	bne.n	ea2 <pjpeg_decode_mcu+0x18e>
     ea0:	e749      	b.n	d36 <pjpeg_decode_mcu+0x22>
     ea2:	1c18      	adds	r0, r3, #0
     ea4:	e747      	b.n	d36 <pjpeg_decode_mcu+0x22>
     ea6:	9d06      	ldr	r5, [sp, #24]
     ea8:	2d01      	cmp	r5, #1
     eaa:	d101      	bne.n	eb0 <pjpeg_decode_mcu+0x19c>
     eac:	f000 fc92 	bl	17d4 <pjpeg_decode_mcu+0xac0>
     eb0:	2d00      	cmp	r5, #0
     eb2:	d100      	bne.n	eb6 <pjpeg_decode_mcu+0x1a2>
     eb4:	e2f8      	b.n	14a8 <pjpeg_decode_mcu+0x794>
     eb6:	2d02      	cmp	r5, #2
     eb8:	d101      	bne.n	ebe <pjpeg_decode_mcu+0x1aa>
     eba:	f000 fee1 	bl	1c80 <pjpeg_decode_mcu+0xf6c>
     ebe:	2d03      	cmp	r5, #3
     ec0:	d107      	bne.n	ed2 <pjpeg_decode_mcu+0x1be>
     ec2:	2000      	movs	r0, #0
     ec4:	2100      	movs	r1, #0
     ec6:	f7ff fc2f 	bl	728 <upsampleCrV>
     eca:	2020      	movs	r0, #32
     ecc:	2180      	movs	r1, #128	; 0x80
     ece:	f7ff fc2b 	bl	728 <upsampleCrV>
     ed2:	9b06      	ldr	r3, [sp, #24]
     ed4:	9d05      	ldr	r5, [sp, #20]
     ed6:	3301      	adds	r3, #1
     ed8:	b2db      	uxtb	r3, r3
     eda:	9306      	str	r3, [sp, #24]
     edc:	9f06      	ldr	r7, [sp, #24]
     ede:	792b      	ldrb	r3, [r5, #4]
     ee0:	42bb      	cmp	r3, r7
     ee2:	d900      	bls.n	ee6 <pjpeg_decode_mcu+0x1d2>
     ee4:	e73d      	b.n	d62 <pjpeg_decode_mcu+0x4e>
     ee6:	4d2c      	ldr	r5, [pc, #176]	; (f98 <pjpeg_decode_mcu+0x284>)
     ee8:	7b2b      	ldrb	r3, [r5, #12]
     eea:	2b00      	cmp	r3, #0
     eec:	d1d9      	bne.n	ea2 <pjpeg_decode_mcu+0x18e>
     eee:	4c2b      	ldr	r4, [pc, #172]	; (f9c <pjpeg_decode_mcu+0x288>)
     ef0:	2378      	movs	r3, #120	; 0x78
     ef2:	5ae2      	ldrh	r2, [r4, r3]
     ef4:	2000      	movs	r0, #0
     ef6:	3a01      	subs	r2, #1
     ef8:	52e2      	strh	r2, [r4, r3]
     efa:	e71c      	b.n	d36 <pjpeg_decode_mcu+0x22>
     efc:	4928      	ldr	r1, [pc, #160]	; (fa0 <pjpeg_decode_mcu+0x28c>)
     efe:	3018      	adds	r0, #24
     f00:	3168      	adds	r1, #104	; 0x68
     f02:	f7ff fd0f 	bl	924 <huffDecode>
     f06:	1c05      	adds	r5, r0, #0
     f08:	200f      	movs	r0, #15
     f0a:	4028      	ands	r0, r5
     f0c:	2300      	movs	r3, #0
     f0e:	2800      	cmp	r0, #0
     f10:	d100      	bne.n	f14 <pjpeg_decode_mcu+0x200>
     f12:	e746      	b.n	da2 <pjpeg_decode_mcu+0x8e>
     f14:	2101      	movs	r1, #1
     f16:	f7ff fd35 	bl	984 <getBits>
     f1a:	3d01      	subs	r5, #1
     f1c:	b2ed      	uxtb	r5, r5
     f1e:	1c03      	adds	r3, r0, #0
     f20:	2d0e      	cmp	r5, #14
     f22:	d800      	bhi.n	f26 <pjpeg_decode_mcu+0x212>
     f24:	e742      	b.n	dac <pjpeg_decode_mcu+0x98>
     f26:	b29b      	uxth	r3, r3
     f28:	e74c      	b.n	dc4 <pjpeg_decode_mcu+0xb0>
     f2a:	4825      	ldr	r0, [pc, #148]	; (fc0 <pjpeg_decode_mcu+0x2ac>)
     f2c:	46ba      	mov	sl, r7
     f2e:	4680      	mov	r8, r0
     f30:	4651      	mov	r1, sl
     f32:	2900      	cmp	r1, #0
     f34:	d000      	beq.n	f38 <pjpeg_decode_mcu+0x224>
     f36:	e247      	b.n	13c8 <pjpeg_decode_mcu+0x6b4>
     f38:	4640      	mov	r0, r8
     f3a:	4641      	mov	r1, r8
     f3c:	3028      	adds	r0, #40	; 0x28
     f3e:	3178      	adds	r1, #120	; 0x78
     f40:	f7ff fcf0 	bl	924 <huffDecode>
     f44:	230f      	movs	r3, #15
     f46:	1c1f      	adds	r7, r3, #0
     f48:	1c05      	adds	r5, r0, #0
     f4a:	4007      	ands	r7, r0
     f4c:	d000      	beq.n	f50 <pjpeg_decode_mcu+0x23c>
     f4e:	e247      	b.n	13e0 <pjpeg_decode_mcu+0x6cc>
     f50:	0903      	lsrs	r3, r0, #4
     f52:	b2db      	uxtb	r3, r3
     f54:	2b0f      	cmp	r3, #15
     f56:	d000      	beq.n	f5a <pjpeg_decode_mcu+0x246>
     f58:	e2bd      	b.n	14d6 <pjpeg_decode_mcu+0x7c2>
     f5a:	2c30      	cmp	r4, #48	; 0x30
     f5c:	dc9b      	bgt.n	e96 <pjpeg_decode_mcu+0x182>
     f5e:	1c20      	adds	r0, r4, #0
     f60:	3010      	adds	r0, #16
     f62:	b2c0      	uxtb	r0, r0
     f64:	1c23      	adds	r3, r4, #0
     f66:	4a14      	ldr	r2, [pc, #80]	; (fb8 <pjpeg_decode_mcu+0x2a4>)
     f68:	2100      	movs	r1, #0
     f6a:	e000      	b.n	f6e <pjpeg_decode_mcu+0x25a>
     f6c:	1c23      	adds	r3, r4, #0
     f6e:	18d3      	adds	r3, r2, r3
     f70:	3320      	adds	r3, #32
     f72:	781b      	ldrb	r3, [r3, #0]
     f74:	3401      	adds	r4, #1
     f76:	b25b      	sxtb	r3, r3
     f78:	005b      	lsls	r3, r3, #1
     f7a:	b2e4      	uxtb	r4, r4
     f7c:	52f1      	strh	r1, [r6, r3]
     f7e:	4284      	cmp	r4, r0
     f80:	d1f4      	bne.n	f6c <pjpeg_decode_mcu+0x258>
     f82:	2c3f      	cmp	r4, #63	; 0x3f
     f84:	d9d4      	bls.n	f30 <pjpeg_decode_mcu+0x21c>
     f86:	22b5      	movs	r2, #181	; 0xb5
     f88:	2780      	movs	r7, #128	; 0x80
     f8a:	0052      	lsls	r2, r2, #1
     f8c:	19bf      	adds	r7, r7, r6
     f8e:	1c33      	adds	r3, r6, #0
     f90:	4692      	mov	sl, r2
     f92:	46b9      	mov	r9, r7
     f94:	e024      	b.n	fe0 <pjpeg_decode_mcu+0x2cc>
     f96:	46c0      	nop			; (mov r8, r8)
     f98:	40000480 	andmi	r0, r0, r0, lsl #9
     f9c:	40000880 	andmi	r0, r0, r0, lsl #17
     fa0:	40000580 	andmi	r0, r0, r0, lsl #11
     fa4:	40000900 	andmi	r0, r0, r0, lsl #18
     fa8:	40000000 	andmi	r0, r0, r0
     fac:	40000500 	andmi	r0, r0, r0, lsl #10
     fb0:	40000600 	andmi	r0, r0, r0, lsl #12
     fb4:	0000dd78 	andeq	sp, r0, r8, ror sp
     fb8:	0000ddf8 	strdeq	sp, [r0], -r8
     fbc:	40000680 	andmi	r0, r0, r0, lsl #13
     fc0:	40000780 	andmi	r0, r0, r0, lsl #15
     fc4:	0000dd20 	andeq	sp, r0, r0, lsr #26
     fc8:	881a      	ldrh	r2, [r3, #0]
     fca:	805a      	strh	r2, [r3, #2]
     fcc:	809a      	strh	r2, [r3, #4]
     fce:	80da      	strh	r2, [r3, #6]
     fd0:	811a      	strh	r2, [r3, #8]
     fd2:	815a      	strh	r2, [r3, #10]
     fd4:	819a      	strh	r2, [r3, #12]
     fd6:	81da      	strh	r2, [r3, #14]
     fd8:	3310      	adds	r3, #16
     fda:	454b      	cmp	r3, r9
     fdc:	d100      	bne.n	fe0 <pjpeg_decode_mcu+0x2cc>
     fde:	e095      	b.n	110c <pjpeg_decode_mcu+0x3f8>
     fe0:	889f      	ldrh	r7, [r3, #4]
     fe2:	8959      	ldrh	r1, [r3, #10]
     fe4:	9703      	str	r7, [sp, #12]
     fe6:	468c      	mov	ip, r1
     fe8:	885d      	ldrh	r5, [r3, #2]
     fea:	9903      	ldr	r1, [sp, #12]
     fec:	88df      	ldrh	r7, [r3, #6]
     fee:	899a      	ldrh	r2, [r3, #12]
     ff0:	8918      	ldrh	r0, [r3, #8]
     ff2:	4329      	orrs	r1, r5
     ff4:	4339      	orrs	r1, r7
     ff6:	9204      	str	r2, [sp, #16]
     ff8:	4301      	orrs	r1, r0
     ffa:	4662      	mov	r2, ip
     ffc:	4311      	orrs	r1, r2
     ffe:	9a04      	ldr	r2, [sp, #16]
    1000:	89dc      	ldrh	r4, [r3, #14]
    1002:	4311      	orrs	r1, r2
    1004:	4321      	orrs	r1, r4
    1006:	d0df      	beq.n	fc8 <pjpeg_decode_mcu+0x2b4>
    1008:	4661      	mov	r1, ip
    100a:	b289      	uxth	r1, r1
    100c:	b2bf      	uxth	r7, r7
    100e:	468c      	mov	ip, r1
    1010:	1bc9      	subs	r1, r1, r7
    1012:	b28a      	uxth	r2, r1
    1014:	b2ad      	uxth	r5, r5
    1016:	b2a4      	uxth	r4, r4
    1018:	4690      	mov	r8, r2
    101a:	1961      	adds	r1, r4, r5
    101c:	1b2c      	subs	r4, r5, r4
    101e:	b28a      	uxth	r2, r1
    1020:	b2a4      	uxth	r4, r4
    1022:	4641      	mov	r1, r8
    1024:	1b0d      	subs	r5, r1, r4
    1026:	2116      	movs	r1, #22
    1028:	b224      	sxth	r4, r4
    102a:	31ff      	adds	r1, #255	; 0xff
    102c:	4361      	muls	r1, r4
    102e:	4467      	add	r7, ip
    1030:	b22d      	sxth	r5, r5
    1032:	4694      	mov	ip, r2
    1034:	22c4      	movs	r2, #196	; 0xc4
    1036:	4355      	muls	r5, r2
    1038:	468b      	mov	fp, r1
    103a:	4642      	mov	r2, r8
    103c:	49df      	ldr	r1, [pc, #892]	; (13bc <pjpeg_decode_mcu+0x6a8>)
    103e:	b214      	sxth	r4, r2
    1040:	4361      	muls	r1, r4
    1042:	4688      	mov	r8, r1
    1044:	2180      	movs	r1, #128	; 0x80
    1046:	4662      	mov	r2, ip
    1048:	448b      	add	fp, r1
    104a:	b2bf      	uxth	r7, r7
    104c:	3580      	adds	r5, #128	; 0x80
    104e:	19d4      	adds	r4, r2, r7
    1050:	122d      	asrs	r5, r5, #8
    1052:	465a      	mov	r2, fp
    1054:	b2ad      	uxth	r5, r5
    1056:	1212      	asrs	r2, r2, #8
    1058:	b2a4      	uxth	r4, r4
    105a:	1b52      	subs	r2, r2, r5
    105c:	1b12      	subs	r2, r2, r4
    105e:	b291      	uxth	r1, r2
    1060:	4662      	mov	r2, ip
    1062:	1bd7      	subs	r7, r2, r7
    1064:	468b      	mov	fp, r1
    1066:	b23f      	sxth	r7, r7
    1068:	4651      	mov	r1, sl
    106a:	434f      	muls	r7, r1
    106c:	2180      	movs	r1, #128	; 0x80
    106e:	3780      	adds	r7, #128	; 0x80
    1070:	4488      	add	r8, r1
    1072:	465a      	mov	r2, fp
    1074:	123f      	asrs	r7, r7, #8
    1076:	1abf      	subs	r7, r7, r2
    1078:	4642      	mov	r2, r8
    107a:	1212      	asrs	r2, r2, #8
    107c:	b2bf      	uxth	r7, r7
    107e:	1aad      	subs	r5, r5, r2
    1080:	197d      	adds	r5, r7, r5
    1082:	b2ad      	uxth	r5, r5
    1084:	9507      	str	r5, [sp, #28]
    1086:	881d      	ldrh	r5, [r3, #0]
    1088:	b280      	uxth	r0, r0
    108a:	46ac      	mov	ip, r5
    108c:	4680      	mov	r8, r0
    108e:	1a28      	subs	r0, r5, r0
    1090:	44e0      	add	r8, ip
    1092:	b280      	uxth	r0, r0
    1094:	4684      	mov	ip, r0
    1096:	9d03      	ldr	r5, [sp, #12]
    1098:	9804      	ldr	r0, [sp, #16]
    109a:	4642      	mov	r2, r8
    109c:	b292      	uxth	r2, r2
    109e:	4690      	mov	r8, r2
    10a0:	b2a9      	uxth	r1, r5
    10a2:	b282      	uxth	r2, r0
    10a4:	1850      	adds	r0, r2, r1
    10a6:	1a89      	subs	r1, r1, r2
    10a8:	b209      	sxth	r1, r1
    10aa:	4652      	mov	r2, sl
    10ac:	4351      	muls	r1, r2
    10ae:	3180      	adds	r1, #128	; 0x80
    10b0:	b285      	uxth	r5, r0
    10b2:	1209      	asrs	r1, r1, #8
    10b4:	1b49      	subs	r1, r1, r5
    10b6:	b289      	uxth	r1, r1
    10b8:	4640      	mov	r0, r8
    10ba:	9103      	str	r1, [sp, #12]
    10bc:	9a03      	ldr	r2, [sp, #12]
    10be:	1829      	adds	r1, r5, r0
    10c0:	b289      	uxth	r1, r1
    10c2:	1b45      	subs	r5, r0, r5
    10c4:	9104      	str	r1, [sp, #16]
    10c6:	b2ad      	uxth	r5, r5
    10c8:	1c11      	adds	r1, r2, #0
    10ca:	46a8      	mov	r8, r5
    10cc:	4461      	add	r1, ip
    10ce:	4665      	mov	r5, ip
    10d0:	b288      	uxth	r0, r1
    10d2:	1aaa      	subs	r2, r5, r2
    10d4:	b291      	uxth	r1, r2
    10d6:	4684      	mov	ip, r0
    10d8:	9a04      	ldr	r2, [sp, #16]
    10da:	44dc      	add	ip, fp
    10dc:	1912      	adds	r2, r2, r4
    10de:	4665      	mov	r5, ip
    10e0:	801a      	strh	r2, [r3, #0]
    10e2:	805d      	strh	r5, [r3, #2]
    10e4:	187a      	adds	r2, r7, r1
    10e6:	9d07      	ldr	r5, [sp, #28]
    10e8:	809a      	strh	r2, [r3, #4]
    10ea:	4642      	mov	r2, r8
    10ec:	1b52      	subs	r2, r2, r5
    10ee:	1bc9      	subs	r1, r1, r7
    10f0:	4445      	add	r5, r8
    10f2:	9f04      	ldr	r7, [sp, #16]
    10f4:	811d      	strh	r5, [r3, #8]
    10f6:	465d      	mov	r5, fp
    10f8:	80da      	strh	r2, [r3, #6]
    10fa:	1b40      	subs	r0, r0, r5
    10fc:	1b3a      	subs	r2, r7, r4
    10fe:	8159      	strh	r1, [r3, #10]
    1100:	8198      	strh	r0, [r3, #12]
    1102:	81da      	strh	r2, [r3, #14]
    1104:	3310      	adds	r3, #16
    1106:	454b      	cmp	r3, r9
    1108:	d000      	beq.n	110c <pjpeg_decode_mcu+0x3f8>
    110a:	e769      	b.n	fe0 <pjpeg_decode_mcu+0x2cc>
    110c:	1c33      	adds	r3, r6, #0
    110e:	e01c      	b.n	114a <pjpeg_decode_mcu+0x436>
    1110:	2700      	movs	r7, #0
    1112:	5fd9      	ldrsh	r1, [r3, r7]
    1114:	3140      	adds	r1, #64	; 0x40
    1116:	09c9      	lsrs	r1, r1, #7
    1118:	3180      	adds	r1, #128	; 0x80
    111a:	b289      	uxth	r1, r1
    111c:	29ff      	cmp	r1, #255	; 0xff
    111e:	d800      	bhi.n	1122 <pjpeg_decode_mcu+0x40e>
    1120:	e1a5      	b.n	146e <pjpeg_decode_mcu+0x75a>
    1122:	b209      	sxth	r1, r1
    1124:	2900      	cmp	r1, #0
    1126:	db00      	blt.n	112a <pjpeg_decode_mcu+0x416>
    1128:	25ff      	movs	r5, #255	; 0xff
    112a:	9804      	ldr	r0, [sp, #16]
    112c:	9903      	ldr	r1, [sp, #12]
    112e:	801d      	strh	r5, [r3, #0]
    1130:	821d      	strh	r5, [r3, #16]
    1132:	841d      	strh	r5, [r3, #32]
    1134:	861d      	strh	r5, [r3, #48]	; 0x30
    1136:	8015      	strh	r5, [r2, #0]
    1138:	4652      	mov	r2, sl
    113a:	8005      	strh	r5, [r0, #0]
    113c:	800d      	strh	r5, [r1, #0]
    113e:	8015      	strh	r5, [r2, #0]
    1140:	4a9f      	ldr	r2, [pc, #636]	; (13c0 <pjpeg_decode_mcu+0x6ac>)
    1142:	3302      	adds	r3, #2
    1144:	4293      	cmp	r3, r2
    1146:	d100      	bne.n	114a <pjpeg_decode_mcu+0x436>
    1148:	e12e      	b.n	13a8 <pjpeg_decode_mcu+0x694>
    114a:	1c1d      	adds	r5, r3, #0
    114c:	3550      	adds	r5, #80	; 0x50
    114e:	8a18      	ldrh	r0, [r3, #16]
    1150:	8c19      	ldrh	r1, [r3, #32]
    1152:	882f      	ldrh	r7, [r5, #0]
    1154:	8e1a      	ldrh	r2, [r3, #48]	; 0x30
    1156:	9504      	str	r5, [sp, #16]
    1158:	2570      	movs	r5, #112	; 0x70
    115a:	18ed      	adds	r5, r5, r3
    115c:	4684      	mov	ip, r0
    115e:	9102      	str	r1, [sp, #8]
    1160:	1c18      	adds	r0, r3, #0
    1162:	3060      	adds	r0, #96	; 0x60
    1164:	4691      	mov	r9, r2
    1166:	46b8      	mov	r8, r7
    1168:	1c1a      	adds	r2, r3, #0
    116a:	882f      	ldrh	r7, [r5, #0]
    116c:	46aa      	mov	sl, r5
    116e:	9d02      	ldr	r5, [sp, #8]
    1170:	8801      	ldrh	r1, [r0, #0]
    1172:	3240      	adds	r2, #64	; 0x40
    1174:	9003      	str	r0, [sp, #12]
    1176:	4660      	mov	r0, ip
    1178:	4328      	orrs	r0, r5
    117a:	8814      	ldrh	r4, [r2, #0]
    117c:	464d      	mov	r5, r9
    117e:	4328      	orrs	r0, r5
    1180:	4320      	orrs	r0, r4
    1182:	4645      	mov	r5, r8
    1184:	4328      	orrs	r0, r5
    1186:	1c05      	adds	r5, r0, #0
    1188:	430d      	orrs	r5, r1
    118a:	433d      	orrs	r5, r7
    118c:	d0c0      	beq.n	1110 <pjpeg_decode_mcu+0x3fc>
    118e:	4645      	mov	r5, r8
    1190:	4648      	mov	r0, r9
    1192:	b280      	uxth	r0, r0
    1194:	b2ad      	uxth	r5, r5
    1196:	4681      	mov	r9, r0
    1198:	46a8      	mov	r8, r5
    119a:	44c8      	add	r8, r9
    119c:	1a2d      	subs	r5, r5, r0
    119e:	4640      	mov	r0, r8
    11a0:	b280      	uxth	r0, r0
    11a2:	4680      	mov	r8, r0
    11a4:	4660      	mov	r0, ip
    11a6:	b280      	uxth	r0, r0
    11a8:	b2bf      	uxth	r7, r7
    11aa:	4684      	mov	ip, r0
    11ac:	46b9      	mov	r9, r7
    11ae:	44e1      	add	r9, ip
    11b0:	4648      	mov	r0, r9
    11b2:	b280      	uxth	r0, r0
    11b4:	4681      	mov	r9, r0
    11b6:	4660      	mov	r0, ip
    11b8:	1bc7      	subs	r7, r0, r7
    11ba:	b2ad      	uxth	r5, r5
    11bc:	b2bf      	uxth	r7, r7
    11be:	46bc      	mov	ip, r7
    11c0:	1bef      	subs	r7, r5, r7
    11c2:	b23f      	sxth	r7, r7
    11c4:	20c4      	movs	r0, #196	; 0xc4
    11c6:	4378      	muls	r0, r7
    11c8:	4667      	mov	r7, ip
    11ca:	4683      	mov	fp, r0
    11cc:	2016      	movs	r0, #22
    11ce:	b23f      	sxth	r7, r7
    11d0:	30ff      	adds	r0, #255	; 0xff
    11d2:	4378      	muls	r0, r7
    11d4:	4684      	mov	ip, r0
    11d6:	4879      	ldr	r0, [pc, #484]	; (13bc <pjpeg_decode_mcu+0x6a8>)
    11d8:	b22d      	sxth	r5, r5
    11da:	4368      	muls	r0, r5
    11dc:	464d      	mov	r5, r9
    11de:	4445      	add	r5, r8
    11e0:	b2ad      	uxth	r5, r5
    11e2:	9501      	str	r5, [sp, #4]
    11e4:	465f      	mov	r7, fp
    11e6:	2580      	movs	r5, #128	; 0x80
    11e8:	44ac      	add	ip, r5
    11ea:	3780      	adds	r7, #128	; 0x80
    11ec:	4683      	mov	fp, r0
    11ee:	123f      	asrs	r7, r7, #8
    11f0:	4660      	mov	r0, ip
    11f2:	b2bf      	uxth	r7, r7
    11f4:	9d01      	ldr	r5, [sp, #4]
    11f6:	1200      	asrs	r0, r0, #8
    11f8:	1bc0      	subs	r0, r0, r7
    11fa:	1b40      	subs	r0, r0, r5
    11fc:	b280      	uxth	r0, r0
    11fe:	b285      	uxth	r5, r0
    1200:	4684      	mov	ip, r0
    1202:	9507      	str	r5, [sp, #28]
    1204:	4648      	mov	r0, r9
    1206:	4645      	mov	r5, r8
    1208:	1b40      	subs	r0, r0, r5
    120a:	25b5      	movs	r5, #181	; 0xb5
    120c:	b200      	sxth	r0, r0
    120e:	006d      	lsls	r5, r5, #1
    1210:	4345      	muls	r5, r0
    1212:	2080      	movs	r0, #128	; 0x80
    1214:	46a8      	mov	r8, r5
    1216:	4480      	add	r8, r0
    1218:	4645      	mov	r5, r8
    121a:	4660      	mov	r0, ip
    121c:	122d      	asrs	r5, r5, #8
    121e:	1a2d      	subs	r5, r5, r0
    1220:	2080      	movs	r0, #128	; 0x80
    1222:	4483      	add	fp, r0
    1224:	4658      	mov	r0, fp
    1226:	b2ad      	uxth	r5, r5
    1228:	1200      	asrs	r0, r0, #8
    122a:	46ac      	mov	ip, r5
    122c:	1a3f      	subs	r7, r7, r0
    122e:	4467      	add	r7, ip
    1230:	b2bf      	uxth	r7, r7
    1232:	9709      	str	r7, [sp, #36]	; 0x24
    1234:	881f      	ldrh	r7, [r3, #0]
    1236:	b2a4      	uxth	r4, r4
    1238:	46bc      	mov	ip, r7
    123a:	4660      	mov	r0, ip
    123c:	19e7      	adds	r7, r4, r7
    123e:	1b04      	subs	r4, r0, r4
    1240:	b2a4      	uxth	r4, r4
    1242:	46a4      	mov	ip, r4
    1244:	9c02      	ldr	r4, [sp, #8]
    1246:	b289      	uxth	r1, r1
    1248:	b2a0      	uxth	r0, r4
    124a:	180c      	adds	r4, r1, r0
    124c:	1a41      	subs	r1, r0, r1
    124e:	20b5      	movs	r0, #181	; 0xb5
    1250:	0040      	lsls	r0, r0, #1
    1252:	b209      	sxth	r1, r1
    1254:	4341      	muls	r1, r0
    1256:	3180      	adds	r1, #128	; 0x80
    1258:	b2a4      	uxth	r4, r4
    125a:	1209      	asrs	r1, r1, #8
    125c:	1b09      	subs	r1, r1, r4
    125e:	b2bf      	uxth	r7, r7
    1260:	b289      	uxth	r1, r1
    1262:	1b38      	subs	r0, r7, r4
    1264:	4688      	mov	r8, r1
    1266:	b280      	uxth	r0, r0
    1268:	44e0      	add	r8, ip
    126a:	9002      	str	r0, [sp, #8]
    126c:	4640      	mov	r0, r8
    126e:	b280      	uxth	r0, r0
    1270:	4680      	mov	r8, r0
    1272:	4660      	mov	r0, ip
    1274:	1a41      	subs	r1, r0, r1
    1276:	9801      	ldr	r0, [sp, #4]
    1278:	19e4      	adds	r4, r4, r7
    127a:	b227      	sxth	r7, r4
    127c:	b200      	sxth	r0, r0
    127e:	4683      	mov	fp, r0
    1280:	1c3c      	adds	r4, r7, #0
    1282:	445c      	add	r4, fp
    1284:	3440      	adds	r4, #64	; 0x40
    1286:	09e4      	lsrs	r4, r4, #7
    1288:	3480      	adds	r4, #128	; 0x80
    128a:	b2a4      	uxth	r4, r4
    128c:	b2ad      	uxth	r5, r5
    128e:	b289      	uxth	r1, r1
    1290:	46b9      	mov	r9, r7
    1292:	2cff      	cmp	r4, #255	; 0xff
    1294:	d800      	bhi.n	1298 <pjpeg_decode_mcu+0x584>
    1296:	e104      	b.n	14a2 <pjpeg_decode_mcu+0x78e>
    1298:	b224      	sxth	r4, r4
    129a:	2c00      	cmp	r4, #0
    129c:	da00      	bge.n	12a0 <pjpeg_decode_mcu+0x58c>
    129e:	e113      	b.n	14c8 <pjpeg_decode_mcu+0x7b4>
    12a0:	24ff      	movs	r4, #255	; 0xff
    12a2:	801c      	strh	r4, [r3, #0]
    12a4:	4644      	mov	r4, r8
    12a6:	b224      	sxth	r4, r4
    12a8:	9401      	str	r4, [sp, #4]
    12aa:	9f07      	ldr	r7, [sp, #28]
    12ac:	9801      	ldr	r0, [sp, #4]
    12ae:	b23c      	sxth	r4, r7
    12b0:	1907      	adds	r7, r0, r4
    12b2:	3740      	adds	r7, #64	; 0x40
    12b4:	09ff      	lsrs	r7, r7, #7
    12b6:	3780      	adds	r7, #128	; 0x80
    12b8:	b2bf      	uxth	r7, r7
    12ba:	2fff      	cmp	r7, #255	; 0xff
    12bc:	d800      	bhi.n	12c0 <pjpeg_decode_mcu+0x5ac>
    12be:	e0ed      	b.n	149c <pjpeg_decode_mcu+0x788>
    12c0:	b23f      	sxth	r7, r7
    12c2:	2f00      	cmp	r7, #0
    12c4:	da00      	bge.n	12c8 <pjpeg_decode_mcu+0x5b4>
    12c6:	e0fd      	b.n	14c4 <pjpeg_decode_mcu+0x7b0>
    12c8:	27ff      	movs	r7, #255	; 0xff
    12ca:	821f      	strh	r7, [r3, #16]
    12cc:	b20f      	sxth	r7, r1
    12ce:	46bc      	mov	ip, r7
    12d0:	4660      	mov	r0, ip
    12d2:	b22f      	sxth	r7, r5
    12d4:	19c1      	adds	r1, r0, r7
    12d6:	3140      	adds	r1, #64	; 0x40
    12d8:	09c9      	lsrs	r1, r1, #7
    12da:	3180      	adds	r1, #128	; 0x80
    12dc:	b289      	uxth	r1, r1
    12de:	29ff      	cmp	r1, #255	; 0xff
    12e0:	d800      	bhi.n	12e4 <pjpeg_decode_mcu+0x5d0>
    12e2:	e0d8      	b.n	1496 <pjpeg_decode_mcu+0x782>
    12e4:	b209      	sxth	r1, r1
    12e6:	2900      	cmp	r1, #0
    12e8:	da00      	bge.n	12ec <pjpeg_decode_mcu+0x5d8>
    12ea:	e0f2      	b.n	14d2 <pjpeg_decode_mcu+0x7be>
    12ec:	21ff      	movs	r1, #255	; 0xff
    12ee:	9802      	ldr	r0, [sp, #8]
    12f0:	8419      	strh	r1, [r3, #32]
    12f2:	b200      	sxth	r0, r0
    12f4:	9909      	ldr	r1, [sp, #36]	; 0x24
    12f6:	4680      	mov	r8, r0
    12f8:	b208      	sxth	r0, r1
    12fa:	4641      	mov	r1, r8
    12fc:	1a0d      	subs	r5, r1, r0
    12fe:	1c29      	adds	r1, r5, #0
    1300:	3140      	adds	r1, #64	; 0x40
    1302:	09c9      	lsrs	r1, r1, #7
    1304:	3180      	adds	r1, #128	; 0x80
    1306:	b289      	uxth	r1, r1
    1308:	9107      	str	r1, [sp, #28]
    130a:	29ff      	cmp	r1, #255	; 0xff
    130c:	d800      	bhi.n	1310 <pjpeg_decode_mcu+0x5fc>
    130e:	e0bd      	b.n	148c <pjpeg_decode_mcu+0x778>
    1310:	b20d      	sxth	r5, r1
    1312:	2d00      	cmp	r5, #0
    1314:	da00      	bge.n	1318 <pjpeg_decode_mcu+0x604>
    1316:	e0d9      	b.n	14cc <pjpeg_decode_mcu+0x7b8>
    1318:	25ff      	movs	r5, #255	; 0xff
    131a:	9507      	str	r5, [sp, #28]
    131c:	4440      	add	r0, r8
    131e:	1c01      	adds	r1, r0, #0
    1320:	3140      	adds	r1, #64	; 0x40
    1322:	09c9      	lsrs	r1, r1, #7
    1324:	9d07      	ldr	r5, [sp, #28]
    1326:	3180      	adds	r1, #128	; 0x80
    1328:	b289      	uxth	r1, r1
    132a:	861d      	strh	r5, [r3, #48]	; 0x30
    132c:	29ff      	cmp	r1, #255	; 0xff
    132e:	d800      	bhi.n	1332 <pjpeg_decode_mcu+0x61e>
    1330:	e0a9      	b.n	1486 <pjpeg_decode_mcu+0x772>
    1332:	b209      	sxth	r1, r1
    1334:	2900      	cmp	r1, #0
    1336:	da00      	bge.n	133a <pjpeg_decode_mcu+0x626>
    1338:	e0be      	b.n	14b8 <pjpeg_decode_mcu+0x7a4>
    133a:	21ff      	movs	r1, #255	; 0xff
    133c:	8011      	strh	r1, [r2, #0]
    133e:	4661      	mov	r1, ip
    1340:	1bca      	subs	r2, r1, r7
    1342:	3240      	adds	r2, #64	; 0x40
    1344:	09d2      	lsrs	r2, r2, #7
    1346:	3280      	adds	r2, #128	; 0x80
    1348:	b292      	uxth	r2, r2
    134a:	2aff      	cmp	r2, #255	; 0xff
    134c:	d800      	bhi.n	1350 <pjpeg_decode_mcu+0x63c>
    134e:	e097      	b.n	1480 <pjpeg_decode_mcu+0x76c>
    1350:	b212      	sxth	r2, r2
    1352:	2a00      	cmp	r2, #0
    1354:	da00      	bge.n	1358 <pjpeg_decode_mcu+0x644>
    1356:	e0ad      	b.n	14b4 <pjpeg_decode_mcu+0x7a0>
    1358:	22ff      	movs	r2, #255	; 0xff
    135a:	9f04      	ldr	r7, [sp, #16]
    135c:	9801      	ldr	r0, [sp, #4]
    135e:	803a      	strh	r2, [r7, #0]
    1360:	1b02      	subs	r2, r0, r4
    1362:	3240      	adds	r2, #64	; 0x40
    1364:	09d2      	lsrs	r2, r2, #7
    1366:	3280      	adds	r2, #128	; 0x80
    1368:	b292      	uxth	r2, r2
    136a:	2aff      	cmp	r2, #255	; 0xff
    136c:	d800      	bhi.n	1370 <pjpeg_decode_mcu+0x65c>
    136e:	e084      	b.n	147a <pjpeg_decode_mcu+0x766>
    1370:	b212      	sxth	r2, r2
    1372:	2a00      	cmp	r2, #0
    1374:	da00      	bge.n	1378 <pjpeg_decode_mcu+0x664>
    1376:	e0a3      	b.n	14c0 <pjpeg_decode_mcu+0x7ac>
    1378:	22ff      	movs	r2, #255	; 0xff
    137a:	9c03      	ldr	r4, [sp, #12]
    137c:	464d      	mov	r5, r9
    137e:	465f      	mov	r7, fp
    1380:	8022      	strh	r2, [r4, #0]
    1382:	1bea      	subs	r2, r5, r7
    1384:	3240      	adds	r2, #64	; 0x40
    1386:	09d2      	lsrs	r2, r2, #7
    1388:	3280      	adds	r2, #128	; 0x80
    138a:	b292      	uxth	r2, r2
    138c:	2aff      	cmp	r2, #255	; 0xff
    138e:	d971      	bls.n	1474 <pjpeg_decode_mcu+0x760>
    1390:	b212      	sxth	r2, r2
    1392:	2a00      	cmp	r2, #0
    1394:	da00      	bge.n	1398 <pjpeg_decode_mcu+0x684>
    1396:	e091      	b.n	14bc <pjpeg_decode_mcu+0x7a8>
    1398:	22ff      	movs	r2, #255	; 0xff
    139a:	4651      	mov	r1, sl
    139c:	800a      	strh	r2, [r1, #0]
    139e:	4a08      	ldr	r2, [pc, #32]	; (13c0 <pjpeg_decode_mcu+0x6ac>)
    13a0:	3302      	adds	r3, #2
    13a2:	4293      	cmp	r3, r2
    13a4:	d000      	beq.n	13a8 <pjpeg_decode_mcu+0x694>
    13a6:	e6d0      	b.n	114a <pjpeg_decode_mcu+0x436>
    13a8:	9c05      	ldr	r4, [sp, #20]
    13aa:	7f23      	ldrb	r3, [r4, #28]
    13ac:	2b04      	cmp	r3, #4
    13ae:	d900      	bls.n	13b2 <pjpeg_decode_mcu+0x69e>
    13b0:	e58f      	b.n	ed2 <pjpeg_decode_mcu+0x1be>
    13b2:	4a04      	ldr	r2, [pc, #16]	; (13c4 <pjpeg_decode_mcu+0x6b0>)
    13b4:	009b      	lsls	r3, r3, #2
    13b6:	58d3      	ldr	r3, [r2, r3]
    13b8:	469f      	mov	pc, r3
    13ba:	46c0      	nop			; (mov r8, r8)
    13bc:	0000029d 	muleq	r0, sp, r2
    13c0:	40000010 	andmi	r0, r0, r0, lsl r0
    13c4:	0000dd34 	andeq	sp, r0, r4, lsr sp
    13c8:	48c4      	ldr	r0, [pc, #784]	; (16dc <pjpeg_decode_mcu+0x9c8>)
    13ca:	49c5      	ldr	r1, [pc, #788]	; (16e0 <pjpeg_decode_mcu+0x9cc>)
    13cc:	3058      	adds	r0, #88	; 0x58
    13ce:	3128      	adds	r1, #40	; 0x28
    13d0:	f7ff faa8 	bl	924 <huffDecode>
    13d4:	230f      	movs	r3, #15
    13d6:	1c1f      	adds	r7, r3, #0
    13d8:	1c05      	adds	r5, r0, #0
    13da:	4007      	ands	r7, r0
    13dc:	d100      	bne.n	13e0 <pjpeg_decode_mcu+0x6cc>
    13de:	e5b7      	b.n	f50 <pjpeg_decode_mcu+0x23c>
    13e0:	1c38      	adds	r0, r7, #0
    13e2:	2101      	movs	r1, #1
    13e4:	f7ff face 	bl	984 <getBits>
    13e8:	092b      	lsrs	r3, r5, #4
    13ea:	b2db      	uxtb	r3, r3
    13ec:	4683      	mov	fp, r0
    13ee:	469c      	mov	ip, r3
    13f0:	2b00      	cmp	r3, #0
    13f2:	d11c      	bne.n	142e <pjpeg_decode_mcu+0x71a>
    13f4:	4abb      	ldr	r2, [pc, #748]	; (16e4 <pjpeg_decode_mcu+0x9d0>)
    13f6:	1e7b      	subs	r3, r7, #1
    13f8:	b2db      	uxtb	r3, r3
    13fa:	49bb      	ldr	r1, [pc, #748]	; (16e8 <pjpeg_decode_mcu+0x9d4>)
    13fc:	005b      	lsls	r3, r3, #1
    13fe:	18c9      	adds	r1, r1, r3
    1400:	3160      	adds	r1, #96	; 0x60
    1402:	8809      	ldrh	r1, [r1, #0]
    1404:	4559      	cmp	r1, fp
    1406:	d92f      	bls.n	1468 <pjpeg_decode_mcu+0x754>
    1408:	5ad0      	ldrh	r0, [r2, r3]
    140a:	4458      	add	r0, fp
    140c:	b280      	uxth	r0, r0
    140e:	0061      	lsls	r1, r4, #1
    1410:	464d      	mov	r5, r9
    1412:	1913      	adds	r3, r2, r4
    1414:	5b4a      	ldrh	r2, [r1, r5]
    1416:	3320      	adds	r3, #32
    1418:	781b      	ldrb	r3, [r3, #0]
    141a:	4342      	muls	r2, r0
    141c:	b25b      	sxtb	r3, r3
    141e:	3401      	adds	r4, #1
    1420:	005b      	lsls	r3, r3, #1
    1422:	b2e4      	uxtb	r4, r4
    1424:	52f2      	strh	r2, [r6, r3]
    1426:	2c3f      	cmp	r4, #63	; 0x3f
    1428:	d800      	bhi.n	142c <pjpeg_decode_mcu+0x718>
    142a:	e581      	b.n	f30 <pjpeg_decode_mcu+0x21c>
    142c:	e5ab      	b.n	f86 <pjpeg_decode_mcu+0x272>
    142e:	18e3      	adds	r3, r4, r3
    1430:	2b3f      	cmp	r3, #63	; 0x3f
    1432:	dd00      	ble.n	1436 <pjpeg_decode_mcu+0x722>
    1434:	e52f      	b.n	e96 <pjpeg_decode_mcu+0x182>
    1436:	4663      	mov	r3, ip
    1438:	1c21      	adds	r1, r4, #0
    143a:	4aaa      	ldr	r2, [pc, #680]	; (16e4 <pjpeg_decode_mcu+0x9d0>)
    143c:	2500      	movs	r5, #0
    143e:	e000      	b.n	1442 <pjpeg_decode_mcu+0x72e>
    1440:	1c01      	adds	r1, r0, #0
    1442:	1c48      	adds	r0, r1, #1
    1444:	1851      	adds	r1, r2, r1
    1446:	3120      	adds	r1, #32
    1448:	7809      	ldrb	r1, [r1, #0]
    144a:	3b01      	subs	r3, #1
    144c:	b249      	sxtb	r1, r1
    144e:	0049      	lsls	r1, r1, #1
    1450:	b29b      	uxth	r3, r3
    1452:	b2c0      	uxtb	r0, r0
    1454:	5275      	strh	r5, [r6, r1]
    1456:	2b00      	cmp	r3, #0
    1458:	d1f2      	bne.n	1440 <pjpeg_decode_mcu+0x72c>
    145a:	3401      	adds	r4, #1
    145c:	4663      	mov	r3, ip
    145e:	b2e4      	uxtb	r4, r4
    1460:	3b01      	subs	r3, #1
    1462:	18e4      	adds	r4, r4, r3
    1464:	b2e4      	uxtb	r4, r4
    1466:	e7c6      	b.n	13f6 <pjpeg_decode_mcu+0x6e2>
    1468:	465b      	mov	r3, fp
    146a:	b298      	uxth	r0, r3
    146c:	e7cf      	b.n	140e <pjpeg_decode_mcu+0x6fa>
    146e:	25ff      	movs	r5, #255	; 0xff
    1470:	400d      	ands	r5, r1
    1472:	e65a      	b.n	112a <pjpeg_decode_mcu+0x416>
    1474:	20ff      	movs	r0, #255	; 0xff
    1476:	4002      	ands	r2, r0
    1478:	e78f      	b.n	139a <pjpeg_decode_mcu+0x686>
    147a:	21ff      	movs	r1, #255	; 0xff
    147c:	400a      	ands	r2, r1
    147e:	e77c      	b.n	137a <pjpeg_decode_mcu+0x666>
    1480:	25ff      	movs	r5, #255	; 0xff
    1482:	402a      	ands	r2, r5
    1484:	e769      	b.n	135a <pjpeg_decode_mcu+0x646>
    1486:	20ff      	movs	r0, #255	; 0xff
    1488:	4001      	ands	r1, r0
    148a:	e757      	b.n	133c <pjpeg_decode_mcu+0x628>
    148c:	9907      	ldr	r1, [sp, #28]
    148e:	25ff      	movs	r5, #255	; 0xff
    1490:	4029      	ands	r1, r5
    1492:	9107      	str	r1, [sp, #28]
    1494:	e742      	b.n	131c <pjpeg_decode_mcu+0x608>
    1496:	25ff      	movs	r5, #255	; 0xff
    1498:	4029      	ands	r1, r5
    149a:	e728      	b.n	12ee <pjpeg_decode_mcu+0x5da>
    149c:	20ff      	movs	r0, #255	; 0xff
    149e:	4007      	ands	r7, r0
    14a0:	e713      	b.n	12ca <pjpeg_decode_mcu+0x5b6>
    14a2:	20ff      	movs	r0, #255	; 0xff
    14a4:	4004      	ands	r4, r0
    14a6:	e6fc      	b.n	12a2 <pjpeg_decode_mcu+0x58e>
    14a8:	2000      	movs	r0, #0
    14aa:	f7ff f9bf 	bl	82c <copyY>
    14ae:	e510      	b.n	ed2 <pjpeg_decode_mcu+0x1be>
    14b0:	b2db      	uxtb	r3, r3
    14b2:	e4c6      	b.n	e42 <pjpeg_decode_mcu+0x12e>
    14b4:	2200      	movs	r2, #0
    14b6:	e750      	b.n	135a <pjpeg_decode_mcu+0x646>
    14b8:	2100      	movs	r1, #0
    14ba:	e73f      	b.n	133c <pjpeg_decode_mcu+0x628>
    14bc:	2200      	movs	r2, #0
    14be:	e76c      	b.n	139a <pjpeg_decode_mcu+0x686>
    14c0:	2200      	movs	r2, #0
    14c2:	e75a      	b.n	137a <pjpeg_decode_mcu+0x666>
    14c4:	2700      	movs	r7, #0
    14c6:	e700      	b.n	12ca <pjpeg_decode_mcu+0x5b6>
    14c8:	2400      	movs	r4, #0
    14ca:	e6ea      	b.n	12a2 <pjpeg_decode_mcu+0x58e>
    14cc:	2100      	movs	r1, #0
    14ce:	9107      	str	r1, [sp, #28]
    14d0:	e724      	b.n	131c <pjpeg_decode_mcu+0x608>
    14d2:	2100      	movs	r1, #0
    14d4:	e70b      	b.n	12ee <pjpeg_decode_mcu+0x5da>
    14d6:	2c3f      	cmp	r4, #63	; 0x3f
    14d8:	d900      	bls.n	14dc <pjpeg_decode_mcu+0x7c8>
    14da:	e554      	b.n	f86 <pjpeg_decode_mcu+0x272>
    14dc:	4981      	ldr	r1, [pc, #516]	; (16e4 <pjpeg_decode_mcu+0x9d0>)
    14de:	2000      	movs	r0, #0
    14e0:	e000      	b.n	14e4 <pjpeg_decode_mcu+0x7d0>
    14e2:	1c1c      	adds	r4, r3, #0
    14e4:	1c63      	adds	r3, r4, #1
    14e6:	2220      	movs	r2, #32
    14e8:	190c      	adds	r4, r1, r4
    14ea:	56a2      	ldrsb	r2, [r4, r2]
    14ec:	b2db      	uxtb	r3, r3
    14ee:	0052      	lsls	r2, r2, #1
    14f0:	52b0      	strh	r0, [r6, r2]
    14f2:	2b40      	cmp	r3, #64	; 0x40
    14f4:	d1f5      	bne.n	14e2 <pjpeg_decode_mcu+0x7ce>
    14f6:	e546      	b.n	f86 <pjpeg_decode_mcu+0x272>
    14f8:	9f06      	ldr	r7, [sp, #24]
    14fa:	2f01      	cmp	r7, #1
    14fc:	d100      	bne.n	1500 <pjpeg_decode_mcu+0x7ec>
    14fe:	e164      	b.n	17ca <pjpeg_decode_mcu+0xab6>
    1500:	2f00      	cmp	r7, #0
    1502:	d0d1      	beq.n	14a8 <pjpeg_decode_mcu+0x794>
    1504:	2f02      	cmp	r7, #2
    1506:	d100      	bne.n	150a <pjpeg_decode_mcu+0x7f6>
    1508:	e3b0      	b.n	1c6c <pjpeg_decode_mcu+0xf58>
    150a:	2f03      	cmp	r7, #3
    150c:	d000      	beq.n	1510 <pjpeg_decode_mcu+0x7fc>
    150e:	e4e0      	b.n	ed2 <pjpeg_decode_mcu+0x1be>
    1510:	2000      	movs	r0, #0
    1512:	2100      	movs	r1, #0
    1514:	f7ff f896 	bl	644 <upsampleCrH>
    1518:	2004      	movs	r0, #4
    151a:	2140      	movs	r1, #64	; 0x40
    151c:	f7ff f892 	bl	644 <upsampleCrH>
    1520:	e4d7      	b.n	ed2 <pjpeg_decode_mcu+0x1be>
    1522:	9d06      	ldr	r5, [sp, #24]
    1524:	2d01      	cmp	r5, #1
    1526:	d100      	bne.n	152a <pjpeg_decode_mcu+0x816>
    1528:	e2e5      	b.n	1af6 <pjpeg_decode_mcu+0xde2>
    152a:	2d00      	cmp	r5, #0
    152c:	d0bc      	beq.n	14a8 <pjpeg_decode_mcu+0x794>
    152e:	2d02      	cmp	r5, #2
    1530:	d000      	beq.n	1534 <pjpeg_decode_mcu+0x820>
    1532:	e4ce      	b.n	ed2 <pjpeg_decode_mcu+0x1be>
    1534:	20ff      	movs	r0, #255	; 0xff
    1536:	2467      	movs	r4, #103	; 0x67
    1538:	1c31      	adds	r1, r6, #0
    153a:	4b6c      	ldr	r3, [pc, #432]	; (16ec <pjpeg_decode_mcu+0x9d8>)
    153c:	4a6c      	ldr	r2, [pc, #432]	; (16f0 <pjpeg_decode_mcu+0x9dc>)
    153e:	4684      	mov	ip, r0
    1540:	46a1      	mov	r9, r4
    1542:	25b7      	movs	r5, #183	; 0xb7
    1544:	e019      	b.n	157a <pjpeg_decode_mcu+0x866>
    1546:	43c0      	mvns	r0, r0
    1548:	0400      	lsls	r0, r0, #16
    154a:	17c0      	asrs	r0, r0, #31
    154c:	b2c0      	uxtb	r0, r0
    154e:	436c      	muls	r4, r5
    1550:	7010      	strb	r0, [r2, #0]
    1552:	7818      	ldrb	r0, [r3, #0]
    1554:	0a24      	lsrs	r4, r4, #8
    1556:	305b      	adds	r0, #91	; 0x5b
    1558:	1b00      	subs	r0, r0, r4
    155a:	b280      	uxth	r0, r0
    155c:	3201      	adds	r2, #1
    155e:	28ff      	cmp	r0, #255	; 0xff
    1560:	d800      	bhi.n	1564 <pjpeg_decode_mcu+0x850>
    1562:	e2a7      	b.n	1ab4 <pjpeg_decode_mcu+0xda0>
    1564:	43c0      	mvns	r0, r0
    1566:	0400      	lsls	r0, r0, #16
    1568:	17c0      	asrs	r0, r0, #31
    156a:	b2c0      	uxtb	r0, r0
    156c:	4c61      	ldr	r4, [pc, #388]	; (16f4 <pjpeg_decode_mcu+0x9e0>)
    156e:	7018      	strb	r0, [r3, #0]
    1570:	3301      	adds	r3, #1
    1572:	3102      	adds	r1, #2
    1574:	42a3      	cmp	r3, r4
    1576:	d100      	bne.n	157a <pjpeg_decode_mcu+0x866>
    1578:	e4ab      	b.n	ed2 <pjpeg_decode_mcu+0x1be>
    157a:	7817      	ldrb	r7, [r2, #0]
    157c:	8808      	ldrh	r0, [r1, #0]
    157e:	46b8      	mov	r8, r7
    1580:	27b3      	movs	r7, #179	; 0xb3
    1582:	427f      	negs	r7, r7
    1584:	44b8      	add	r8, r7
    1586:	4667      	mov	r7, ip
    1588:	b2c4      	uxtb	r4, r0
    158a:	4038      	ands	r0, r7
    158c:	4480      	add	r8, r0
    158e:	4648      	mov	r0, r9
    1590:	4360      	muls	r0, r4
    1592:	0a00      	lsrs	r0, r0, #8
    1594:	4440      	add	r0, r8
    1596:	b280      	uxth	r0, r0
    1598:	28ff      	cmp	r0, #255	; 0xff
    159a:	d8d4      	bhi.n	1546 <pjpeg_decode_mcu+0x832>
    159c:	b2c0      	uxtb	r0, r0
    159e:	e7d6      	b.n	154e <pjpeg_decode_mcu+0x83a>
    15a0:	9c06      	ldr	r4, [sp, #24]
    15a2:	2c05      	cmp	r4, #5
    15a4:	d900      	bls.n	15a8 <pjpeg_decode_mcu+0x894>
    15a6:	e494      	b.n	ed2 <pjpeg_decode_mcu+0x1be>
    15a8:	4a53      	ldr	r2, [pc, #332]	; (16f8 <pjpeg_decode_mcu+0x9e4>)
    15aa:	00a3      	lsls	r3, r4, #2
    15ac:	58d3      	ldr	r3, [r2, r3]
    15ae:	469f      	mov	pc, r3
    15b0:	9c06      	ldr	r4, [sp, #24]
    15b2:	2c01      	cmp	r4, #1
    15b4:	d100      	bne.n	15b8 <pjpeg_decode_mcu+0x8a4>
    15b6:	e112      	b.n	17de <pjpeg_decode_mcu+0xaca>
    15b8:	2c00      	cmp	r4, #0
    15ba:	d100      	bne.n	15be <pjpeg_decode_mcu+0x8aa>
    15bc:	e0fd      	b.n	17ba <pjpeg_decode_mcu+0xaa6>
    15be:	2c02      	cmp	r4, #2
    15c0:	d100      	bne.n	15c4 <pjpeg_decode_mcu+0x8b0>
    15c2:	e369      	b.n	1c98 <pjpeg_decode_mcu+0xf84>
    15c4:	2c03      	cmp	r4, #3
    15c6:	d000      	beq.n	15ca <pjpeg_decode_mcu+0x8b6>
    15c8:	e483      	b.n	ed2 <pjpeg_decode_mcu+0x1be>
    15ca:	2267      	movs	r2, #103	; 0x67
    15cc:	435a      	muls	r2, r3
    15ce:	1c18      	adds	r0, r3, #0
    15d0:	0a12      	lsrs	r2, r2, #8
    15d2:	38b3      	subs	r0, #179	; 0xb3
    15d4:	1880      	adds	r0, r0, r2
    15d6:	4a46      	ldr	r2, [pc, #280]	; (16f0 <pjpeg_decode_mcu+0x9dc>)
    15d8:	b280      	uxth	r0, r0
    15da:	7814      	ldrb	r4, [r2, #0]
    15dc:	1904      	adds	r4, r0, r4
    15de:	b2a4      	uxth	r4, r4
    15e0:	b2a5      	uxth	r5, r4
    15e2:	2cff      	cmp	r4, #255	; 0xff
    15e4:	d906      	bls.n	15f4 <pjpeg_decode_mcu+0x8e0>
    15e6:	b22d      	sxth	r5, r5
    15e8:	2d00      	cmp	r5, #0
    15ea:	da00      	bge.n	15ee <pjpeg_decode_mcu+0x8da>
    15ec:	e3d0      	b.n	1d90 <pjpeg_decode_mcu+0x107c>
    15ee:	21ff      	movs	r1, #255	; 0xff
    15f0:	2dff      	cmp	r5, #255	; 0xff
    15f2:	dc00      	bgt.n	15f6 <pjpeg_decode_mcu+0x8e2>
    15f4:	b2e1      	uxtb	r1, r4
    15f6:	7011      	strb	r1, [r2, #0]
    15f8:	2180      	movs	r1, #128	; 0x80
    15fa:	5c51      	ldrb	r1, [r2, r1]
    15fc:	1840      	adds	r0, r0, r1
    15fe:	b280      	uxth	r0, r0
    1600:	b284      	uxth	r4, r0
    1602:	28ff      	cmp	r0, #255	; 0xff
    1604:	d906      	bls.n	1614 <pjpeg_decode_mcu+0x900>
    1606:	b224      	sxth	r4, r4
    1608:	2c00      	cmp	r4, #0
    160a:	da00      	bge.n	160e <pjpeg_decode_mcu+0x8fa>
    160c:	e3c2      	b.n	1d94 <pjpeg_decode_mcu+0x1080>
    160e:	21ff      	movs	r1, #255	; 0xff
    1610:	2cff      	cmp	r4, #255	; 0xff
    1612:	dc00      	bgt.n	1616 <pjpeg_decode_mcu+0x902>
    1614:	b2c1      	uxtb	r1, r0
    1616:	2080      	movs	r0, #128	; 0x80
    1618:	5411      	strb	r1, [r2, r0]
    161a:	21b7      	movs	r1, #183	; 0xb7
    161c:	4359      	muls	r1, r3
    161e:	4a33      	ldr	r2, [pc, #204]	; (16ec <pjpeg_decode_mcu+0x9d8>)
    1620:	0a09      	lsrs	r1, r1, #8
    1622:	395b      	subs	r1, #91	; 0x5b
    1624:	7810      	ldrb	r0, [r2, #0]
    1626:	b289      	uxth	r1, r1
    1628:	1a40      	subs	r0, r0, r1
    162a:	b280      	uxth	r0, r0
    162c:	b284      	uxth	r4, r0
    162e:	28ff      	cmp	r0, #255	; 0xff
    1630:	d906      	bls.n	1640 <pjpeg_decode_mcu+0x92c>
    1632:	b224      	sxth	r4, r4
    1634:	2c00      	cmp	r4, #0
    1636:	da00      	bge.n	163a <pjpeg_decode_mcu+0x926>
    1638:	e3a6      	b.n	1d88 <pjpeg_decode_mcu+0x1074>
    163a:	23ff      	movs	r3, #255	; 0xff
    163c:	2cff      	cmp	r4, #255	; 0xff
    163e:	dc00      	bgt.n	1642 <pjpeg_decode_mcu+0x92e>
    1640:	b2c3      	uxtb	r3, r0
    1642:	7013      	strb	r3, [r2, #0]
    1644:	2380      	movs	r3, #128	; 0x80
    1646:	5cd3      	ldrb	r3, [r2, r3]
    1648:	1a59      	subs	r1, r3, r1
    164a:	b289      	uxth	r1, r1
    164c:	b288      	uxth	r0, r1
    164e:	29ff      	cmp	r1, #255	; 0xff
    1650:	d906      	bls.n	1660 <pjpeg_decode_mcu+0x94c>
    1652:	b200      	sxth	r0, r0
    1654:	2800      	cmp	r0, #0
    1656:	da00      	bge.n	165a <pjpeg_decode_mcu+0x946>
    1658:	e398      	b.n	1d8c <pjpeg_decode_mcu+0x1078>
    165a:	23ff      	movs	r3, #255	; 0xff
    165c:	28ff      	cmp	r0, #255	; 0xff
    165e:	dc00      	bgt.n	1662 <pjpeg_decode_mcu+0x94e>
    1660:	b2cb      	uxtb	r3, r1
    1662:	2180      	movs	r1, #128	; 0x80
    1664:	5453      	strb	r3, [r2, r1]
    1666:	e434      	b.n	ed2 <pjpeg_decode_mcu+0x1be>
    1668:	9f06      	ldr	r7, [sp, #24]
    166a:	2f01      	cmp	r7, #1
    166c:	d100      	bne.n	1670 <pjpeg_decode_mcu+0x95c>
    166e:	e27b      	b.n	1b68 <pjpeg_decode_mcu+0xe54>
    1670:	2f00      	cmp	r7, #0
    1672:	d100      	bne.n	1676 <pjpeg_decode_mcu+0x962>
    1674:	e0a1      	b.n	17ba <pjpeg_decode_mcu+0xaa6>
    1676:	2f02      	cmp	r7, #2
    1678:	d000      	beq.n	167c <pjpeg_decode_mcu+0x968>
    167a:	e42a      	b.n	ed2 <pjpeg_decode_mcu+0x1be>
    167c:	4a1c      	ldr	r2, [pc, #112]	; (16f0 <pjpeg_decode_mcu+0x9dc>)
    167e:	2167      	movs	r1, #103	; 0x67
    1680:	4359      	muls	r1, r3
    1682:	7810      	ldrb	r0, [r2, #0]
    1684:	0a09      	lsrs	r1, r1, #8
    1686:	38b3      	subs	r0, #179	; 0xb3
    1688:	1818      	adds	r0, r3, r0
    168a:	1841      	adds	r1, r0, r1
    168c:	b289      	uxth	r1, r1
    168e:	29ff      	cmp	r1, #255	; 0xff
    1690:	d800      	bhi.n	1694 <pjpeg_decode_mcu+0x980>
    1692:	e289      	b.n	1ba8 <pjpeg_decode_mcu+0xe94>
    1694:	43c9      	mvns	r1, r1
    1696:	0409      	lsls	r1, r1, #16
    1698:	17c9      	asrs	r1, r1, #31
    169a:	b2c9      	uxtb	r1, r1
    169c:	20b7      	movs	r0, #183	; 0xb7
    169e:	7011      	strb	r1, [r2, #0]
    16a0:	4343      	muls	r3, r0
    16a2:	4a12      	ldr	r2, [pc, #72]	; (16ec <pjpeg_decode_mcu+0x9d8>)
    16a4:	0a1b      	lsrs	r3, r3, #8
    16a6:	7811      	ldrb	r1, [r2, #0]
    16a8:	315b      	adds	r1, #91	; 0x5b
    16aa:	1acb      	subs	r3, r1, r3
    16ac:	b29b      	uxth	r3, r3
    16ae:	2bff      	cmp	r3, #255	; 0xff
    16b0:	d800      	bhi.n	16b4 <pjpeg_decode_mcu+0x9a0>
    16b2:	e275      	b.n	1ba0 <pjpeg_decode_mcu+0xe8c>
    16b4:	43db      	mvns	r3, r3
    16b6:	041b      	lsls	r3, r3, #16
    16b8:	17db      	asrs	r3, r3, #31
    16ba:	b2db      	uxtb	r3, r3
    16bc:	7013      	strb	r3, [r2, #0]
    16be:	f7ff fc08 	bl	ed2 <pjpeg_decode_mcu+0x1be>
    16c2:	4a0b      	ldr	r2, [pc, #44]	; (16f0 <pjpeg_decode_mcu+0x9dc>)
    16c4:	7013      	strb	r3, [r2, #0]
    16c6:	f7ff fc04 	bl	ed2 <pjpeg_decode_mcu+0x1be>
    16ca:	9f06      	ldr	r7, [sp, #24]
    16cc:	2f05      	cmp	r7, #5
    16ce:	d901      	bls.n	16d4 <pjpeg_decode_mcu+0x9c0>
    16d0:	f7ff fbff 	bl	ed2 <pjpeg_decode_mcu+0x1be>
    16d4:	4909      	ldr	r1, [pc, #36]	; (16fc <pjpeg_decode_mcu+0x9e8>)
    16d6:	00ba      	lsls	r2, r7, #2
    16d8:	588a      	ldr	r2, [r1, r2]
    16da:	4697      	mov	pc, r2
    16dc:	40000600 	andmi	r0, r0, r0, lsl #12
    16e0:	40000680 	andmi	r0, r0, r0, lsl #13
    16e4:	0000ddf8 	strdeq	sp, [r0], -r8
    16e8:	0000dd78 	andeq	sp, r0, r8, ror sp
    16ec:	40000080 	andmi	r0, r0, r0, lsl #1
    16f0:	40000280 	andmi	r0, r0, r0, lsl #5
    16f4:	400000c0 	andmi	r0, r0, r0, asr #1
    16f8:	0000dd48 	andeq	sp, r0, r8, asr #26
    16fc:	0000dd60 	andeq	sp, r0, r0, ror #26
    1700:	9d06      	ldr	r5, [sp, #24]
    1702:	2d01      	cmp	r5, #1
    1704:	d074      	beq.n	17f0 <pjpeg_decode_mcu+0xadc>
    1706:	2d00      	cmp	r5, #0
    1708:	d057      	beq.n	17ba <pjpeg_decode_mcu+0xaa6>
    170a:	2d02      	cmp	r5, #2
    170c:	d100      	bne.n	1710 <pjpeg_decode_mcu+0x9fc>
    170e:	e267      	b.n	1be0 <pjpeg_decode_mcu+0xecc>
    1710:	2d03      	cmp	r5, #3
    1712:	d001      	beq.n	1718 <pjpeg_decode_mcu+0xa04>
    1714:	f7ff fbdd 	bl	ed2 <pjpeg_decode_mcu+0x1be>
    1718:	2267      	movs	r2, #103	; 0x67
    171a:	435a      	muls	r2, r3
    171c:	1c18      	adds	r0, r3, #0
    171e:	0a12      	lsrs	r2, r2, #8
    1720:	38b3      	subs	r0, #179	; 0xb3
    1722:	1880      	adds	r0, r0, r2
    1724:	4ad7      	ldr	r2, [pc, #860]	; (1a84 <pjpeg_decode_mcu+0xd70>)
    1726:	b280      	uxth	r0, r0
    1728:	7814      	ldrb	r4, [r2, #0]
    172a:	1904      	adds	r4, r0, r4
    172c:	b2a4      	uxth	r4, r4
    172e:	b2a5      	uxth	r5, r4
    1730:	2cff      	cmp	r4, #255	; 0xff
    1732:	d800      	bhi.n	1736 <pjpeg_decode_mcu+0xa22>
    1734:	e1a3      	b.n	1a7e <pjpeg_decode_mcu+0xd6a>
    1736:	b22d      	sxth	r5, r5
    1738:	2d00      	cmp	r5, #0
    173a:	da00      	bge.n	173e <pjpeg_decode_mcu+0xa2a>
    173c:	e31a      	b.n	1d74 <pjpeg_decode_mcu+0x1060>
    173e:	21ff      	movs	r1, #255	; 0xff
    1740:	2dff      	cmp	r5, #255	; 0xff
    1742:	dc00      	bgt.n	1746 <pjpeg_decode_mcu+0xa32>
    1744:	e19b      	b.n	1a7e <pjpeg_decode_mcu+0xd6a>
    1746:	7011      	strb	r1, [r2, #0]
    1748:	2140      	movs	r1, #64	; 0x40
    174a:	5c51      	ldrb	r1, [r2, r1]
    174c:	1840      	adds	r0, r0, r1
    174e:	b280      	uxth	r0, r0
    1750:	b284      	uxth	r4, r0
    1752:	28ff      	cmp	r0, #255	; 0xff
    1754:	d906      	bls.n	1764 <pjpeg_decode_mcu+0xa50>
    1756:	b224      	sxth	r4, r4
    1758:	2c00      	cmp	r4, #0
    175a:	da00      	bge.n	175e <pjpeg_decode_mcu+0xa4a>
    175c:	e310      	b.n	1d80 <pjpeg_decode_mcu+0x106c>
    175e:	21ff      	movs	r1, #255	; 0xff
    1760:	2cff      	cmp	r4, #255	; 0xff
    1762:	dc00      	bgt.n	1766 <pjpeg_decode_mcu+0xa52>
    1764:	b2c1      	uxtb	r1, r0
    1766:	2040      	movs	r0, #64	; 0x40
    1768:	5411      	strb	r1, [r2, r0]
    176a:	21b7      	movs	r1, #183	; 0xb7
    176c:	4359      	muls	r1, r3
    176e:	4ac6      	ldr	r2, [pc, #792]	; (1a88 <pjpeg_decode_mcu+0xd74>)
    1770:	0a09      	lsrs	r1, r1, #8
    1772:	395b      	subs	r1, #91	; 0x5b
    1774:	7810      	ldrb	r0, [r2, #0]
    1776:	b289      	uxth	r1, r1
    1778:	1a40      	subs	r0, r0, r1
    177a:	b280      	uxth	r0, r0
    177c:	b284      	uxth	r4, r0
    177e:	28ff      	cmp	r0, #255	; 0xff
    1780:	d906      	bls.n	1790 <pjpeg_decode_mcu+0xa7c>
    1782:	b224      	sxth	r4, r4
    1784:	2c00      	cmp	r4, #0
    1786:	da00      	bge.n	178a <pjpeg_decode_mcu+0xa76>
    1788:	e2fc      	b.n	1d84 <pjpeg_decode_mcu+0x1070>
    178a:	23ff      	movs	r3, #255	; 0xff
    178c:	2cff      	cmp	r4, #255	; 0xff
    178e:	dc00      	bgt.n	1792 <pjpeg_decode_mcu+0xa7e>
    1790:	b2c3      	uxtb	r3, r0
    1792:	7013      	strb	r3, [r2, #0]
    1794:	2340      	movs	r3, #64	; 0x40
    1796:	5cd3      	ldrb	r3, [r2, r3]
    1798:	1a59      	subs	r1, r3, r1
    179a:	b289      	uxth	r1, r1
    179c:	b288      	uxth	r0, r1
    179e:	29ff      	cmp	r1, #255	; 0xff
    17a0:	d906      	bls.n	17b0 <pjpeg_decode_mcu+0xa9c>
    17a2:	b200      	sxth	r0, r0
    17a4:	2800      	cmp	r0, #0
    17a6:	da00      	bge.n	17aa <pjpeg_decode_mcu+0xa96>
    17a8:	e2fa      	b.n	1da0 <pjpeg_decode_mcu+0x108c>
    17aa:	23ff      	movs	r3, #255	; 0xff
    17ac:	28ff      	cmp	r0, #255	; 0xff
    17ae:	dc00      	bgt.n	17b2 <pjpeg_decode_mcu+0xa9e>
    17b0:	b2cb      	uxtb	r3, r1
    17b2:	2140      	movs	r1, #64	; 0x40
    17b4:	5453      	strb	r3, [r2, r1]
    17b6:	f7ff fb8c 	bl	ed2 <pjpeg_decode_mcu+0x1be>
    17ba:	4ab2      	ldr	r2, [pc, #712]	; (1a84 <pjpeg_decode_mcu+0xd70>)
    17bc:	7013      	strb	r3, [r2, #0]
    17be:	4ab2      	ldr	r2, [pc, #712]	; (1a88 <pjpeg_decode_mcu+0xd74>)
    17c0:	7013      	strb	r3, [r2, #0]
    17c2:	4ab2      	ldr	r2, [pc, #712]	; (1a8c <pjpeg_decode_mcu+0xd78>)
    17c4:	7013      	strb	r3, [r2, #0]
    17c6:	f7ff fb84 	bl	ed2 <pjpeg_decode_mcu+0x1be>
    17ca:	2040      	movs	r0, #64	; 0x40
    17cc:	f7ff f82e 	bl	82c <copyY>
    17d0:	f7ff fb7f 	bl	ed2 <pjpeg_decode_mcu+0x1be>
    17d4:	2080      	movs	r0, #128	; 0x80
    17d6:	f7ff f829 	bl	82c <copyY>
    17da:	f7ff fb7a 	bl	ed2 <pjpeg_decode_mcu+0x1be>
    17de:	2280      	movs	r2, #128	; 0x80
    17e0:	49a8      	ldr	r1, [pc, #672]	; (1a84 <pjpeg_decode_mcu+0xd70>)
    17e2:	548b      	strb	r3, [r1, r2]
    17e4:	49a8      	ldr	r1, [pc, #672]	; (1a88 <pjpeg_decode_mcu+0xd74>)
    17e6:	548b      	strb	r3, [r1, r2]
    17e8:	49a8      	ldr	r1, [pc, #672]	; (1a8c <pjpeg_decode_mcu+0xd78>)
    17ea:	548b      	strb	r3, [r1, r2]
    17ec:	f7ff fb71 	bl	ed2 <pjpeg_decode_mcu+0x1be>
    17f0:	2240      	movs	r2, #64	; 0x40
    17f2:	e7f5      	b.n	17e0 <pjpeg_decode_mcu+0xacc>
    17f4:	2267      	movs	r2, #103	; 0x67
    17f6:	435a      	muls	r2, r3
    17f8:	1c19      	adds	r1, r3, #0
    17fa:	0a12      	lsrs	r2, r2, #8
    17fc:	39b3      	subs	r1, #179	; 0xb3
    17fe:	1889      	adds	r1, r1, r2
    1800:	4aa0      	ldr	r2, [pc, #640]	; (1a84 <pjpeg_decode_mcu+0xd70>)
    1802:	b289      	uxth	r1, r1
    1804:	7814      	ldrb	r4, [r2, #0]
    1806:	190c      	adds	r4, r1, r4
    1808:	b2a4      	uxth	r4, r4
    180a:	b2a5      	uxth	r5, r4
    180c:	2cff      	cmp	r4, #255	; 0xff
    180e:	d800      	bhi.n	1812 <pjpeg_decode_mcu+0xafe>
    1810:	e240      	b.n	1c94 <pjpeg_decode_mcu+0xf80>
    1812:	b22d      	sxth	r5, r5
    1814:	2d00      	cmp	r5, #0
    1816:	da00      	bge.n	181a <pjpeg_decode_mcu+0xb06>
    1818:	e2b0      	b.n	1d7c <pjpeg_decode_mcu+0x1068>
    181a:	20ff      	movs	r0, #255	; 0xff
    181c:	2dff      	cmp	r5, #255	; 0xff
    181e:	dc00      	bgt.n	1822 <pjpeg_decode_mcu+0xb0e>
    1820:	e238      	b.n	1c94 <pjpeg_decode_mcu+0xf80>
    1822:	7010      	strb	r0, [r2, #0]
    1824:	2040      	movs	r0, #64	; 0x40
    1826:	5c14      	ldrb	r4, [r2, r0]
    1828:	190c      	adds	r4, r1, r4
    182a:	b2a4      	uxth	r4, r4
    182c:	b2a5      	uxth	r5, r4
    182e:	2cff      	cmp	r4, #255	; 0xff
    1830:	d800      	bhi.n	1834 <pjpeg_decode_mcu+0xb20>
    1832:	e1d1      	b.n	1bd8 <pjpeg_decode_mcu+0xec4>
    1834:	b22d      	sxth	r5, r5
    1836:	2d00      	cmp	r5, #0
    1838:	da00      	bge.n	183c <pjpeg_decode_mcu+0xb28>
    183a:	e276      	b.n	1d2a <pjpeg_decode_mcu+0x1016>
    183c:	20ff      	movs	r0, #255	; 0xff
    183e:	2dff      	cmp	r5, #255	; 0xff
    1840:	dc00      	bgt.n	1844 <pjpeg_decode_mcu+0xb30>
    1842:	e1c9      	b.n	1bd8 <pjpeg_decode_mcu+0xec4>
    1844:	2440      	movs	r4, #64	; 0x40
    1846:	5510      	strb	r0, [r2, r4]
    1848:	2080      	movs	r0, #128	; 0x80
    184a:	5c14      	ldrb	r4, [r2, r0]
    184c:	190c      	adds	r4, r1, r4
    184e:	b2a4      	uxth	r4, r4
    1850:	b2a5      	uxth	r5, r4
    1852:	2cff      	cmp	r4, #255	; 0xff
    1854:	d800      	bhi.n	1858 <pjpeg_decode_mcu+0xb44>
    1856:	e1bb      	b.n	1bd0 <pjpeg_decode_mcu+0xebc>
    1858:	b22d      	sxth	r5, r5
    185a:	2d00      	cmp	r5, #0
    185c:	da00      	bge.n	1860 <pjpeg_decode_mcu+0xb4c>
    185e:	e2a3      	b.n	1da8 <pjpeg_decode_mcu+0x1094>
    1860:	20ff      	movs	r0, #255	; 0xff
    1862:	2dff      	cmp	r5, #255	; 0xff
    1864:	dc00      	bgt.n	1868 <pjpeg_decode_mcu+0xb54>
    1866:	e1b3      	b.n	1bd0 <pjpeg_decode_mcu+0xebc>
    1868:	2480      	movs	r4, #128	; 0x80
    186a:	5510      	strb	r0, [r2, r4]
    186c:	20c0      	movs	r0, #192	; 0xc0
    186e:	5c10      	ldrb	r0, [r2, r0]
    1870:	1809      	adds	r1, r1, r0
    1872:	b289      	uxth	r1, r1
    1874:	b28c      	uxth	r4, r1
    1876:	29ff      	cmp	r1, #255	; 0xff
    1878:	d800      	bhi.n	187c <pjpeg_decode_mcu+0xb68>
    187a:	e1a5      	b.n	1bc8 <pjpeg_decode_mcu+0xeb4>
    187c:	b224      	sxth	r4, r4
    187e:	2c00      	cmp	r4, #0
    1880:	da00      	bge.n	1884 <pjpeg_decode_mcu+0xb70>
    1882:	e295      	b.n	1db0 <pjpeg_decode_mcu+0x109c>
    1884:	20ff      	movs	r0, #255	; 0xff
    1886:	2cff      	cmp	r4, #255	; 0xff
    1888:	dc00      	bgt.n	188c <pjpeg_decode_mcu+0xb78>
    188a:	e19d      	b.n	1bc8 <pjpeg_decode_mcu+0xeb4>
    188c:	21c0      	movs	r1, #192	; 0xc0
    188e:	5450      	strb	r0, [r2, r1]
    1890:	22b7      	movs	r2, #183	; 0xb7
    1892:	4353      	muls	r3, r2
    1894:	4a7c      	ldr	r2, [pc, #496]	; (1a88 <pjpeg_decode_mcu+0xd74>)
    1896:	0a1b      	lsrs	r3, r3, #8
    1898:	3b5b      	subs	r3, #91	; 0x5b
    189a:	7810      	ldrb	r0, [r2, #0]
    189c:	b29b      	uxth	r3, r3
    189e:	1ac0      	subs	r0, r0, r3
    18a0:	b280      	uxth	r0, r0
    18a2:	b284      	uxth	r4, r0
    18a4:	28ff      	cmp	r0, #255	; 0xff
    18a6:	d800      	bhi.n	18aa <pjpeg_decode_mcu+0xb96>
    18a8:	e18a      	b.n	1bc0 <pjpeg_decode_mcu+0xeac>
    18aa:	b224      	sxth	r4, r4
    18ac:	2c00      	cmp	r4, #0
    18ae:	da00      	bge.n	18b2 <pjpeg_decode_mcu+0xb9e>
    18b0:	e28a      	b.n	1dc8 <pjpeg_decode_mcu+0x10b4>
    18b2:	21ff      	movs	r1, #255	; 0xff
    18b4:	2cff      	cmp	r4, #255	; 0xff
    18b6:	dc00      	bgt.n	18ba <pjpeg_decode_mcu+0xba6>
    18b8:	e182      	b.n	1bc0 <pjpeg_decode_mcu+0xeac>
    18ba:	7011      	strb	r1, [r2, #0]
    18bc:	2140      	movs	r1, #64	; 0x40
    18be:	5c50      	ldrb	r0, [r2, r1]
    18c0:	1ac0      	subs	r0, r0, r3
    18c2:	b280      	uxth	r0, r0
    18c4:	b284      	uxth	r4, r0
    18c6:	28ff      	cmp	r0, #255	; 0xff
    18c8:	d800      	bhi.n	18cc <pjpeg_decode_mcu+0xbb8>
    18ca:	e175      	b.n	1bb8 <pjpeg_decode_mcu+0xea4>
    18cc:	b224      	sxth	r4, r4
    18ce:	2c00      	cmp	r4, #0
    18d0:	da00      	bge.n	18d4 <pjpeg_decode_mcu+0xbc0>
    18d2:	e27d      	b.n	1dd0 <pjpeg_decode_mcu+0x10bc>
    18d4:	21ff      	movs	r1, #255	; 0xff
    18d6:	2cff      	cmp	r4, #255	; 0xff
    18d8:	dc00      	bgt.n	18dc <pjpeg_decode_mcu+0xbc8>
    18da:	e16d      	b.n	1bb8 <pjpeg_decode_mcu+0xea4>
    18dc:	2040      	movs	r0, #64	; 0x40
    18de:	5411      	strb	r1, [r2, r0]
    18e0:	2180      	movs	r1, #128	; 0x80
    18e2:	5c50      	ldrb	r0, [r2, r1]
    18e4:	1ac0      	subs	r0, r0, r3
    18e6:	b280      	uxth	r0, r0
    18e8:	b284      	uxth	r4, r0
    18ea:	28ff      	cmp	r0, #255	; 0xff
    18ec:	d800      	bhi.n	18f0 <pjpeg_decode_mcu+0xbdc>
    18ee:	e15f      	b.n	1bb0 <pjpeg_decode_mcu+0xe9c>
    18f0:	b224      	sxth	r4, r4
    18f2:	2c00      	cmp	r4, #0
    18f4:	da00      	bge.n	18f8 <pjpeg_decode_mcu+0xbe4>
    18f6:	e25f      	b.n	1db8 <pjpeg_decode_mcu+0x10a4>
    18f8:	21ff      	movs	r1, #255	; 0xff
    18fa:	2cff      	cmp	r4, #255	; 0xff
    18fc:	dc00      	bgt.n	1900 <pjpeg_decode_mcu+0xbec>
    18fe:	e157      	b.n	1bb0 <pjpeg_decode_mcu+0xe9c>
    1900:	2080      	movs	r0, #128	; 0x80
    1902:	5411      	strb	r1, [r2, r0]
    1904:	21c0      	movs	r1, #192	; 0xc0
    1906:	5c51      	ldrb	r1, [r2, r1]
    1908:	1acb      	subs	r3, r1, r3
    190a:	b29b      	uxth	r3, r3
    190c:	b298      	uxth	r0, r3
    190e:	2bff      	cmp	r3, #255	; 0xff
    1910:	d906      	bls.n	1920 <pjpeg_decode_mcu+0xc0c>
    1912:	b200      	sxth	r0, r0
    1914:	2800      	cmp	r0, #0
    1916:	da00      	bge.n	191a <pjpeg_decode_mcu+0xc06>
    1918:	e252      	b.n	1dc0 <pjpeg_decode_mcu+0x10ac>
    191a:	21ff      	movs	r1, #255	; 0xff
    191c:	28ff      	cmp	r0, #255	; 0xff
    191e:	dc00      	bgt.n	1922 <pjpeg_decode_mcu+0xc0e>
    1920:	b2d9      	uxtb	r1, r3
    1922:	23c0      	movs	r3, #192	; 0xc0
    1924:	54d1      	strb	r1, [r2, r3]
    1926:	f7ff fad4 	bl	ed2 <pjpeg_decode_mcu+0x1be>
    192a:	2158      	movs	r1, #88	; 0x58
    192c:	4359      	muls	r1, r3
    192e:	4a56      	ldr	r2, [pc, #344]	; (1a88 <pjpeg_decode_mcu+0xd74>)
    1930:	0a09      	lsrs	r1, r1, #8
    1932:	392c      	subs	r1, #44	; 0x2c
    1934:	7814      	ldrb	r4, [r2, #0]
    1936:	b289      	uxth	r1, r1
    1938:	1a64      	subs	r4, r4, r1
    193a:	b2a4      	uxth	r4, r4
    193c:	b2a5      	uxth	r5, r4
    193e:	2cff      	cmp	r4, #255	; 0xff
    1940:	d800      	bhi.n	1944 <pjpeg_decode_mcu+0xc30>
    1942:	e14b      	b.n	1bdc <pjpeg_decode_mcu+0xec8>
    1944:	b22d      	sxth	r5, r5
    1946:	2d00      	cmp	r5, #0
    1948:	da00      	bge.n	194c <pjpeg_decode_mcu+0xc38>
    194a:	e1f0      	b.n	1d2e <pjpeg_decode_mcu+0x101a>
    194c:	20ff      	movs	r0, #255	; 0xff
    194e:	2dff      	cmp	r5, #255	; 0xff
    1950:	dc00      	bgt.n	1954 <pjpeg_decode_mcu+0xc40>
    1952:	e143      	b.n	1bdc <pjpeg_decode_mcu+0xec8>
    1954:	7010      	strb	r0, [r2, #0]
    1956:	2040      	movs	r0, #64	; 0x40
    1958:	5c14      	ldrb	r4, [r2, r0]
    195a:	1a64      	subs	r4, r4, r1
    195c:	b2a4      	uxth	r4, r4
    195e:	b2a5      	uxth	r5, r4
    1960:	2cff      	cmp	r4, #255	; 0xff
    1962:	d800      	bhi.n	1966 <pjpeg_decode_mcu+0xc52>
    1964:	e136      	b.n	1bd4 <pjpeg_decode_mcu+0xec0>
    1966:	b22d      	sxth	r5, r5
    1968:	2d00      	cmp	r5, #0
    196a:	da00      	bge.n	196e <pjpeg_decode_mcu+0xc5a>
    196c:	e21e      	b.n	1dac <pjpeg_decode_mcu+0x1098>
    196e:	20ff      	movs	r0, #255	; 0xff
    1970:	2dff      	cmp	r5, #255	; 0xff
    1972:	dc00      	bgt.n	1976 <pjpeg_decode_mcu+0xc62>
    1974:	e12e      	b.n	1bd4 <pjpeg_decode_mcu+0xec0>
    1976:	2440      	movs	r4, #64	; 0x40
    1978:	5510      	strb	r0, [r2, r4]
    197a:	2080      	movs	r0, #128	; 0x80
    197c:	5c14      	ldrb	r4, [r2, r0]
    197e:	1a64      	subs	r4, r4, r1
    1980:	b2a4      	uxth	r4, r4
    1982:	b2a5      	uxth	r5, r4
    1984:	2cff      	cmp	r4, #255	; 0xff
    1986:	d800      	bhi.n	198a <pjpeg_decode_mcu+0xc76>
    1988:	e120      	b.n	1bcc <pjpeg_decode_mcu+0xeb8>
    198a:	b22d      	sxth	r5, r5
    198c:	2d00      	cmp	r5, #0
    198e:	da00      	bge.n	1992 <pjpeg_decode_mcu+0xc7e>
    1990:	e210      	b.n	1db4 <pjpeg_decode_mcu+0x10a0>
    1992:	20ff      	movs	r0, #255	; 0xff
    1994:	2dff      	cmp	r5, #255	; 0xff
    1996:	dc00      	bgt.n	199a <pjpeg_decode_mcu+0xc86>
    1998:	e118      	b.n	1bcc <pjpeg_decode_mcu+0xeb8>
    199a:	2480      	movs	r4, #128	; 0x80
    199c:	5510      	strb	r0, [r2, r4]
    199e:	20c0      	movs	r0, #192	; 0xc0
    19a0:	5c10      	ldrb	r0, [r2, r0]
    19a2:	1a41      	subs	r1, r0, r1
    19a4:	b289      	uxth	r1, r1
    19a6:	b28c      	uxth	r4, r1
    19a8:	29ff      	cmp	r1, #255	; 0xff
    19aa:	d800      	bhi.n	19ae <pjpeg_decode_mcu+0xc9a>
    19ac:	e10a      	b.n	1bc4 <pjpeg_decode_mcu+0xeb0>
    19ae:	b224      	sxth	r4, r4
    19b0:	2c00      	cmp	r4, #0
    19b2:	da00      	bge.n	19b6 <pjpeg_decode_mcu+0xca2>
    19b4:	e20a      	b.n	1dcc <pjpeg_decode_mcu+0x10b8>
    19b6:	20ff      	movs	r0, #255	; 0xff
    19b8:	2cff      	cmp	r4, #255	; 0xff
    19ba:	dc00      	bgt.n	19be <pjpeg_decode_mcu+0xcaa>
    19bc:	e102      	b.n	1bc4 <pjpeg_decode_mcu+0xeb0>
    19be:	21c0      	movs	r1, #192	; 0xc0
    19c0:	5450      	strb	r0, [r2, r1]
    19c2:	21c6      	movs	r1, #198	; 0xc6
    19c4:	1c1a      	adds	r2, r3, #0
    19c6:	434b      	muls	r3, r1
    19c8:	3ae3      	subs	r2, #227	; 0xe3
    19ca:	0a1b      	lsrs	r3, r3, #8
    19cc:	18d3      	adds	r3, r2, r3
    19ce:	4a2f      	ldr	r2, [pc, #188]	; (1a8c <pjpeg_decode_mcu+0xd78>)
    19d0:	b29b      	uxth	r3, r3
    19d2:	7810      	ldrb	r0, [r2, #0]
    19d4:	1818      	adds	r0, r3, r0
    19d6:	b280      	uxth	r0, r0
    19d8:	b284      	uxth	r4, r0
    19da:	28ff      	cmp	r0, #255	; 0xff
    19dc:	d800      	bhi.n	19e0 <pjpeg_decode_mcu+0xccc>
    19de:	e0ed      	b.n	1bbc <pjpeg_decode_mcu+0xea8>
    19e0:	b224      	sxth	r4, r4
    19e2:	2c00      	cmp	r4, #0
    19e4:	da00      	bge.n	19e8 <pjpeg_decode_mcu+0xcd4>
    19e6:	e1f5      	b.n	1dd4 <pjpeg_decode_mcu+0x10c0>
    19e8:	21ff      	movs	r1, #255	; 0xff
    19ea:	2cff      	cmp	r4, #255	; 0xff
    19ec:	dc00      	bgt.n	19f0 <pjpeg_decode_mcu+0xcdc>
    19ee:	e0e5      	b.n	1bbc <pjpeg_decode_mcu+0xea8>
    19f0:	7011      	strb	r1, [r2, #0]
    19f2:	2140      	movs	r1, #64	; 0x40
    19f4:	5c50      	ldrb	r0, [r2, r1]
    19f6:	1818      	adds	r0, r3, r0
    19f8:	b280      	uxth	r0, r0
    19fa:	b284      	uxth	r4, r0
    19fc:	28ff      	cmp	r0, #255	; 0xff
    19fe:	d800      	bhi.n	1a02 <pjpeg_decode_mcu+0xcee>
    1a00:	e0d8      	b.n	1bb4 <pjpeg_decode_mcu+0xea0>
    1a02:	b224      	sxth	r4, r4
    1a04:	2c00      	cmp	r4, #0
    1a06:	da00      	bge.n	1a0a <pjpeg_decode_mcu+0xcf6>
    1a08:	e1d8      	b.n	1dbc <pjpeg_decode_mcu+0x10a8>
    1a0a:	21ff      	movs	r1, #255	; 0xff
    1a0c:	2cff      	cmp	r4, #255	; 0xff
    1a0e:	dc00      	bgt.n	1a12 <pjpeg_decode_mcu+0xcfe>
    1a10:	e0d0      	b.n	1bb4 <pjpeg_decode_mcu+0xea0>
    1a12:	2040      	movs	r0, #64	; 0x40
    1a14:	5411      	strb	r1, [r2, r0]
    1a16:	2180      	movs	r1, #128	; 0x80
    1a18:	5c50      	ldrb	r0, [r2, r1]
    1a1a:	1818      	adds	r0, r3, r0
    1a1c:	b280      	uxth	r0, r0
    1a1e:	b284      	uxth	r4, r0
    1a20:	28ff      	cmp	r0, #255	; 0xff
    1a22:	d800      	bhi.n	1a26 <pjpeg_decode_mcu+0xd12>
    1a24:	e0c2      	b.n	1bac <pjpeg_decode_mcu+0xe98>
    1a26:	b224      	sxth	r4, r4
    1a28:	2c00      	cmp	r4, #0
    1a2a:	da00      	bge.n	1a2e <pjpeg_decode_mcu+0xd1a>
    1a2c:	e1ca      	b.n	1dc4 <pjpeg_decode_mcu+0x10b0>
    1a2e:	21ff      	movs	r1, #255	; 0xff
    1a30:	2cff      	cmp	r4, #255	; 0xff
    1a32:	dc00      	bgt.n	1a36 <pjpeg_decode_mcu+0xd22>
    1a34:	e0ba      	b.n	1bac <pjpeg_decode_mcu+0xe98>
    1a36:	2080      	movs	r0, #128	; 0x80
    1a38:	5411      	strb	r1, [r2, r0]
    1a3a:	21c0      	movs	r1, #192	; 0xc0
    1a3c:	5c51      	ldrb	r1, [r2, r1]
    1a3e:	185b      	adds	r3, r3, r1
    1a40:	b29b      	uxth	r3, r3
    1a42:	b298      	uxth	r0, r3
    1a44:	2bff      	cmp	r3, #255	; 0xff
    1a46:	d800      	bhi.n	1a4a <pjpeg_decode_mcu+0xd36>
    1a48:	e76a      	b.n	1920 <pjpeg_decode_mcu+0xc0c>
    1a4a:	e762      	b.n	1912 <pjpeg_decode_mcu+0xbfe>
    1a4c:	22c0      	movs	r2, #192	; 0xc0
    1a4e:	e6c7      	b.n	17e0 <pjpeg_decode_mcu+0xacc>
    1a50:	20c0      	movs	r0, #192	; 0xc0
    1a52:	f7fe feeb 	bl	82c <copyY>
    1a56:	f7ff fa3c 	bl	ed2 <pjpeg_decode_mcu+0x1be>
    1a5a:	2000      	movs	r0, #0
    1a5c:	2100      	movs	r1, #0
    1a5e:	f7fe fd4b 	bl	4f8 <upsampleCr>
    1a62:	2004      	movs	r0, #4
    1a64:	2140      	movs	r1, #64	; 0x40
    1a66:	f7fe fd47 	bl	4f8 <upsampleCr>
    1a6a:	2020      	movs	r0, #32
    1a6c:	2180      	movs	r1, #128	; 0x80
    1a6e:	f7fe fd43 	bl	4f8 <upsampleCr>
    1a72:	2024      	movs	r0, #36	; 0x24
    1a74:	21c0      	movs	r1, #192	; 0xc0
    1a76:	f7fe fd3f 	bl	4f8 <upsampleCr>
    1a7a:	f7ff fa2a 	bl	ed2 <pjpeg_decode_mcu+0x1be>
    1a7e:	b2e1      	uxtb	r1, r4
    1a80:	e661      	b.n	1746 <pjpeg_decode_mcu+0xa32>
    1a82:	46c0      	nop			; (mov r8, r8)
    1a84:	40000280 	andmi	r0, r0, r0, lsl #5
    1a88:	40000080 	andmi	r0, r0, r0, lsl #1
    1a8c:	40000180 	andmi	r0, r0, r0, lsl #3
    1a90:	2000      	movs	r0, #0
    1a92:	2100      	movs	r1, #0
    1a94:	f7fe fb90 	bl	1b8 <upsampleCb>
    1a98:	2004      	movs	r0, #4
    1a9a:	2140      	movs	r1, #64	; 0x40
    1a9c:	f7fe fb8c 	bl	1b8 <upsampleCb>
    1aa0:	2020      	movs	r0, #32
    1aa2:	2180      	movs	r1, #128	; 0x80
    1aa4:	f7fe fb88 	bl	1b8 <upsampleCb>
    1aa8:	2024      	movs	r0, #36	; 0x24
    1aaa:	21c0      	movs	r1, #192	; 0xc0
    1aac:	f7fe fb84 	bl	1b8 <upsampleCb>
    1ab0:	f7ff fa0f 	bl	ed2 <pjpeg_decode_mcu+0x1be>
    1ab4:	b2c0      	uxtb	r0, r0
    1ab6:	e559      	b.n	156c <pjpeg_decode_mcu+0x858>
    1ab8:	24c0      	movs	r4, #192	; 0xc0
    1aba:	00e4      	lsls	r4, r4, #3
    1abc:	e003      	b.n	1ac6 <pjpeg_decode_mcu+0xdb2>
    1abe:	3c01      	subs	r4, #1
    1ac0:	b2a4      	uxth	r4, r4
    1ac2:	2c00      	cmp	r4, #0
    1ac4:	d014      	beq.n	1af0 <pjpeg_decode_mcu+0xddc>
    1ac6:	f7fe fecb 	bl	860 <getChar>
    1aca:	28ff      	cmp	r0, #255	; 0xff
    1acc:	d1f7      	bne.n	1abe <pjpeg_decode_mcu+0xdaa>
    1ace:	e003      	b.n	1ad8 <pjpeg_decode_mcu+0xdc4>
    1ad0:	3c01      	subs	r4, #1
    1ad2:	b2a4      	uxth	r4, r4
    1ad4:	2c00      	cmp	r4, #0
    1ad6:	d00b      	beq.n	1af0 <pjpeg_decode_mcu+0xddc>
    1ad8:	f7fe fec2 	bl	860 <getChar>
    1adc:	28ff      	cmp	r0, #255	; 0xff
    1ade:	d0f7      	beq.n	1ad0 <pjpeg_decode_mcu+0xdbc>
    1ae0:	4fbd      	ldr	r7, [pc, #756]	; (1dd8 <pjpeg_decode_mcu+0x10c4>)
    1ae2:	887a      	ldrh	r2, [r7, #2]
    1ae4:	9705      	str	r7, [sp, #20]
    1ae6:	1c13      	adds	r3, r2, #0
    1ae8:	33d0      	adds	r3, #208	; 0xd0
    1aea:	4298      	cmp	r0, r3
    1aec:	d100      	bne.n	1af0 <pjpeg_decode_mcu+0xddc>
    1aee:	e120      	b.n	1d32 <pjpeg_decode_mcu+0x101e>
    1af0:	201d      	movs	r0, #29
    1af2:	f7ff f9d1 	bl	e98 <pjpeg_decode_mcu+0x184>
    1af6:	2758      	movs	r7, #88	; 0x58
    1af8:	20ff      	movs	r0, #255	; 0xff
    1afa:	24c6      	movs	r4, #198	; 0xc6
    1afc:	1c31      	adds	r1, r6, #0
    1afe:	4ab7      	ldr	r2, [pc, #732]	; (1ddc <pjpeg_decode_mcu+0x10c8>)
    1b00:	4bb7      	ldr	r3, [pc, #732]	; (1de0 <pjpeg_decode_mcu+0x10cc>)
    1b02:	46b8      	mov	r8, r7
    1b04:	4684      	mov	ip, r0
    1b06:	46a2      	mov	sl, r4
    1b08:	e01d      	b.n	1b46 <pjpeg_decode_mcu+0xe32>
    1b0a:	43c0      	mvns	r0, r0
    1b0c:	0400      	lsls	r0, r0, #16
    1b0e:	17c0      	asrs	r0, r0, #31
    1b10:	b2c0      	uxtb	r0, r0
    1b12:	7018      	strb	r0, [r3, #0]
    1b14:	7810      	ldrb	r0, [r2, #0]
    1b16:	4667      	mov	r7, ip
    1b18:	403d      	ands	r5, r7
    1b1a:	38e3      	subs	r0, #227	; 0xe3
    1b1c:	1940      	adds	r0, r0, r5
    1b1e:	4655      	mov	r5, sl
    1b20:	436c      	muls	r4, r5
    1b22:	0a24      	lsrs	r4, r4, #8
    1b24:	1900      	adds	r0, r0, r4
    1b26:	b280      	uxth	r0, r0
    1b28:	3301      	adds	r3, #1
    1b2a:	28ff      	cmp	r0, #255	; 0xff
    1b2c:	d91a      	bls.n	1b64 <pjpeg_decode_mcu+0xe50>
    1b2e:	43c0      	mvns	r0, r0
    1b30:	0400      	lsls	r0, r0, #16
    1b32:	17c0      	asrs	r0, r0, #31
    1b34:	b2c0      	uxtb	r0, r0
    1b36:	4fab      	ldr	r7, [pc, #684]	; (1de4 <pjpeg_decode_mcu+0x10d0>)
    1b38:	7010      	strb	r0, [r2, #0]
    1b3a:	3102      	adds	r1, #2
    1b3c:	3201      	adds	r2, #1
    1b3e:	42bb      	cmp	r3, r7
    1b40:	d101      	bne.n	1b46 <pjpeg_decode_mcu+0xe32>
    1b42:	f7ff f9c6 	bl	ed2 <pjpeg_decode_mcu+0x1be>
    1b46:	7818      	ldrb	r0, [r3, #0]
    1b48:	880d      	ldrh	r5, [r1, #0]
    1b4a:	302c      	adds	r0, #44	; 0x2c
    1b4c:	4681      	mov	r9, r0
    1b4e:	b2ec      	uxtb	r4, r5
    1b50:	4640      	mov	r0, r8
    1b52:	4360      	muls	r0, r4
    1b54:	464f      	mov	r7, r9
    1b56:	0a00      	lsrs	r0, r0, #8
    1b58:	1a38      	subs	r0, r7, r0
    1b5a:	b280      	uxth	r0, r0
    1b5c:	28ff      	cmp	r0, #255	; 0xff
    1b5e:	d8d4      	bhi.n	1b0a <pjpeg_decode_mcu+0xdf6>
    1b60:	b2c0      	uxtb	r0, r0
    1b62:	e7d6      	b.n	1b12 <pjpeg_decode_mcu+0xdfe>
    1b64:	b2c0      	uxtb	r0, r0
    1b66:	e7e6      	b.n	1b36 <pjpeg_decode_mcu+0xe22>
    1b68:	2158      	movs	r1, #88	; 0x58
    1b6a:	4a9d      	ldr	r2, [pc, #628]	; (1de0 <pjpeg_decode_mcu+0x10cc>)
    1b6c:	4359      	muls	r1, r3
    1b6e:	7810      	ldrb	r0, [r2, #0]
    1b70:	0a09      	lsrs	r1, r1, #8
    1b72:	302c      	adds	r0, #44	; 0x2c
    1b74:	1a41      	subs	r1, r0, r1
    1b76:	b289      	uxth	r1, r1
    1b78:	29ff      	cmp	r1, #255	; 0xff
    1b7a:	d800      	bhi.n	1b7e <pjpeg_decode_mcu+0xe6a>
    1b7c:	e0cf      	b.n	1d1e <pjpeg_decode_mcu+0x100a>
    1b7e:	43c9      	mvns	r1, r1
    1b80:	0409      	lsls	r1, r1, #16
    1b82:	17c9      	asrs	r1, r1, #31
    1b84:	b2c9      	uxtb	r1, r1
    1b86:	7011      	strb	r1, [r2, #0]
    1b88:	4a94      	ldr	r2, [pc, #592]	; (1ddc <pjpeg_decode_mcu+0x10c8>)
    1b8a:	20c6      	movs	r0, #198	; 0xc6
    1b8c:	7811      	ldrb	r1, [r2, #0]
    1b8e:	39e3      	subs	r1, #227	; 0xe3
    1b90:	1859      	adds	r1, r3, r1
    1b92:	4343      	muls	r3, r0
    1b94:	0a1b      	lsrs	r3, r3, #8
    1b96:	18cb      	adds	r3, r1, r3
    1b98:	b29b      	uxth	r3, r3
    1b9a:	2bff      	cmp	r3, #255	; 0xff
    1b9c:	d900      	bls.n	1ba0 <pjpeg_decode_mcu+0xe8c>
    1b9e:	e589      	b.n	16b4 <pjpeg_decode_mcu+0x9a0>
    1ba0:	b2db      	uxtb	r3, r3
    1ba2:	7013      	strb	r3, [r2, #0]
    1ba4:	f7ff f995 	bl	ed2 <pjpeg_decode_mcu+0x1be>
    1ba8:	b2c9      	uxtb	r1, r1
    1baa:	e577      	b.n	169c <pjpeg_decode_mcu+0x988>
    1bac:	b2c1      	uxtb	r1, r0
    1bae:	e742      	b.n	1a36 <pjpeg_decode_mcu+0xd22>
    1bb0:	b2c1      	uxtb	r1, r0
    1bb2:	e6a5      	b.n	1900 <pjpeg_decode_mcu+0xbec>
    1bb4:	b2c1      	uxtb	r1, r0
    1bb6:	e72c      	b.n	1a12 <pjpeg_decode_mcu+0xcfe>
    1bb8:	b2c1      	uxtb	r1, r0
    1bba:	e68f      	b.n	18dc <pjpeg_decode_mcu+0xbc8>
    1bbc:	b2c1      	uxtb	r1, r0
    1bbe:	e717      	b.n	19f0 <pjpeg_decode_mcu+0xcdc>
    1bc0:	b2c1      	uxtb	r1, r0
    1bc2:	e67a      	b.n	18ba <pjpeg_decode_mcu+0xba6>
    1bc4:	b2c8      	uxtb	r0, r1
    1bc6:	e6fa      	b.n	19be <pjpeg_decode_mcu+0xcaa>
    1bc8:	b2c8      	uxtb	r0, r1
    1bca:	e65f      	b.n	188c <pjpeg_decode_mcu+0xb78>
    1bcc:	b2e0      	uxtb	r0, r4
    1bce:	e6e4      	b.n	199a <pjpeg_decode_mcu+0xc86>
    1bd0:	b2e0      	uxtb	r0, r4
    1bd2:	e649      	b.n	1868 <pjpeg_decode_mcu+0xb54>
    1bd4:	b2e0      	uxtb	r0, r4
    1bd6:	e6ce      	b.n	1976 <pjpeg_decode_mcu+0xc62>
    1bd8:	b2e0      	uxtb	r0, r4
    1bda:	e633      	b.n	1844 <pjpeg_decode_mcu+0xb30>
    1bdc:	b2e0      	uxtb	r0, r4
    1bde:	e6b9      	b.n	1954 <pjpeg_decode_mcu+0xc40>
    1be0:	2058      	movs	r0, #88	; 0x58
    1be2:	4358      	muls	r0, r3
    1be4:	4a7e      	ldr	r2, [pc, #504]	; (1de0 <pjpeg_decode_mcu+0x10cc>)
    1be6:	0a00      	lsrs	r0, r0, #8
    1be8:	382c      	subs	r0, #44	; 0x2c
    1bea:	7814      	ldrb	r4, [r2, #0]
    1bec:	b280      	uxth	r0, r0
    1bee:	1a24      	subs	r4, r4, r0
    1bf0:	b2a4      	uxth	r4, r4
    1bf2:	b2a5      	uxth	r5, r4
    1bf4:	2cff      	cmp	r4, #255	; 0xff
    1bf6:	d906      	bls.n	1c06 <pjpeg_decode_mcu+0xef2>
    1bf8:	b22d      	sxth	r5, r5
    1bfa:	2d00      	cmp	r5, #0
    1bfc:	da00      	bge.n	1c00 <pjpeg_decode_mcu+0xeec>
    1bfe:	e0d1      	b.n	1da4 <pjpeg_decode_mcu+0x1090>
    1c00:	21ff      	movs	r1, #255	; 0xff
    1c02:	2dff      	cmp	r5, #255	; 0xff
    1c04:	dc00      	bgt.n	1c08 <pjpeg_decode_mcu+0xef4>
    1c06:	b2e1      	uxtb	r1, r4
    1c08:	7011      	strb	r1, [r2, #0]
    1c0a:	2140      	movs	r1, #64	; 0x40
    1c0c:	5c51      	ldrb	r1, [r2, r1]
    1c0e:	1a08      	subs	r0, r1, r0
    1c10:	b280      	uxth	r0, r0
    1c12:	b284      	uxth	r4, r0
    1c14:	28ff      	cmp	r0, #255	; 0xff
    1c16:	d906      	bls.n	1c26 <pjpeg_decode_mcu+0xf12>
    1c18:	b224      	sxth	r4, r4
    1c1a:	2c00      	cmp	r4, #0
    1c1c:	da00      	bge.n	1c20 <pjpeg_decode_mcu+0xf0c>
    1c1e:	e0bb      	b.n	1d98 <pjpeg_decode_mcu+0x1084>
    1c20:	21ff      	movs	r1, #255	; 0xff
    1c22:	2cff      	cmp	r4, #255	; 0xff
    1c24:	dc00      	bgt.n	1c28 <pjpeg_decode_mcu+0xf14>
    1c26:	b2c1      	uxtb	r1, r0
    1c28:	2040      	movs	r0, #64	; 0x40
    1c2a:	5411      	strb	r1, [r2, r0]
    1c2c:	22c6      	movs	r2, #198	; 0xc6
    1c2e:	1c19      	adds	r1, r3, #0
    1c30:	4353      	muls	r3, r2
    1c32:	4a6a      	ldr	r2, [pc, #424]	; (1ddc <pjpeg_decode_mcu+0x10c8>)
    1c34:	39e3      	subs	r1, #227	; 0xe3
    1c36:	0a1b      	lsrs	r3, r3, #8
    1c38:	18c9      	adds	r1, r1, r3
    1c3a:	7810      	ldrb	r0, [r2, #0]
    1c3c:	b289      	uxth	r1, r1
    1c3e:	1808      	adds	r0, r1, r0
    1c40:	b280      	uxth	r0, r0
    1c42:	b284      	uxth	r4, r0
    1c44:	28ff      	cmp	r0, #255	; 0xff
    1c46:	d906      	bls.n	1c56 <pjpeg_decode_mcu+0xf42>
    1c48:	b224      	sxth	r4, r4
    1c4a:	2c00      	cmp	r4, #0
    1c4c:	da00      	bge.n	1c50 <pjpeg_decode_mcu+0xf3c>
    1c4e:	e0a5      	b.n	1d9c <pjpeg_decode_mcu+0x1088>
    1c50:	23ff      	movs	r3, #255	; 0xff
    1c52:	2cff      	cmp	r4, #255	; 0xff
    1c54:	dc00      	bgt.n	1c58 <pjpeg_decode_mcu+0xf44>
    1c56:	b2c3      	uxtb	r3, r0
    1c58:	7013      	strb	r3, [r2, #0]
    1c5a:	2340      	movs	r3, #64	; 0x40
    1c5c:	5cd3      	ldrb	r3, [r2, r3]
    1c5e:	18c9      	adds	r1, r1, r3
    1c60:	b289      	uxth	r1, r1
    1c62:	b288      	uxth	r0, r1
    1c64:	29ff      	cmp	r1, #255	; 0xff
    1c66:	d800      	bhi.n	1c6a <pjpeg_decode_mcu+0xf56>
    1c68:	e5a2      	b.n	17b0 <pjpeg_decode_mcu+0xa9c>
    1c6a:	e59a      	b.n	17a2 <pjpeg_decode_mcu+0xa8e>
    1c6c:	2000      	movs	r0, #0
    1c6e:	2100      	movs	r1, #0
    1c70:	f7fe fb4a 	bl	308 <upsampleCbH>
    1c74:	2004      	movs	r0, #4
    1c76:	2140      	movs	r1, #64	; 0x40
    1c78:	f7fe fb46 	bl	308 <upsampleCbH>
    1c7c:	f7ff f929 	bl	ed2 <pjpeg_decode_mcu+0x1be>
    1c80:	2000      	movs	r0, #0
    1c82:	2100      	movs	r1, #0
    1c84:	f7fe fbb6 	bl	3f4 <upsampleCbV>
    1c88:	2020      	movs	r0, #32
    1c8a:	2180      	movs	r1, #128	; 0x80
    1c8c:	f7fe fbb2 	bl	3f4 <upsampleCbV>
    1c90:	f7ff f91f 	bl	ed2 <pjpeg_decode_mcu+0x1be>
    1c94:	b2e0      	uxtb	r0, r4
    1c96:	e5c4      	b.n	1822 <pjpeg_decode_mcu+0xb0e>
    1c98:	2058      	movs	r0, #88	; 0x58
    1c9a:	4358      	muls	r0, r3
    1c9c:	4a50      	ldr	r2, [pc, #320]	; (1de0 <pjpeg_decode_mcu+0x10cc>)
    1c9e:	0a00      	lsrs	r0, r0, #8
    1ca0:	382c      	subs	r0, #44	; 0x2c
    1ca2:	7814      	ldrb	r4, [r2, #0]
    1ca4:	b280      	uxth	r0, r0
    1ca6:	1a24      	subs	r4, r4, r0
    1ca8:	b2a4      	uxth	r4, r4
    1caa:	b2a5      	uxth	r5, r4
    1cac:	2cff      	cmp	r4, #255	; 0xff
    1cae:	d905      	bls.n	1cbc <pjpeg_decode_mcu+0xfa8>
    1cb0:	b22d      	sxth	r5, r5
    1cb2:	2d00      	cmp	r5, #0
    1cb4:	db35      	blt.n	1d22 <pjpeg_decode_mcu+0x100e>
    1cb6:	21ff      	movs	r1, #255	; 0xff
    1cb8:	2dff      	cmp	r5, #255	; 0xff
    1cba:	dc00      	bgt.n	1cbe <pjpeg_decode_mcu+0xfaa>
    1cbc:	b2e1      	uxtb	r1, r4
    1cbe:	7011      	strb	r1, [r2, #0]
    1cc0:	2180      	movs	r1, #128	; 0x80
    1cc2:	5c51      	ldrb	r1, [r2, r1]
    1cc4:	1a08      	subs	r0, r1, r0
    1cc6:	b280      	uxth	r0, r0
    1cc8:	b284      	uxth	r4, r0
    1cca:	28ff      	cmp	r0, #255	; 0xff
    1ccc:	d905      	bls.n	1cda <pjpeg_decode_mcu+0xfc6>
    1cce:	b224      	sxth	r4, r4
    1cd0:	2c00      	cmp	r4, #0
    1cd2:	db28      	blt.n	1d26 <pjpeg_decode_mcu+0x1012>
    1cd4:	21ff      	movs	r1, #255	; 0xff
    1cd6:	2cff      	cmp	r4, #255	; 0xff
    1cd8:	dc00      	bgt.n	1cdc <pjpeg_decode_mcu+0xfc8>
    1cda:	b2c1      	uxtb	r1, r0
    1cdc:	2080      	movs	r0, #128	; 0x80
    1cde:	5411      	strb	r1, [r2, r0]
    1ce0:	22c6      	movs	r2, #198	; 0xc6
    1ce2:	1c19      	adds	r1, r3, #0
    1ce4:	4353      	muls	r3, r2
    1ce6:	4a3d      	ldr	r2, [pc, #244]	; (1ddc <pjpeg_decode_mcu+0x10c8>)
    1ce8:	39e3      	subs	r1, #227	; 0xe3
    1cea:	0a1b      	lsrs	r3, r3, #8
    1cec:	18c9      	adds	r1, r1, r3
    1cee:	7810      	ldrb	r0, [r2, #0]
    1cf0:	b289      	uxth	r1, r1
    1cf2:	1808      	adds	r0, r1, r0
    1cf4:	b280      	uxth	r0, r0
    1cf6:	b284      	uxth	r4, r0
    1cf8:	28ff      	cmp	r0, #255	; 0xff
    1cfa:	d905      	bls.n	1d08 <pjpeg_decode_mcu+0xff4>
    1cfc:	b224      	sxth	r4, r4
    1cfe:	2c00      	cmp	r4, #0
    1d00:	db3a      	blt.n	1d78 <pjpeg_decode_mcu+0x1064>
    1d02:	23ff      	movs	r3, #255	; 0xff
    1d04:	2cff      	cmp	r4, #255	; 0xff
    1d06:	dc00      	bgt.n	1d0a <pjpeg_decode_mcu+0xff6>
    1d08:	b2c3      	uxtb	r3, r0
    1d0a:	7013      	strb	r3, [r2, #0]
    1d0c:	2380      	movs	r3, #128	; 0x80
    1d0e:	5cd3      	ldrb	r3, [r2, r3]
    1d10:	18c9      	adds	r1, r1, r3
    1d12:	b289      	uxth	r1, r1
    1d14:	b288      	uxth	r0, r1
    1d16:	29ff      	cmp	r1, #255	; 0xff
    1d18:	d800      	bhi.n	1d1c <pjpeg_decode_mcu+0x1008>
    1d1a:	e4a1      	b.n	1660 <pjpeg_decode_mcu+0x94c>
    1d1c:	e499      	b.n	1652 <pjpeg_decode_mcu+0x93e>
    1d1e:	b2c9      	uxtb	r1, r1
    1d20:	e731      	b.n	1b86 <pjpeg_decode_mcu+0xe72>
    1d22:	2100      	movs	r1, #0
    1d24:	e7cb      	b.n	1cbe <pjpeg_decode_mcu+0xfaa>
    1d26:	2100      	movs	r1, #0
    1d28:	e7d8      	b.n	1cdc <pjpeg_decode_mcu+0xfc8>
    1d2a:	2000      	movs	r0, #0
    1d2c:	e58a      	b.n	1844 <pjpeg_decode_mcu+0xb30>
    1d2e:	2000      	movs	r0, #0
    1d30:	e610      	b.n	1954 <pjpeg_decode_mcu+0xc40>
    1d32:	4f2d      	ldr	r7, [pc, #180]	; (1de8 <pjpeg_decode_mcu+0x10d4>)
    1d34:	2300      	movs	r3, #0
    1d36:	217c      	movs	r1, #124	; 0x7c
    1d38:	527b      	strh	r3, [r7, r1]
    1d3a:	217e      	movs	r1, #126	; 0x7e
    1d3c:	527b      	strh	r3, [r7, r1]
    1d3e:	2180      	movs	r1, #128	; 0x80
    1d40:	527b      	strh	r3, [r7, r1]
    1d42:	1c3d      	adds	r5, r7, #0
    1d44:	4f29      	ldr	r7, [pc, #164]	; (1dec <pjpeg_decode_mcu+0x10d8>)
    1d46:	247a      	movs	r4, #122	; 0x7a
    1d48:	8afb      	ldrh	r3, [r7, #22]
    1d4a:	3201      	adds	r2, #1
    1d4c:	532b      	strh	r3, [r5, r4]
    1d4e:	9f05      	ldr	r7, [sp, #20]
    1d50:	2307      	movs	r3, #7
    1d52:	4d27      	ldr	r5, [pc, #156]	; (1df0 <pjpeg_decode_mcu+0x10dc>)
    1d54:	401a      	ands	r2, r3
    1d56:	2101      	movs	r1, #1
    1d58:	2308      	movs	r3, #8
    1d5a:	2008      	movs	r0, #8
    1d5c:	807a      	strh	r2, [r7, #2]
    1d5e:	742b      	strb	r3, [r5, #16]
    1d60:	f7fe fe10 	bl	984 <getBits>
    1d64:	2008      	movs	r0, #8
    1d66:	2101      	movs	r1, #1
    1d68:	f7fe fe0c 	bl	984 <getBits>
    1d6c:	4f1e      	ldr	r7, [pc, #120]	; (1de8 <pjpeg_decode_mcu+0x10d4>)
    1d6e:	5b3b      	ldrh	r3, [r7, r4]
    1d70:	f7ff f878 	bl	e64 <pjpeg_decode_mcu+0x150>
    1d74:	2100      	movs	r1, #0
    1d76:	e4e6      	b.n	1746 <pjpeg_decode_mcu+0xa32>
    1d78:	2300      	movs	r3, #0
    1d7a:	e7c6      	b.n	1d0a <pjpeg_decode_mcu+0xff6>
    1d7c:	2000      	movs	r0, #0
    1d7e:	e550      	b.n	1822 <pjpeg_decode_mcu+0xb0e>
    1d80:	2100      	movs	r1, #0
    1d82:	e4f0      	b.n	1766 <pjpeg_decode_mcu+0xa52>
    1d84:	2300      	movs	r3, #0
    1d86:	e504      	b.n	1792 <pjpeg_decode_mcu+0xa7e>
    1d88:	2300      	movs	r3, #0
    1d8a:	e45a      	b.n	1642 <pjpeg_decode_mcu+0x92e>
    1d8c:	2300      	movs	r3, #0
    1d8e:	e468      	b.n	1662 <pjpeg_decode_mcu+0x94e>
    1d90:	2100      	movs	r1, #0
    1d92:	e430      	b.n	15f6 <pjpeg_decode_mcu+0x8e2>
    1d94:	2100      	movs	r1, #0
    1d96:	e43e      	b.n	1616 <pjpeg_decode_mcu+0x902>
    1d98:	2100      	movs	r1, #0
    1d9a:	e745      	b.n	1c28 <pjpeg_decode_mcu+0xf14>
    1d9c:	2300      	movs	r3, #0
    1d9e:	e75b      	b.n	1c58 <pjpeg_decode_mcu+0xf44>
    1da0:	2300      	movs	r3, #0
    1da2:	e506      	b.n	17b2 <pjpeg_decode_mcu+0xa9e>
    1da4:	2100      	movs	r1, #0
    1da6:	e72f      	b.n	1c08 <pjpeg_decode_mcu+0xef4>
    1da8:	2000      	movs	r0, #0
    1daa:	e55d      	b.n	1868 <pjpeg_decode_mcu+0xb54>
    1dac:	2000      	movs	r0, #0
    1dae:	e5e2      	b.n	1976 <pjpeg_decode_mcu+0xc62>
    1db0:	2000      	movs	r0, #0
    1db2:	e56b      	b.n	188c <pjpeg_decode_mcu+0xb78>
    1db4:	2000      	movs	r0, #0
    1db6:	e5f0      	b.n	199a <pjpeg_decode_mcu+0xc86>
    1db8:	2100      	movs	r1, #0
    1dba:	e5a1      	b.n	1900 <pjpeg_decode_mcu+0xbec>
    1dbc:	2100      	movs	r1, #0
    1dbe:	e628      	b.n	1a12 <pjpeg_decode_mcu+0xcfe>
    1dc0:	2100      	movs	r1, #0
    1dc2:	e5ae      	b.n	1922 <pjpeg_decode_mcu+0xc0e>
    1dc4:	2100      	movs	r1, #0
    1dc6:	e636      	b.n	1a36 <pjpeg_decode_mcu+0xd22>
    1dc8:	2100      	movs	r1, #0
    1dca:	e576      	b.n	18ba <pjpeg_decode_mcu+0xba6>
    1dcc:	2000      	movs	r0, #0
    1dce:	e5f6      	b.n	19be <pjpeg_decode_mcu+0xcaa>
    1dd0:	2100      	movs	r1, #0
    1dd2:	e583      	b.n	18dc <pjpeg_decode_mcu+0xbc8>
    1dd4:	2100      	movs	r1, #0
    1dd6:	e60b      	b.n	19f0 <pjpeg_decode_mcu+0xcdc>
    1dd8:	40000900 	andmi	r0, r0, r0, lsl #18
    1ddc:	40000180 	andmi	r0, r0, r0, lsl #3
    1de0:	40000080 	andmi	r0, r0, r0, lsl #1
    1de4:	400000c0 	andmi	r0, r0, r0, asr #1
    1de8:	40000880 	andmi	r0, r0, r0, lsl #17
    1dec:	40000580 	andmi	r0, r0, r0, lsl #11
    1df0:	40000480 	andmi	r0, r0, r0, lsl #9

00001df4 <pjpeg_decode_init>:
    1df4:	b5f0      	push	{r4, r5, r6, r7, lr}
    1df6:	464d      	mov	r5, r9
    1df8:	4644      	mov	r4, r8
    1dfa:	4656      	mov	r6, sl
    1dfc:	465f      	mov	r7, fp
    1dfe:	b4f0      	push	{r4, r5, r6, r7}
    1e00:	4db6      	ldr	r5, [pc, #728]	; (20dc <pjpeg_decode_init+0x2e8>)
    1e02:	4eb7      	ldr	r6, [pc, #732]	; (20e0 <pjpeg_decode_init+0x2ec>)
    1e04:	6069      	str	r1, [r5, #4]
    1e06:	46a8      	mov	r8, r5
    1e08:	4db6      	ldr	r5, [pc, #728]	; (20e4 <pjpeg_decode_init+0x2f0>)
    1e0a:	49b7      	ldr	r1, [pc, #732]	; (20e8 <pjpeg_decode_init+0x2f4>)
    1e0c:	1c04      	adds	r4, r0, #0
    1e0e:	60aa      	str	r2, [r5, #8]
    1e10:	2000      	movs	r0, #0
    1e12:	76f3      	strb	r3, [r6, #27]
    1e14:	2222      	movs	r2, #34	; 0x22
    1e16:	2300      	movs	r3, #0
    1e18:	54b3      	strb	r3, [r6, r2]
    1e1a:	82c8      	strh	r0, [r1, #22]
    1e1c:	2223      	movs	r2, #35	; 0x23
    1e1e:	750b      	strb	r3, [r1, #20]
    1e20:	754b      	strb	r3, [r1, #21]
    1e22:	4689      	mov	r9, r1
    1e24:	4641      	mov	r1, r8
    1e26:	6020      	str	r0, [r4, #0]
    1e28:	54b3      	strb	r3, [r6, r2]
    1e2a:	704b      	strb	r3, [r1, #1]
    1e2c:	700b      	strb	r3, [r1, #0]
    1e2e:	b087      	sub	sp, #28
    1e30:	6060      	str	r0, [r4, #4]
    1e32:	60a0      	str	r0, [r4, #8]
    1e34:	60e0      	str	r0, [r4, #12]
    1e36:	6120      	str	r0, [r4, #16]
    1e38:	7520      	strb	r0, [r4, #20]
    1e3a:	61a0      	str	r0, [r4, #24]
    1e3c:	61e0      	str	r0, [r4, #28]
    1e3e:	6220      	str	r0, [r4, #32]
    1e40:	6260      	str	r0, [r4, #36]	; 0x24
    1e42:	62a0      	str	r0, [r4, #40]	; 0x28
    1e44:	7328      	strb	r0, [r5, #12]
    1e46:	83f0      	strh	r0, [r6, #30]
    1e48:	8430      	strh	r0, [r6, #32]
    1e4a:	736b      	strb	r3, [r5, #13]
    1e4c:	81e8      	strh	r0, [r5, #14]
    1e4e:	2308      	movs	r3, #8
    1e50:	2100      	movs	r1, #0
    1e52:	2008      	movs	r0, #8
    1e54:	742b      	strb	r3, [r5, #16]
    1e56:	f7fe fd95 	bl	984 <getBits>
    1e5a:	2008      	movs	r0, #8
    1e5c:	2100      	movs	r1, #0
    1e5e:	f7fe fd91 	bl	984 <getBits>
    1e62:	7b28      	ldrb	r0, [r5, #12]
    1e64:	2800      	cmp	r0, #0
    1e66:	d006      	beq.n	1e76 <pjpeg_decode_init+0x82>
    1e68:	b007      	add	sp, #28
    1e6a:	bc3c      	pop	{r2, r3, r4, r5}
    1e6c:	4690      	mov	r8, r2
    1e6e:	4699      	mov	r9, r3
    1e70:	46a2      	mov	sl, r4
    1e72:	46ab      	mov	fp, r5
    1e74:	bdf0      	pop	{r4, r5, r6, r7, pc}
    1e76:	2100      	movs	r1, #0
    1e78:	2008      	movs	r0, #8
    1e7a:	f7fe fd83 	bl	984 <getBits>
    1e7e:	2100      	movs	r1, #0
    1e80:	1c07      	adds	r7, r0, #0
    1e82:	2008      	movs	r0, #8
    1e84:	f7fe fd7e 	bl	984 <getBits>
    1e88:	b2ff      	uxtb	r7, r7
    1e8a:	b2c0      	uxtb	r0, r0
    1e8c:	4682      	mov	sl, r0
    1e8e:	2fff      	cmp	r7, #255	; 0xff
    1e90:	d100      	bne.n	1e94 <pjpeg_decode_init+0xa0>
    1e92:	e090      	b.n	1fb6 <pjpeg_decode_init+0x1c2>
    1e94:	1c23      	adds	r3, r4, #0
    1e96:	4f95      	ldr	r7, [pc, #596]	; (20ec <pjpeg_decode_init+0x2f8>)
    1e98:	4654      	mov	r4, sl
    1e9a:	469a      	mov	sl, r3
    1e9c:	e004      	b.n	1ea8 <pjpeg_decode_init+0xb4>
    1e9e:	3f01      	subs	r7, #1
    1ea0:	b2bf      	uxth	r7, r7
    1ea2:	2f00      	cmp	r7, #0
    1ea4:	d00b      	beq.n	1ebe <pjpeg_decode_init+0xca>
    1ea6:	1c04      	adds	r4, r0, #0
    1ea8:	2008      	movs	r0, #8
    1eaa:	2100      	movs	r1, #0
    1eac:	f7fe fd6a 	bl	984 <getBits>
    1eb0:	b2c0      	uxtb	r0, r0
    1eb2:	2cff      	cmp	r4, #255	; 0xff
    1eb4:	d1f3      	bne.n	1e9e <pjpeg_decode_init+0xaa>
    1eb6:	28d8      	cmp	r0, #216	; 0xd8
    1eb8:	d007      	beq.n	1eca <pjpeg_decode_init+0xd6>
    1eba:	28d9      	cmp	r0, #217	; 0xd9
    1ebc:	d1ef      	bne.n	1e9e <pjpeg_decode_init+0xaa>
    1ebe:	2013      	movs	r0, #19
    1ec0:	7b2b      	ldrb	r3, [r5, #12]
    1ec2:	2b00      	cmp	r3, #0
    1ec4:	d0d0      	beq.n	1e68 <pjpeg_decode_init+0x74>
    1ec6:	1c18      	adds	r0, r3, #0
    1ec8:	e7ce      	b.n	1e68 <pjpeg_decode_init+0x74>
    1eca:	89eb      	ldrh	r3, [r5, #14]
    1ecc:	4654      	mov	r4, sl
    1ece:	0a1b      	lsrs	r3, r3, #8
    1ed0:	2013      	movs	r0, #19
    1ed2:	2bff      	cmp	r3, #255	; 0xff
    1ed4:	d1f4      	bne.n	1ec0 <pjpeg_decode_init+0xcc>
    1ed6:	466f      	mov	r7, sp
    1ed8:	3717      	adds	r7, #23
    1eda:	1c38      	adds	r0, r7, #0
    1edc:	f7fe fdaa 	bl	a34 <processMarkers>
    1ee0:	2800      	cmp	r0, #0
    1ee2:	d1ed      	bne.n	1ec0 <pjpeg_decode_init+0xcc>
    1ee4:	783b      	ldrb	r3, [r7, #0]
    1ee6:	2bc2      	cmp	r3, #194	; 0xc2
    1ee8:	d06b      	beq.n	1fc2 <pjpeg_decode_init+0x1ce>
    1eea:	2bc9      	cmp	r3, #201	; 0xc9
    1eec:	d067      	beq.n	1fbe <pjpeg_decode_init+0x1ca>
    1eee:	2014      	movs	r0, #20
    1ef0:	2bc0      	cmp	r3, #192	; 0xc0
    1ef2:	d1e5      	bne.n	1ec0 <pjpeg_decode_init+0xcc>
    1ef4:	2100      	movs	r1, #0
    1ef6:	2010      	movs	r0, #16
    1ef8:	f7fe fd44 	bl	984 <getBits>
    1efc:	2100      	movs	r1, #0
    1efe:	4683      	mov	fp, r0
    1f00:	2008      	movs	r0, #8
    1f02:	f7fe fd3f 	bl	984 <getBits>
    1f06:	1c03      	adds	r3, r0, #0
    1f08:	2007      	movs	r0, #7
    1f0a:	2b08      	cmp	r3, #8
    1f0c:	d1d8      	bne.n	1ec0 <pjpeg_decode_init+0xcc>
    1f0e:	2010      	movs	r0, #16
    1f10:	2100      	movs	r1, #0
    1f12:	f7fe fd37 	bl	984 <getBits>
    1f16:	4a76      	ldr	r2, [pc, #472]	; (20f0 <pjpeg_decode_init+0x2fc>)
    1f18:	1e43      	subs	r3, r0, #1
    1f1a:	b29b      	uxth	r3, r3
    1f1c:	8430      	strh	r0, [r6, #32]
    1f1e:	4692      	mov	sl, r2
    1f20:	2008      	movs	r0, #8
    1f22:	4293      	cmp	r3, r2
    1f24:	d8cc      	bhi.n	1ec0 <pjpeg_decode_init+0xcc>
    1f26:	2010      	movs	r0, #16
    1f28:	2100      	movs	r1, #0
    1f2a:	f7fe fd2b 	bl	984 <getBits>
    1f2e:	1e43      	subs	r3, r0, #1
    1f30:	b29b      	uxth	r3, r3
    1f32:	83f0      	strh	r0, [r6, #30]
    1f34:	2009      	movs	r0, #9
    1f36:	4553      	cmp	r3, sl
    1f38:	d8c2      	bhi.n	1ec0 <pjpeg_decode_init+0xcc>
    1f3a:	2008      	movs	r0, #8
    1f3c:	2100      	movs	r1, #0
    1f3e:	f7fe fd21 	bl	984 <getBits>
    1f42:	2222      	movs	r2, #34	; 0x22
    1f44:	b2c3      	uxtb	r3, r0
    1f46:	54b3      	strb	r3, [r6, r2]
    1f48:	200a      	movs	r0, #10
    1f4a:	2b03      	cmp	r3, #3
    1f4c:	d8b8      	bhi.n	1ec0 <pjpeg_decode_init+0xcc>
    1f4e:	0059      	lsls	r1, r3, #1
    1f50:	185b      	adds	r3, r3, r1
    1f52:	3308      	adds	r3, #8
    1f54:	200b      	movs	r0, #11
    1f56:	459b      	cmp	fp, r3
    1f58:	d1b2      	bne.n	1ec0 <pjpeg_decode_init+0xcc>
    1f5a:	2300      	movs	r3, #0
    1f5c:	9303      	str	r3, [sp, #12]
    1f5e:	46b2      	mov	sl, r6
    1f60:	46a3      	mov	fp, r4
    1f62:	2322      	movs	r3, #34	; 0x22
    1f64:	5cf2      	ldrb	r2, [r6, r3]
    1f66:	9803      	ldr	r0, [sp, #12]
    1f68:	4290      	cmp	r0, r2
    1f6a:	d22e      	bcs.n	1fca <pjpeg_decode_init+0x1d6>
    1f6c:	2100      	movs	r1, #0
    1f6e:	2008      	movs	r0, #8
    1f70:	f7fe fd08 	bl	984 <getBits>
    1f74:	9903      	ldr	r1, [sp, #12]
    1f76:	1c0c      	adds	r4, r1, #0
    1f78:	4454      	add	r4, sl
    1f7a:	1c23      	adds	r3, r4, #0
    1f7c:	3324      	adds	r3, #36	; 0x24
    1f7e:	7018      	strb	r0, [r3, #0]
    1f80:	2100      	movs	r1, #0
    1f82:	2004      	movs	r0, #4
    1f84:	f7fe fcfe 	bl	984 <getBits>
    1f88:	1c23      	adds	r3, r4, #0
    1f8a:	3328      	adds	r3, #40	; 0x28
    1f8c:	7018      	strb	r0, [r3, #0]
    1f8e:	2100      	movs	r1, #0
    1f90:	2004      	movs	r0, #4
    1f92:	f7fe fcf7 	bl	984 <getBits>
    1f96:	1c23      	adds	r3, r4, #0
    1f98:	332c      	adds	r3, #44	; 0x2c
    1f9a:	7018      	strb	r0, [r3, #0]
    1f9c:	2100      	movs	r1, #0
    1f9e:	2008      	movs	r0, #8
    1fa0:	f7fe fcf0 	bl	984 <getBits>
    1fa4:	b2c0      	uxtb	r0, r0
    1fa6:	7520      	strb	r0, [r4, #20]
    1fa8:	2801      	cmp	r0, #1
    1faa:	d80c      	bhi.n	1fc6 <pjpeg_decode_init+0x1d2>
    1fac:	9b03      	ldr	r3, [sp, #12]
    1fae:	3301      	adds	r3, #1
    1fb0:	b2db      	uxtb	r3, r3
    1fb2:	9303      	str	r3, [sp, #12]
    1fb4:	e7d5      	b.n	1f62 <pjpeg_decode_init+0x16e>
    1fb6:	28d8      	cmp	r0, #216	; 0xd8
    1fb8:	d000      	beq.n	1fbc <pjpeg_decode_init+0x1c8>
    1fba:	e76b      	b.n	1e94 <pjpeg_decode_init+0xa0>
    1fbc:	e78b      	b.n	1ed6 <pjpeg_decode_init+0xe2>
    1fbe:	2011      	movs	r0, #17
    1fc0:	e77e      	b.n	1ec0 <pjpeg_decode_init+0xcc>
    1fc2:	2025      	movs	r0, #37	; 0x25
    1fc4:	e77c      	b.n	1ec0 <pjpeg_decode_init+0xcc>
    1fc6:	2024      	movs	r0, #36	; 0x24
    1fc8:	e77a      	b.n	1ec0 <pjpeg_decode_init+0xcc>
    1fca:	7b2b      	ldrb	r3, [r5, #12]
    1fcc:	465c      	mov	r4, fp
    1fce:	2b00      	cmp	r3, #0
    1fd0:	d000      	beq.n	1fd4 <pjpeg_decode_init+0x1e0>
    1fd2:	e778      	b.n	1ec6 <pjpeg_decode_init+0xd2>
    1fd4:	2a01      	cmp	r2, #1
    1fd6:	d069      	beq.n	20ac <pjpeg_decode_init+0x2b8>
    1fd8:	201a      	movs	r0, #26
    1fda:	2a03      	cmp	r2, #3
    1fdc:	d000      	beq.n	1fe0 <pjpeg_decode_init+0x1ec>
    1fde:	e743      	b.n	1e68 <pjpeg_decode_init+0x74>
    1fe0:	2329      	movs	r3, #41	; 0x29
    1fe2:	4652      	mov	r2, sl
    1fe4:	5cd3      	ldrb	r3, [r2, r3]
    1fe6:	201b      	movs	r0, #27
    1fe8:	2b01      	cmp	r3, #1
    1fea:	d000      	beq.n	1fee <pjpeg_decode_init+0x1fa>
    1fec:	e73c      	b.n	1e68 <pjpeg_decode_init+0x74>
    1fee:	232d      	movs	r3, #45	; 0x2d
    1ff0:	5cd3      	ldrb	r3, [r2, r3]
    1ff2:	2b01      	cmp	r3, #1
    1ff4:	d000      	beq.n	1ff8 <pjpeg_decode_init+0x204>
    1ff6:	e737      	b.n	1e68 <pjpeg_decode_init+0x74>
    1ff8:	232a      	movs	r3, #42	; 0x2a
    1ffa:	5cd3      	ldrb	r3, [r2, r3]
    1ffc:	2b01      	cmp	r3, #1
    1ffe:	d000      	beq.n	2002 <pjpeg_decode_init+0x20e>
    2000:	e732      	b.n	1e68 <pjpeg_decode_init+0x74>
    2002:	232e      	movs	r3, #46	; 0x2e
    2004:	5cd3      	ldrb	r3, [r2, r3]
    2006:	2b01      	cmp	r3, #1
    2008:	d000      	beq.n	200c <pjpeg_decode_init+0x218>
    200a:	e72d      	b.n	1e68 <pjpeg_decode_init+0x74>
    200c:	2328      	movs	r3, #40	; 0x28
    200e:	5cd3      	ldrb	r3, [r2, r3]
    2010:	2b01      	cmp	r3, #1
    2012:	d100      	bne.n	2016 <pjpeg_decode_init+0x222>
    2014:	e0cd      	b.n	21b2 <pjpeg_decode_init+0x3be>
    2016:	2b02      	cmp	r3, #2
    2018:	d000      	beq.n	201c <pjpeg_decode_init+0x228>
    201a:	e725      	b.n	1e68 <pjpeg_decode_init+0x74>
    201c:	232c      	movs	r3, #44	; 0x2c
    201e:	5cf3      	ldrb	r3, [r6, r3]
    2020:	2b01      	cmp	r3, #1
    2022:	d100      	bne.n	2026 <pjpeg_decode_init+0x232>
    2024:	e0b5      	b.n	2192 <pjpeg_decode_init+0x39e>
    2026:	201b      	movs	r0, #27
    2028:	2b02      	cmp	r3, #2
    202a:	d000      	beq.n	202e <pjpeg_decode_init+0x23a>
    202c:	e71c      	b.n	1e68 <pjpeg_decode_init+0x74>
    202e:	2204      	movs	r2, #4
    2030:	7732      	strb	r2, [r6, #28]
    2032:	2206      	movs	r2, #6
    2034:	7132      	strb	r2, [r6, #4]
    2036:	2200      	movs	r2, #0
    2038:	7232      	strb	r2, [r6, #8]
    203a:	7272      	strb	r2, [r6, #9]
    203c:	72b2      	strb	r2, [r6, #10]
    203e:	72f2      	strb	r2, [r6, #11]
    2040:	2201      	movs	r2, #1
    2042:	7332      	strb	r2, [r6, #12]
    2044:	7373      	strb	r3, [r6, #13]
    2046:	222f      	movs	r2, #47	; 0x2f
    2048:	2310      	movs	r3, #16
    204a:	54b3      	strb	r3, [r6, r2]
    204c:	2230      	movs	r2, #48	; 0x30
    204e:	54b3      	strb	r3, [r6, r2]
    2050:	232f      	movs	r3, #47	; 0x2f
    2052:	5cf3      	ldrb	r3, [r6, r3]
    2054:	8bf1      	ldrh	r1, [r6, #30]
    2056:	1e5a      	subs	r2, r3, #1
    2058:	3b08      	subs	r3, #8
    205a:	188a      	adds	r2, r1, r2
    205c:	1e59      	subs	r1, r3, #1
    205e:	418b      	sbcs	r3, r1
    2060:	3303      	adds	r3, #3
    2062:	411a      	asrs	r2, r3
    2064:	2330      	movs	r3, #48	; 0x30
    2066:	5cf1      	ldrb	r1, [r6, r3]
    2068:	8c30      	ldrh	r0, [r6, #32]
    206a:	1e4b      	subs	r3, r1, #1
    206c:	18c0      	adds	r0, r0, r3
    206e:	3b07      	subs	r3, #7
    2070:	1e59      	subs	r1, r3, #1
    2072:	418b      	sbcs	r3, r1
    2074:	3303      	adds	r3, #3
    2076:	4118      	asrs	r0, r3
    2078:	b292      	uxth	r2, r2
    207a:	b283      	uxth	r3, r0
    207c:	86b3      	strh	r3, [r6, #52]	; 0x34
    207e:	4353      	muls	r3, r2
    2080:	481c      	ldr	r0, [pc, #112]	; (20f4 <pjpeg_decode_init+0x300>)
    2082:	2178      	movs	r1, #120	; 0x78
    2084:	5243      	strh	r3, [r0, r1]
    2086:	1c38      	adds	r0, r7, #0
    2088:	8672      	strh	r2, [r6, #50]	; 0x32
    208a:	f7fe fcd3 	bl	a34 <processMarkers>
    208e:	4682      	mov	sl, r0
    2090:	2800      	cmp	r0, #0
    2092:	d120      	bne.n	20d6 <pjpeg_decode_init+0x2e2>
    2094:	783a      	ldrb	r2, [r7, #0]
    2096:	2312      	movs	r3, #18
    2098:	2ad9      	cmp	r2, #217	; 0xd9
    209a:	d001      	beq.n	20a0 <pjpeg_decode_init+0x2ac>
    209c:	2ada      	cmp	r2, #218	; 0xda
    209e:	d02b      	beq.n	20f8 <pjpeg_decode_init+0x304>
    20a0:	7b28      	ldrb	r0, [r5, #12]
    20a2:	2800      	cmp	r0, #0
    20a4:	d000      	beq.n	20a8 <pjpeg_decode_init+0x2b4>
    20a6:	e6df      	b.n	1e68 <pjpeg_decode_init+0x74>
    20a8:	1c18      	adds	r0, r3, #0
    20aa:	e6dd      	b.n	1e68 <pjpeg_decode_init+0x74>
    20ac:	2228      	movs	r2, #40	; 0x28
    20ae:	4651      	mov	r1, sl
    20b0:	5c8a      	ldrb	r2, [r1, r2]
    20b2:	201b      	movs	r0, #27
    20b4:	2a01      	cmp	r2, #1
    20b6:	d000      	beq.n	20ba <pjpeg_decode_init+0x2c6>
    20b8:	e6d6      	b.n	1e68 <pjpeg_decode_init+0x74>
    20ba:	222c      	movs	r2, #44	; 0x2c
    20bc:	5c8a      	ldrb	r2, [r1, r2]
    20be:	2a01      	cmp	r2, #1
    20c0:	d000      	beq.n	20c4 <pjpeg_decode_init+0x2d0>
    20c2:	e6d1      	b.n	1e68 <pjpeg_decode_init+0x74>
    20c4:	770b      	strb	r3, [r1, #28]
    20c6:	710a      	strb	r2, [r1, #4]
    20c8:	720b      	strb	r3, [r1, #8]
    20ca:	222f      	movs	r2, #47	; 0x2f
    20cc:	2308      	movs	r3, #8
    20ce:	548b      	strb	r3, [r1, r2]
    20d0:	2230      	movs	r2, #48	; 0x30
    20d2:	548b      	strb	r3, [r1, r2]
    20d4:	e7bc      	b.n	2050 <pjpeg_decode_init+0x25c>
    20d6:	1c03      	adds	r3, r0, #0
    20d8:	e7e2      	b.n	20a0 <pjpeg_decode_init+0x2ac>
    20da:	46c0      	nop			; (mov r8, r8)
    20dc:	40000380 	andmi	r0, r0, r0, lsl #7
    20e0:	40000900 	andmi	r0, r0, r0, lsl #18
    20e4:	40000480 	andmi	r0, r0, r0, lsl #9
    20e8:	40000580 	andmi	r0, r0, r0, lsl #11
    20ec:	00000fff 	strdeq	r0, [r0], -pc	; <UNPREDICTABLE>
    20f0:	00003fff 	strdeq	r3, [r0], -pc	; <UNPREDICTABLE>
    20f4:	40000880 	andmi	r0, r0, r0, lsl #17
    20f8:	4651      	mov	r1, sl
    20fa:	2010      	movs	r0, #16
    20fc:	f7fe fc42 	bl	984 <getBits>
    2100:	4651      	mov	r1, sl
    2102:	1c07      	adds	r7, r0, #0
    2104:	2008      	movs	r0, #8
    2106:	f7fe fc3d 	bl	984 <getBits>
    210a:	b2c0      	uxtb	r0, r0
    210c:	3f03      	subs	r7, #3
    210e:	0041      	lsls	r1, r0, #1
    2110:	2223      	movs	r2, #35	; 0x23
    2112:	b2bf      	uxth	r7, r7
    2114:	3103      	adds	r1, #3
    2116:	54b0      	strb	r0, [r6, r2]
    2118:	230e      	movs	r3, #14
    211a:	428f      	cmp	r7, r1
    211c:	d1c0      	bne.n	20a0 <pjpeg_decode_init+0x2ac>
    211e:	3801      	subs	r0, #1
    2120:	b2c0      	uxtb	r0, r0
    2122:	2802      	cmp	r0, #2
    2124:	d8bc      	bhi.n	20a0 <pjpeg_decode_init+0x2ac>
    2126:	1c23      	adds	r3, r4, #0
    2128:	4654      	mov	r4, sl
    212a:	469a      	mov	sl, r3
    212c:	2223      	movs	r2, #35	; 0x23
    212e:	5cb3      	ldrb	r3, [r6, r2]
    2130:	42a3      	cmp	r3, r4
    2132:	d967      	bls.n	2204 <pjpeg_decode_init+0x410>
    2134:	2100      	movs	r1, #0
    2136:	2008      	movs	r0, #8
    2138:	f7fe fc24 	bl	984 <getBits>
    213c:	b2c0      	uxtb	r0, r0
    213e:	9003      	str	r0, [sp, #12]
    2140:	2100      	movs	r1, #0
    2142:	2008      	movs	r0, #8
    2144:	f7fe fc1e 	bl	984 <getBits>
    2148:	2322      	movs	r3, #34	; 0x22
    214a:	5cf1      	ldrb	r1, [r6, r3]
    214c:	b2c0      	uxtb	r0, r0
    214e:	3f02      	subs	r7, #2
    2150:	b2bf      	uxth	r7, r7
    2152:	2300      	movs	r3, #0
    2154:	9001      	str	r0, [sp, #4]
    2156:	468b      	mov	fp, r1
    2158:	b2da      	uxtb	r2, r3
    215a:	455a      	cmp	r2, fp
    215c:	d250      	bcs.n	2200 <pjpeg_decode_init+0x40c>
    215e:	4988      	ldr	r1, [pc, #544]	; (2380 <pjpeg_decode_init+0x58c>)
    2160:	469c      	mov	ip, r3
    2162:	3301      	adds	r3, #1
    2164:	18c8      	adds	r0, r1, r3
    2166:	1e41      	subs	r1, r0, #1
    2168:	7809      	ldrb	r1, [r1, #0]
    216a:	9803      	ldr	r0, [sp, #12]
    216c:	4281      	cmp	r1, r0
    216e:	d1f3      	bne.n	2158 <pjpeg_decode_init+0x364>
    2170:	4659      	mov	r1, fp
    2172:	9801      	ldr	r0, [sp, #4]
    2174:	4291      	cmp	r1, r2
    2176:	d943      	bls.n	2200 <pjpeg_decode_init+0x40c>
    2178:	1933      	adds	r3, r6, r4
    217a:	3338      	adds	r3, #56	; 0x38
    217c:	4661      	mov	r1, ip
    217e:	701a      	strb	r2, [r3, #0]
    2180:	0902      	lsrs	r2, r0, #4
    2182:	1873      	adds	r3, r6, r1
    2184:	741a      	strb	r2, [r3, #16]
    2186:	220f      	movs	r2, #15
    2188:	4010      	ands	r0, r2
    218a:	3401      	adds	r4, #1
    218c:	7618      	strb	r0, [r3, #24]
    218e:	b2e4      	uxtb	r4, r4
    2190:	e7cc      	b.n	212c <pjpeg_decode_init+0x338>
    2192:	2202      	movs	r2, #2
    2194:	2104      	movs	r1, #4
    2196:	7732      	strb	r2, [r6, #28]
    2198:	72b3      	strb	r3, [r6, #10]
    219a:	72f2      	strb	r2, [r6, #11]
    219c:	232f      	movs	r3, #47	; 0x2f
    219e:	2210      	movs	r2, #16
    21a0:	54f2      	strb	r2, [r6, r3]
    21a2:	7131      	strb	r1, [r6, #4]
    21a4:	2208      	movs	r2, #8
    21a6:	2100      	movs	r1, #0
    21a8:	2330      	movs	r3, #48	; 0x30
    21aa:	7231      	strb	r1, [r6, #8]
    21ac:	7271      	strb	r1, [r6, #9]
    21ae:	54f2      	strb	r2, [r6, r3]
    21b0:	e74e      	b.n	2050 <pjpeg_decode_init+0x25c>
    21b2:	232c      	movs	r3, #44	; 0x2c
    21b4:	5cd3      	ldrb	r3, [r2, r3]
    21b6:	2b01      	cmp	r3, #1
    21b8:	d014      	beq.n	21e4 <pjpeg_decode_init+0x3f0>
    21ba:	201b      	movs	r0, #27
    21bc:	2b02      	cmp	r3, #2
    21be:	d000      	beq.n	21c2 <pjpeg_decode_init+0x3ce>
    21c0:	e652      	b.n	1e68 <pjpeg_decode_init+0x74>
    21c2:	2203      	movs	r2, #3
    21c4:	7732      	strb	r2, [r6, #28]
    21c6:	2204      	movs	r2, #4
    21c8:	7132      	strb	r2, [r6, #4]
    21ca:	2200      	movs	r2, #0
    21cc:	7232      	strb	r2, [r6, #8]
    21ce:	7272      	strb	r2, [r6, #9]
    21d0:	2201      	movs	r2, #1
    21d2:	72b2      	strb	r2, [r6, #10]
    21d4:	72f3      	strb	r3, [r6, #11]
    21d6:	2208      	movs	r2, #8
    21d8:	232f      	movs	r3, #47	; 0x2f
    21da:	54f2      	strb	r2, [r6, r3]
    21dc:	2210      	movs	r2, #16
    21de:	2330      	movs	r3, #48	; 0x30
    21e0:	54f2      	strb	r2, [r6, r3]
    21e2:	e735      	b.n	2050 <pjpeg_decode_init+0x25c>
    21e4:	2203      	movs	r2, #3
    21e6:	7733      	strb	r3, [r6, #28]
    21e8:	7132      	strb	r2, [r6, #4]
    21ea:	7273      	strb	r3, [r6, #9]
    21ec:	2200      	movs	r2, #0
    21ee:	2302      	movs	r3, #2
    21f0:	7232      	strb	r2, [r6, #8]
    21f2:	72b3      	strb	r3, [r6, #10]
    21f4:	222f      	movs	r2, #47	; 0x2f
    21f6:	2308      	movs	r3, #8
    21f8:	54b3      	strb	r3, [r6, r2]
    21fa:	2230      	movs	r2, #48	; 0x30
    21fc:	54b3      	strb	r3, [r6, r2]
    21fe:	e727      	b.n	2050 <pjpeg_decode_init+0x25c>
    2200:	230f      	movs	r3, #15
    2202:	e74d      	b.n	20a0 <pjpeg_decode_init+0x2ac>
    2204:	2100      	movs	r1, #0
    2206:	2008      	movs	r0, #8
    2208:	f7fe fbbc 	bl	984 <getBits>
    220c:	2100      	movs	r1, #0
    220e:	2008      	movs	r0, #8
    2210:	f7fe fbb8 	bl	984 <getBits>
    2214:	2100      	movs	r1, #0
    2216:	2004      	movs	r0, #4
    2218:	f7fe fbb4 	bl	984 <getBits>
    221c:	2004      	movs	r0, #4
    221e:	2100      	movs	r1, #0
    2220:	f7fe fbb0 	bl	984 <getBits>
    2224:	3f03      	subs	r7, #3
    2226:	4654      	mov	r4, sl
    2228:	b2bf      	uxth	r7, r7
    222a:	2f00      	cmp	r7, #0
    222c:	d006      	beq.n	223c <pjpeg_decode_init+0x448>
    222e:	2008      	movs	r0, #8
    2230:	2100      	movs	r1, #0
    2232:	3f01      	subs	r7, #1
    2234:	f7fe fba6 	bl	984 <getBits>
    2238:	b2bf      	uxth	r7, r7
    223a:	e7f6      	b.n	222a <pjpeg_decode_init+0x436>
    223c:	2323      	movs	r3, #35	; 0x23
    223e:	5cf2      	ldrb	r2, [r6, r3]
    2240:	2a00      	cmp	r2, #0
    2242:	d049      	beq.n	22d8 <pjpeg_decode_init+0x4e4>
    2244:	2338      	movs	r3, #56	; 0x38
    2246:	5cf7      	ldrb	r7, [r6, r3]
    2248:	464b      	mov	r3, r9
    224a:	19f7      	adds	r7, r6, r7
    224c:	7d18      	ldrb	r0, [r3, #20]
    224e:	7e3b      	ldrb	r3, [r7, #24]
    2250:	2101      	movs	r1, #1
    2252:	3302      	adds	r3, #2
    2254:	b2db      	uxtb	r3, r3
    2256:	468a      	mov	sl, r1
    2258:	7c3f      	ldrb	r7, [r7, #16]
    225a:	4099      	lsls	r1, r3
    225c:	468c      	mov	ip, r1
    225e:	4651      	mov	r1, sl
    2260:	40b9      	lsls	r1, r7
    2262:	4663      	mov	r3, ip
    2264:	430b      	orrs	r3, r1
    2266:	1c01      	adds	r1, r0, #0
    2268:	4019      	ands	r1, r3
    226a:	428b      	cmp	r3, r1
    226c:	d000      	beq.n	2270 <pjpeg_decode_init+0x47c>
    226e:	e085      	b.n	237c <pjpeg_decode_init+0x588>
    2270:	1c33      	adds	r3, r6, #0
    2272:	1e51      	subs	r1, r2, #1
    2274:	3339      	adds	r3, #57	; 0x39
    2276:	b2c9      	uxtb	r1, r1
    2278:	18c9      	adds	r1, r1, r3
    227a:	468c      	mov	ip, r1
    227c:	4692      	mov	sl, r2
    227e:	e011      	b.n	22a4 <pjpeg_decode_init+0x4b0>
    2280:	781f      	ldrb	r7, [r3, #0]
    2282:	2101      	movs	r1, #1
    2284:	19f7      	adds	r7, r6, r7
    2286:	7e3a      	ldrb	r2, [r7, #24]
    2288:	3301      	adds	r3, #1
    228a:	3202      	adds	r2, #2
    228c:	b2d2      	uxtb	r2, r2
    228e:	4091      	lsls	r1, r2
    2290:	7c3a      	ldrb	r2, [r7, #16]
    2292:	2701      	movs	r7, #1
    2294:	4097      	lsls	r7, r2
    2296:	1c3a      	adds	r2, r7, #0
    2298:	1c0f      	adds	r7, r1, #0
    229a:	4317      	orrs	r7, r2
    229c:	1c02      	adds	r2, r0, #0
    229e:	403a      	ands	r2, r7
    22a0:	4297      	cmp	r7, r2
    22a2:	d16b      	bne.n	237c <pjpeg_decode_init+0x588>
    22a4:	4563      	cmp	r3, ip
    22a6:	d1eb      	bne.n	2280 <pjpeg_decode_init+0x48c>
    22a8:	4649      	mov	r1, r9
    22aa:	2702      	movs	r7, #2
    22ac:	4652      	mov	r2, sl
    22ae:	7d48      	ldrb	r0, [r1, #21]
    22b0:	2300      	movs	r3, #0
    22b2:	46bb      	mov	fp, r7
    22b4:	e003      	b.n	22be <pjpeg_decode_init+0x4ca>
    22b6:	3301      	adds	r3, #1
    22b8:	b2df      	uxtb	r7, r3
    22ba:	42ba      	cmp	r2, r7
    22bc:	d90c      	bls.n	22d8 <pjpeg_decode_init+0x4e4>
    22be:	1c37      	adds	r7, r6, #0
    22c0:	3738      	adds	r7, #56	; 0x38
    22c2:	5ddf      	ldrb	r7, [r3, r7]
    22c4:	19f7      	adds	r7, r6, r7
    22c6:	7d3f      	ldrb	r7, [r7, #20]
    22c8:	4279      	negs	r1, r7
    22ca:	4179      	adcs	r1, r7
    22cc:	465f      	mov	r7, fp
    22ce:	1a7f      	subs	r7, r7, r1
    22d0:	4238      	tst	r0, r7
    22d2:	d1f0      	bne.n	22b6 <pjpeg_decode_init+0x4c2>
    22d4:	2317      	movs	r3, #23
    22d6:	e6e3      	b.n	20a0 <pjpeg_decode_init+0x2ac>
    22d8:	4f2a      	ldr	r7, [pc, #168]	; (2384 <pjpeg_decode_init+0x590>)
    22da:	2300      	movs	r3, #0
    22dc:	227c      	movs	r2, #124	; 0x7c
    22de:	52bb      	strh	r3, [r7, r2]
    22e0:	227e      	movs	r2, #126	; 0x7e
    22e2:	52bb      	strh	r3, [r7, r2]
    22e4:	4648      	mov	r0, r9
    22e6:	2280      	movs	r2, #128	; 0x80
    22e8:	52bb      	strh	r3, [r7, r2]
    22ea:	8ac2      	ldrh	r2, [r0, #22]
    22ec:	429a      	cmp	r2, r3
    22ee:	d003      	beq.n	22f8 <pjpeg_decode_init+0x504>
    22f0:	4f24      	ldr	r7, [pc, #144]	; (2384 <pjpeg_decode_init+0x590>)
    22f2:	217a      	movs	r1, #122	; 0x7a
    22f4:	527a      	strh	r2, [r7, r1]
    22f6:	8073      	strh	r3, [r6, #2]
    22f8:	7c2b      	ldrb	r3, [r5, #16]
    22fa:	2b00      	cmp	r3, #0
    22fc:	d00a      	beq.n	2314 <pjpeg_decode_init+0x520>
    22fe:	4640      	mov	r0, r8
    2300:	7843      	ldrb	r3, [r0, #1]
    2302:	7baa      	ldrb	r2, [r5, #14]
    2304:	3b01      	subs	r3, #1
    2306:	b2db      	uxtb	r3, r3
    2308:	7043      	strb	r3, [r0, #1]
    230a:	4443      	add	r3, r8
    230c:	721a      	strb	r2, [r3, #8]
    230e:	7803      	ldrb	r3, [r0, #0]
    2310:	3301      	adds	r3, #1
    2312:	7003      	strb	r3, [r0, #0]
    2314:	4641      	mov	r1, r8
    2316:	784b      	ldrb	r3, [r1, #1]
    2318:	89ea      	ldrh	r2, [r5, #14]
    231a:	3b01      	subs	r3, #1
    231c:	b2db      	uxtb	r3, r3
    231e:	704b      	strb	r3, [r1, #1]
    2320:	0a12      	lsrs	r2, r2, #8
    2322:	4443      	add	r3, r8
    2324:	721a      	strb	r2, [r3, #8]
    2326:	780b      	ldrb	r3, [r1, #0]
    2328:	2708      	movs	r7, #8
    232a:	3301      	adds	r3, #1
    232c:	700b      	strb	r3, [r1, #0]
    232e:	1c38      	adds	r0, r7, #0
    2330:	2101      	movs	r1, #1
    2332:	742f      	strb	r7, [r5, #16]
    2334:	f7fe fb26 	bl	984 <getBits>
    2338:	1c38      	adds	r0, r7, #0
    233a:	2101      	movs	r1, #1
    233c:	f7fe fb22 	bl	984 <getBits>
    2340:	7b28      	ldrb	r0, [r5, #12]
    2342:	2800      	cmp	r0, #0
    2344:	d000      	beq.n	2348 <pjpeg_decode_init+0x554>
    2346:	e58f      	b.n	1e68 <pjpeg_decode_init+0x74>
    2348:	8bf3      	ldrh	r3, [r6, #30]
    234a:	6023      	str	r3, [r4, #0]
    234c:	8c33      	ldrh	r3, [r6, #32]
    234e:	6063      	str	r3, [r4, #4]
    2350:	2322      	movs	r3, #34	; 0x22
    2352:	5cf3      	ldrb	r3, [r6, r3]
    2354:	60a3      	str	r3, [r4, #8]
    2356:	7f33      	ldrb	r3, [r6, #28]
    2358:	7523      	strb	r3, [r4, #20]
    235a:	8e73      	ldrh	r3, [r6, #50]	; 0x32
    235c:	60e3      	str	r3, [r4, #12]
    235e:	8eb3      	ldrh	r3, [r6, #52]	; 0x34
    2360:	6123      	str	r3, [r4, #16]
    2362:	232f      	movs	r3, #47	; 0x2f
    2364:	5cf3      	ldrb	r3, [r6, r3]
    2366:	61a3      	str	r3, [r4, #24]
    2368:	2330      	movs	r3, #48	; 0x30
    236a:	5cf3      	ldrb	r3, [r6, r3]
    236c:	61e3      	str	r3, [r4, #28]
    236e:	4b06      	ldr	r3, [pc, #24]	; (2388 <pjpeg_decode_init+0x594>)
    2370:	6223      	str	r3, [r4, #32]
    2372:	4b06      	ldr	r3, [pc, #24]	; (238c <pjpeg_decode_init+0x598>)
    2374:	6263      	str	r3, [r4, #36]	; 0x24
    2376:	4b06      	ldr	r3, [pc, #24]	; (2390 <pjpeg_decode_init+0x59c>)
    2378:	62a3      	str	r3, [r4, #40]	; 0x28
    237a:	e575      	b.n	1e68 <pjpeg_decode_init+0x74>
    237c:	2318      	movs	r3, #24
    237e:	e68f      	b.n	20a0 <pjpeg_decode_init+0x2ac>
    2380:	40000924 	andmi	r0, r0, r4, lsr #18
    2384:	40000880 	andmi	r0, r0, r0, lsl #17
    2388:	40000280 	andmi	r0, r0, r0, lsl #5
    238c:	40000080 	andmi	r0, r0, r0, lsl #1
    2390:	40000180 	andmi	r0, r0, r0, lsl #3

00002394 <uart_send>:
    2394:	b508      	push	{r3, lr}
    2396:	1c01      	adds	r1, r0, #0
    2398:	20e0      	movs	r0, #224	; 0xe0
    239a:	0600      	lsls	r0, r0, #24
    239c:	f7fd fe5d 	bl	5a <PUT32>
    23a0:	bd08      	pop	{r3, pc}
    23a2:	46c0      	nop			; (mov r8, r8)

000023a4 <uart_recv>:
    23a4:	2020      	movs	r0, #32
    23a6:	4770      	bx	lr

000023a8 <uart_init>:
    23a8:	4770      	bx	lr
    23aa:	46c0      	nop			; (mov r8, r8)

000023ac <uart_fifo_flush>:
    23ac:	4770      	bx	lr
    23ae:	46c0      	nop			; (mov r8, r8)

Disassembly of section .rodata:

000023b0 <jpegdata>:
    23b0:	e0ffd8ff 	ldrsht	sp, [pc], #143
    23b4:	464a1000 	strbmi	r1, [sl], -r0
    23b8:	01004649 	tsteq	r0, r9, asr #12
    23bc:	48000101 	stmdami	r0, {r0, r8}
    23c0:	00004800 	andeq	r4, r0, r0, lsl #16
    23c4:	1300feff 	movwne	pc, #3839	; 0xeff	; <UNPREDICTABLE>
    23c8:	61657243 	cmnvs	r5, r3, asr #4
    23cc:	20646574 	rsbcs	r6, r4, r4, ror r5
    23d0:	68746977 	ldmdavs	r4!, {r0, r1, r2, r4, r5, r6, r8, fp, sp, lr}^
    23d4:	4d494720 	stclmi	7, cr4, [r9, #-128]	; 0xffffff80
    23d8:	00dbff50 	sbcseq	pc, fp, r0, asr pc	; <UNPREDICTABLE>
    23dc:	02030043 	andeq	r0, r3, #67	; 0x43
    23e0:	02020302 	andeq	r0, r2, #134217728	; 0x8000000
    23e4:	03030303 	movweq	r0, #13059	; 0x3303
    23e8:	04030304 	streq	r0, [r3], #-772	; 0x304
    23ec:	05050805 	streq	r0, [r5, #-2053]	; 0x805
    23f0:	0a050404 	beq	143408 <ZAG+0x1355f0>
    23f4:	08060707 	stmdaeq	r6, {r0, r1, r2, r8, r9, sl}
    23f8:	0c0c0a0c 	stceq	10, cr0, [ip], {12}
    23fc:	0b0b0a0b 	bleq	2c4c30 <ZAG+0x2b6e18>
    2400:	10120e0d 	andsne	r0, r2, sp, lsl #28
    2404:	0e110e0d 	cdpeq	14, 1, cr0, cr1, cr13, {0}
    2408:	16100b0b 	ldrne	r0, [r0], -fp, lsl #22
    240c:	14131110 	ldrne	r1, [r3], #-272	; 0x110
    2410:	0c151515 	cfldr32eq	mvfx1, [r5], {21}
    2414:	1618170f 	ldrne	r1, [r8], -pc, lsl #14
    2418:	14121814 	ldrne	r1, [r2], #-2068	; 0x814
    241c:	dbff1415 	blle	fffc7478 <end+0xbfec7478>
    2420:	03014300 	movweq	r4, #4864	; 0x1300
    2424:	04050404 	streq	r0, [r5], #-1028	; 0x404
    2428:	05050905 	streq	r0, [r5, #-2309]	; 0x905
    242c:	0b0d1409 	bleq	347458 <ZAG+0x339640>
    2430:	1414140d 	ldrne	r1, [r4], #-1037	; 0x40d
    2434:	14141414 	ldrne	r1, [r4], #-1044	; 0x414
    2438:	14141414 	ldrne	r1, [r4], #-1044	; 0x414
    243c:	14141414 	ldrne	r1, [r4], #-1044	; 0x414
    2440:	14141414 	ldrne	r1, [r4], #-1044	; 0x414
    2444:	14141414 	ldrne	r1, [r4], #-1044	; 0x414
    2448:	14141414 	ldrne	r1, [r4], #-1044	; 0x414
    244c:	14141414 	ldrne	r1, [r4], #-1044	; 0x414
    2450:	14141414 	ldrne	r1, [r4], #-1044	; 0x414
    2454:	14141414 	ldrne	r1, [r4], #-1044	; 0x414
    2458:	14141414 	ldrne	r1, [r4], #-1044	; 0x414
    245c:	14141414 	ldrne	r1, [r4], #-1044	; 0x414
    2460:	ff141414 			; <UNDEFINED> instruction: 0xff141414
    2464:	081100c0 	ldmdaeq	r1, {r6, r7}
    2468:	00018000 	andeq	r8, r1, r0
    246c:	00110103 	andseq	r0, r1, r3, lsl #2
    2470:	03011102 	movweq	r1, #4354	; 0x1102
    2474:	c4ff0111 	ldrbtgt	r0, [pc], #273	; 247c <jpegdata+0xcc>
    2478:	00001d00 	andeq	r1, r0, r0, lsl #26
    247c:	03000103 	movweq	r0, #259	; 0x103
    2480:	00010101 	andeq	r0, r1, r1, lsl #2
    2484:	00000000 	andeq	r0, r0, r0
    2488:	06000000 	streq	r0, [r0], -r0
    248c:	03050807 	movweq	r0, #22535	; 0x5807
    2490:	00020904 	andeq	r0, r2, r4, lsl #18
    2494:	00c4ff01 	sbceq	pc, r4, r1, lsl #30
    2498:	02001036 	andeq	r1, r0, #54	; 0x36
    249c:	03030102 	movweq	r0, #12546	; 0x3102
    24a0:	03030104 	movweq	r0, #12548	; 0x3104
    24a4:	02020204 	andeq	r0, r2, #4, 4	; 0x40000000
    24a8:	02010003 	andeq	r0, r1, #3
    24ac:	06050403 	streq	r0, [r5], -r3, lsl #8
    24b0:	13071211 	movwne	r1, #29201	; 0x7211
    24b4:	14080021 	strne	r0, [r8], #-33	; 0x21
    24b8:	32153122 	andscc	r3, r5, #-2147483640	; 0x80000008
    24bc:	51231641 	teqpl	r3, r1, asr #12
    24c0:	61332409 	teqvs	r3, r9, lsl #8
    24c4:	81714217 	cmnhi	r1, r7, lsl r2
    24c8:	62535225 	subsvs	r5, r3, #1342177282	; 0x50000002
    24cc:	00c4ff91 	smulleq	pc, r4, r1, pc	; <UNPREDICTABLE>
    24d0:	0300011d 	movweq	r0, #285	; 0x11d
    24d4:	01010300 	mrseq	r0, SP_irq
    24d8:	00000101 	andeq	r0, r0, r1, lsl #2
    24dc:	00000000 	andeq	r0, r0, r0
    24e0:	06050000 	streq	r0, [r5], -r0
    24e4:	08040307 	stmdaeq	r4, {r0, r1, r2, r8, r9}
    24e8:	09010002 	stmdbeq	r1, {r1}
    24ec:	3c00c4ff 	cfstrscc	mvf12, [r0], {255}	; 0xff
    24f0:	01020011 	tsteq	r2, r1, lsl r0
    24f4:	01040104 	tsteq	r4, r4, lsl #2
    24f8:	05040203 	streq	r0, [r4, #-515]	; 0x203
    24fc:	01050502 	tsteq	r5, r2, lsl #10
    2500:	11020101 	tstne	r2, r1, lsl #2
    2504:	21120403 	tstcs	r2, r3, lsl #8
    2508:	22060005 	andcs	r0, r6, #5
    250c:	41321331 	teqmi	r2, r1, lsr r3
    2510:	23140751 	tstcs	r4, #21233664	; 0x1440000
    2514:	15716142 	ldrbne	r6, [r1, #-322]!	; 0x142
    2518:	f0a19181 			; <UNDEFINED> instruction: 0xf0a19181
    251c:	6233b152 	eorsvs	fp, r3, #-2147483628	; 0x80000014
    2520:	16e1d172 			; <UNDEFINED> instruction: 0x16e1d172
    2524:	c1924324 	orrsgt	r4, r2, r4, lsr #6
    2528:	daff82f1 	ble	fffe30f4 <end+0xbfee30f4>
    252c:	01030c00 	tsteq	r3, r0, lsl #24
    2530:	03110200 	tsteq	r1, #0, 4
    2534:	003f0011 	eorseq	r0, pc, r1, lsl r0	; <UNPREDICTABLE>
    2538:	5972e268 	ldmdbpl	r2!, {r3, r5, r6, r9, sp, lr, pc}^
    253c:	fac3b36a 	blx	ff0ef2ec <end+0xbefef2ec>
    2540:	cdb0ab65 	ldcgt	11, cr10, [r0, #404]!	; 0x194
    2544:	5f3cbb5b 	svcpl	0x003cbb5b
    2548:	8b564712 	blhi	1594198 <ZAG+0x1586380>
    254c:	afebfe74 	svcge	0x00ebfe74
    2550:	27faf513 			; <UNDEFINED> instruction: 0x27faf513
    2554:	57fd8fd8 	ubfxpl	r8, r8, #31, #30
    2558:	8deb81cf 	stfhip	f0, [fp, #828]!	; 0x33c
    255c:	53ddabed 	bicspl	sl, sp, #242688	; 0x3b400
    2560:	b0b3fd65 	adcslt	pc, r3, r5, ror #26
    2564:	9318912b 	tstls	r8, #-1073741814	; 0xc000000a
    2568:	47445e23 	strbmi	r5, [r4, -r3, lsr #28]
    256c:	7fe411af 	svcvc	0x00e411af
    2570:	711d7a03 	tstvc	sp, r3, lsl #20
    2574:	e5c5ad05 	strb	sl, [r5, #3333]	; 0xd05
    2578:	bbda5f36 	bllt	ff69a258 <end+0xbf59a258>
    257c:	c430b902 	ldrtgt	fp, [r0], #-2306	; 0x902
    2580:	22f21a99 	rscscs	r1, r2, #626688	; 0x99000
    2584:	238f783d 	orrcs	r7, pc, #3997696	; 0x3d0000
    2588:	e8d01bf8 	ldm	r0, {r3, r4, r5, r6, r7, r8, r9, fp, ip}^
    258c:	7cd509d3 	ldclvc	9, cr0, [r5], {211}	; 0xd3
    2590:	58c683de 	stmiapl	r6, {r1, r2, r3, r4, r6, r7, r8, r9, pc}^
    2594:	bba575d3 	bllt	fe95fce8 <end+0xbe85fce8>
    2598:	f9f75a1d 			; <UNDEFINED> instruction: 0xf9f75a1d
    259c:	2c6893a9 	stclcs	3, cr9, [r8], #-676	; 0xfffffd5c
    25a0:	b322ab44 	teqlt	r2, #68, 22	; 0x11000
    25a4:	230e16a7 	movwcs	r1, #59047	; 0xe6a7
    25a8:	befd6362 	cdplt	3, 15, cr6, cr13, cr2, {3}
    25ac:	0c257754 	stceq	7, cr7, [r5], #-336	; 0xfffffeb0
    25b0:	5a0572b2 	bpl	15f080 <ZAG+0x151268>
    25b4:	f78a7b2d 			; <UNDEFINED> instruction: 0xf78a7b2d
    25b8:	75dca288 	ldrbvc	sl, [ip, #648]	; 0x288
    25bc:	e755c132 	smmlar	r5, r2, r1, ip
    25c0:	60002c7e 	andvs	r2, r0, lr, ror ip
    25c4:	53908348 	orrspl	r8, r0, #72, 6	; 0x20000001
    25c8:	326aeb2b 	rsbcc	lr, sl, #44032	; 0xac00
    25cc:	08f2ca70 	ldmeq	r2!, {r4, r5, r6, r9, fp, lr, pc}^
    25d0:	6beeb36d 	blvs	ffbaf38c <end+0xbfaaf38c>
    25d4:	718316ee 	orrvc	r1, r3, lr, ror #13
    25d8:	ab829994 	blge	fe0a8c30 <end+0xbdfa8c30>
    25dc:	0058fcce 	subseq	pc, r8, lr, asr #25
    25e0:	200791c0 	andcs	r9, r7, r0, asr #3
    25e4:	b5f595a4 	ldrblt	r9, [r5, #1444]!	; 0x5a4
    25e8:	79653819 	stmdbvc	r5!, {r0, r3, r4, fp, ip, sp}^
    25ec:	2e3d5a05 	vaddcs.f32	s10, s26, s10
    25f0:	7d5cbdeb 	ldclvc	13, cr11, [ip, #-940]	; 0xfffffc54
    25f4:	4f2da57c 	svcmi	0x002da57c
    25f8:	5844aa2d 	stmdapl	r4, {r0, r2, r3, r5, r9, fp, sp, pc}^
    25fc:	e41654f9 	ldr	r5, [r6], #-1273	; 0x4f9
    2600:	ac8234af 	cfstrsge	mvf3, [r2], {175}	; 0xaf
    2604:	23439883 	movtcs	r9, #14467	; 0x3883
    2608:	ec225880 	stc	8, cr5, [r2], #-512	; 0xfffffe00
    260c:	388b99c1 	stmcc	fp, {r0, r6, r7, r8, fp, ip, pc}
    2610:	c5131070 	ldrgt	r1, [r3, #-112]	; 0x70
    2614:	0100ff4b 	tsteq	r0, fp, asr #30
    2618:	a5a8d4dd 	strge	sp, [r8, #1245]!	; 0x4dd
    261c:	65913c5a 	ldrvs	r3, [r1, #3162]	; 0xc5a
    2620:	2532c9f2 	ldrcs	ip, [r2, #-2546]!	; 0x9f2
    2624:	19e50d8e 	stmibne	r5!, {r1, r2, r3, r7, r8, sl, fp}^
    2628:	d8282411 	stmdale	r8!, {r0, r4, sl, sp}
    262c:	40709624 	rsbsmi	r9, r0, r4, lsr #12
    2630:	46034c50 			; <UNDEFINED> instruction: 0x46034c50
    2634:	a5f3ceed 	ldrbge	ip, [r3, #3821]!	; 0xeed
    2638:	e5502b41 	ldrb	r2, [r0, #-2881]	; 0xb41
    263c:	4996270b 	ldmibmi	r6, {r0, r1, r3, r8, r9, sl, sp}
    2640:	6f702c91 	svcvs	0x00702c91
    2644:	2480c928 	strcs	ip, [r0], #2344	; 0x928
    2648:	4902f92a 	stmdbmi	r2, {r1, r3, r5, r8, fp, ip, sp, lr, pc}
    264c:	04040467 	streq	r0, [r4], #-1127	; 0x467
    2650:	42e3a4e2 	rscmi	sl, r3, #-503316480	; 0xe2000000
    2654:	b3869af5 	orrlt	r9, r6, #1003520	; 0xf5000
    2658:	34c5d6ce 	strbcc	sp, [r5], #1742	; 0x6ce
    265c:	6ab3d310 	bvs	fecf72a4 <end+0xbebf72a4>
    2660:	25805e82 	strcs	r5, [r0, #3714]	; 0xe82
    2664:	f924e7d8 			; <UNDEFINED> instruction: 0xf924e7d8
    2668:	db850b0f 	blle	fe1452ac <end+0xbe0452ac>
    266c:	416e838c 	cmnmi	lr, ip, lsl #7
    2670:	96a7e446 	strtls	lr, [r7], r6, asr #8
    2674:	d9504108 	ldmdble	r0, {r3, r8, lr}^
    2678:	0e45f7c4 	cdpeq	7, 4, cr15, cr5, cr4, {6}
    267c:	4a6de552 	bmi	1b7bbcc <ZAG+0x1b6ddb4>
    2680:	e2406685 	sub	r6, r0, #139460608	; 0x8500000
    2684:	53f7371c 	mvnspl	r3, #28, 14	; 0x700000
    2688:	037b981e 	cmneq	fp, #1966080	; 0x1e0000
    268c:	53b01d67 	movspl	r1, #6592	; 0x19c0
    2690:	6e781c2a 	cdpvs	12, 7, cr1, cr8, cr10, {1}
    2694:	aee5b7ec 	cdpge	7, 14, cr11, cr5, cr12, {7}
    2698:	56a8d096 	ssatpl	sp, #9, r6, lsl #1
    269c:	d5210e74 	strle	r0, [r1, #-3700]!	; 0xe74
    26a0:	8f29f5bf 	svchi	0x0029f5bf
    26a4:	b2813d4c 	addlt	r3, r1, #76, 26	; 0x1300
    26a8:	ca106c57 	bgt	41d80c <ZAG+0x40f9f4>
    26ac:	3dd42182 	ldfcce	f2, [r4, #520]	; 0x208
    26b0:	6838d938 	ldmdavs	r8!, {r3, r4, r5, r8, fp, ip, lr, pc}
    26b4:	b3175a2e 	tstlt	r7, #188416	; 0x2e000
    26b8:	9cc0b134 	stflsp	f3, [r0], {52}	; 0x34
    26bc:	242f1443 	strtcs	r1, [pc], #-1091	; 26c4 <jpegdata+0x314>
    26c0:	30c75862 	sbccc	r5, r7, r2, ror #16
    26c4:	77688e38 			; <UNDEFINED> instruction: 0x77688e38
    26c8:	62dfcf4d 	sbcsvs	ip, pc, #308	; 0x134
    26cc:	03a47217 			; <UNDEFINED> instruction: 0x03a47217
    26d0:	cde39a43 	stclgt	10, cr9, [r3, #268]!	; 0x10c
    26d4:	022ba065 	eoreq	sl, fp, #101	; 0x65
    26d8:	c43d80c4 	ldrtgt	r8, [sp], #-196	; 0xc4
    26dc:	fa5d86b2 	blx	17641ac <ZAG+0x1756394>
    26e0:	7ec707f2 	mcrvc	7, 6, r0, cr7, cr2, {7}
    26e4:	10240b5b 	eorne	r0, r4, fp, asr fp
    26e8:	8d778e0e 	ldclhi	14, cr8, [r7, #-56]!	; 0xffffffc8
    26ec:	56dcd635 			; <UNDEFINED> instruction: 0x56dcd635
    26f0:	3d809805 	stccc	8, cr9, [r0, #20]
    26f4:	5186b2c4 	orrpl	fp, r6, r4, asr #5
    26f8:	a6e46394 	usatge	r6, #4, r4, lsl #7
    26fc:	0b5b7e53 	bleq	16e2050 <ZAG+0x16d4238>
    2700:	fd081024 	stc2	0, cr1, [r8, #-144]	; 0xffffff70
    2704:	4af7e81b 	bmi	ffdfc778 <end+0xbfcfc778>
    2708:	a659078c 	ldrbge	r0, [r9], -ip, lsl #15
    270c:	5f1dd4af 	svcpl	0x001dd4af
    2710:	754c35a7 	strbvc	r3, [ip, #-1447]	; 0x5a7
    2714:	498b8971 	stmibmi	fp, {r0, r4, r5, r6, r8, fp, pc}
    2718:	1096532d 	addsne	r5, r6, sp, lsr #6
    271c:	02b29249 	adcseq	r9, r2, #-1879048188	; 0x90000004
    2720:	8bddb7e4 	blhi	ff7706b8 <end+0xbf6706b8>
    2724:	85a38839 	strhi	r8, [r3, #2105]!	; 0x839
    2728:	fb60df45 	blx	183a446 <ZAG+0x182c62e>
    272c:	b7deb681 	ldrblt	fp, [lr, r1, lsl #13]
    2730:	d534805a 	ldrle	r8, [r4, #-90]!	; 0x5a
    2734:	ef7feee9 	svc	0x007feee9
    2738:	d2fb00ff 	rscsle	r0, fp, #255	; 0xff
    273c:	cb3eb755 	blgt	fb0498 <ZAG+0xfa2680>
    2740:	5f595dc8 	svcpl	0x00595dc8
    2744:	b29c8280 	addslt	r8, ip, #128, 4
    2748:	bd51f791 	ldcllt	7, cr15, [r1, #-580]	; 0xfffffdbc
    274c:	1ac6c9ec 	bne	ff1b4f04 <end+0xbf0b4f04>
    2750:	3532f500 	ldrcc	pc, [r2, #-1280]!	; 0x500
    2754:	d7d11b1d 	bfile	r1, sp, (invalid: 22:17)
    2758:	9d8e1cb8 	stcls	12, cr1, [lr, #736]	; 0x2e0
    275c:	22839dab 	addcs	r9, r3, #10944	; 0x2ac0
    2760:	d9691587 	stmdble	r9!, {r0, r1, r2, r7, r8, sl, ip}^
    2764:	c9e8b021 	stmibgt	r8!, {r0, r5, ip, sp, pc}^
    2768:	df60a9c8 	svcle	0x0060a9c8
    276c:	bc800056 	stclt	0, cr0, [r0], {86}	; 0x56
    2770:	c146921c 	cmpgt	r6, ip, lsl r2
    2774:	a0ec9851 	rscge	r9, ip, r1, asr r8
    2778:	ebee429f 	bl	ffb931fc <end+0xbfa931fc>
    277c:	5c19b1d2 	ldfpld	f3, [r9], {210}	; 0xd2
    2780:	bf3151b0 	svclt	0x003151b0
    2784:	4000fff5 	strdmi	pc, [r0], -r5
    2788:	28e89324 	stmiacs	r8!, {r2, r5, r8, r9, ip, pc}^
    278c:	4102602c 	tstmi	r2, ip, lsr #32
    2790:	3559cbf1 	ldrbcc	ip, [r9, #-3057]	; 0xbf1
    2794:	837cdeb2 	cmnhi	ip, #2848	; 0xb20
    2798:	990063e3 	stmdbls	r0, {r0, r1, r5, r6, r7, r8, r9, sp, lr}
    279c:	4474a61e 	ldrbtmi	sl, [r4], #-1566	; 0x61e
    27a0:	884982c0 	stmdahi	r9, {r6, r7, r9, pc}^
    27a4:	50180b0a 	andspl	r0, r8, sl, lsl #22
    27a8:	a1be4a4f 			; <UNDEFINED> instruction: 0xa1be4a4f
    27ac:	12b6fc75 	adcsne	pc, r6, #29952	; 0x7500
    27b0:	bc583068 	mrrclt	0, 6, r3, r8, cr8
    27b4:	a5a46985 	strge	r6, [r4, #2437]!	; 0x985
    27b8:	f46ae315 	vld2.8	{d30-d33}, [sl :64], r5
    27bc:	2f3b4052 	svccs	0x003b4052
    27c0:	c4e94324 	strbtgt	r4, [r9], #804	; 0x324
    27c4:	74734312 	ldrbtvc	r4, [r3], #-786	; 0x312
    27c8:	028c7232 	addeq	r7, ip, #536870915	; 0x20000003
    27cc:	ae244737 	mcrge	7, 1, r4, cr4, cr7, {1}
    27d0:	bc6bcef2 	stcllt	14, cr12, [fp], #-968	; 0xfffffc38
    27d4:	ca92dd66 	bgt	fe4b9d74 <end+0xbe3b9d74>
    27d8:	af28a993 	svcge	0x0028a993
    27dc:	125f0693 	subsne	r0, pc, #154140672	; 0x9300000
    27e0:	c1046a54 	tstgt	r4, r4, asr sl
    27e4:	40b2a592 	umlalsmi	sl, r2, r2, r5
    27e8:	e3e4d00f 	mvn	sp, #15
    27ec:	bd771e33 	ldcllt	14, cr1, [r7, #-204]!	; 0xffffff34
    27f0:	766ab6c9 	strbtvc	fp, [sl], -r9, asr #13
    27f4:	45495d14 	strbmi	r5, [r9, #-3348]	; 0xd14
    27f8:	f832987c 			; <UNDEFINED> instruction: 0xf832987c
    27fc:	04a85196 	strteq	r5, [r8], #406	; 0x196
    2800:	f2a592c1 	vmlal.s32	<illegal reg q4.5>, d21, d1[0]
    2804:	72940840 	addsvc	r0, r4, #64, 16	; 0x400000
    2808:	2b22cad8 	blcs	8b5370 <ZAG+0x8a7558>
    280c:	c99637e7 	ldmibgt	r6, {r0, r1, r2, r5, r6, r7, r8, r9, sl, ip, sp}
    2810:	d75a7ec5 	ldrble	r7, [sl, -r5, asr #29]
    2814:	d63cb1e5 	ldrtle	fp, [ip], -r5, ror #3
    2818:	54e1d80d 	strbtpl	sp, [r1], #2061	; 0x80d
    281c:	ecc7c832 	stcl	8, cr12, [r7], {50}	; 0x32
    2820:	6c2b4aca 	stcvs	10, cr4, [fp], #-808	; 0xfffffcd8
    2824:	0752707f 			; <UNDEFINED> instruction: 0x0752707f
    2828:	dc283b1f 	stcle	11, cr3, [r8], #-124	; 0xffffff84
    282c:	66fee7fa 			; <UNDEFINED> instruction: 0x66fee7fa
    2830:	35d4bbe6 	ldrbcc	fp, [r4, #3046]	; 0xbe6
    2834:	b139868b 	teqlt	r9, fp, lsl #13
    2838:	b1c80824 	biclt	r0, r8, r4, lsr #16
    283c:	180cf4d9 	stmdane	ip, {r0, r3, r4, r6, r7, sl, ip, sp, lr, pc}
    2840:	984420d0 	stmdals	r4, {r4, r6, r7, sp}^
    2844:	ff3e9300 			; <UNDEFINED> instruction: 0xff3e9300
    2848:	8c934b00 	vldmiahi	r3, {d4-d3}
    284c:	91471eee 	smlalttls	r1, r7, lr, lr
    2850:	749a39e1 	ldrvc	r3, [sl], #2529	; 0x9e1
    2854:	bbc2b5ea 	bllt	ff0b0004 <end+0xbefb0004>
    2858:	98a95225 	stmials	r9!, {r0, r2, r5, r9, ip, lr}
    285c:	b2f8866d 	rscslt	r8, r8, #114294784	; 0x6d00000
    2860:	df60b24c 	svcle	0x0060b24c
    2864:	0486f520 	streq	pc, [r6], #1312	; 0x520
    2868:	a834eee1 	ldmdage	r4!, {r0, r5, r6, r7, r9, sl, fp, sp, lr, pc}
    286c:	87a059fc 			; <UNDEFINED> instruction: 0x87a059fc
    2870:	4fc68e19 	svcmi	0x00c68e19
    2874:	d6f2b18e 	ldrbtle	fp, [r2], lr, lsl #3
    2878:	90cf6d49 	sbcls	r6, pc, r9, asr #26
    287c:	d5685269 	strble	r5, [r8, #-617]!	; 0x269
    2880:	10da55a7 	sbcsne	r5, sl, r7, lsr #11
    2884:	fd6c9383 	stc2l	3, cr9, [ip, #-524]!	; 0xfffffdf4
    2888:	0a6c60be 	beq	1b1ab88 <ZAG+0x1b0cd70>
    288c:	b7cd0978 			; <UNDEFINED> instruction: 0xb7cd0978
    2890:	d25e732d 	subsle	r7, lr, #-1275068416	; 0xb4000000
    2894:	f4168fe7 			; <UNDEFINED> instruction: 0xf4168fe7
    2898:	083514a9 	ldmdaeq	r5!, {r0, r3, r5, r7, sl, ip}
    289c:	3f2d9720 	svccc	0x002d9720
    28a0:	bb0a3e5e 	bllt	292220 <ZAG+0x284408>
    28a4:	02580a3b 	subseq	r0, r8, #241664	; 0x3b000
    28a8:	2317743c 	tstcs	r7, #60, 8	; 0x3c000000
    28ac:	8933fb38 	ldmdbhi	r3!, {r3, r4, r5, r8, r9, fp, ip, sp, lr, pc}
    28b0:	997b2ce4 	ldmdbls	fp!, {r2, r5, r6, r7, sl, fp, sp}^
    28b4:	38ea382d 	stmiacc	sl!, {r0, r2, r3, r5, fp, ip, sp}^
    28b8:	5aaab554 	bpl	feaafe10 <end+0xbe9afe10>
    28bc:	aba09aab 	blge	fe829370 <end+0xbe729370>
    28c0:	4dab4752 	stcmi	7, cr4, [fp, #328]!	; 0x148
    28c4:	65aaabca 	strvs	sl, [sl, #3018]!	; 0xbca
    28c8:	609ec62a 	addsvs	ip, lr, sl, lsr #12
    28cc:	99628068 	stmdbls	r2!, {r3, r5, r6, pc}^
    28d0:	e96f3d66 	stmdb	pc!, {r1, r2, r5, r6, r8, sl, fp, ip, sp}^	; <UNPREDICTABLE>
    28d4:	f2a511fd 	vsra.s64	<illegal reg q0.5>, <illegal reg q14.5>, #27
    28d8:	bc999b73 	fldmiaxlt	r9, {d9-d65}	;@ Deprecated
    28dc:	dc2cacc5 	stcle	12, cr10, [ip], #-788	; 0xfffffcec
    28e0:	88d9cb84 	ldmhi	r9, {r2, r7, r8, r9, fp, lr, pc}^
    28e4:	7428b248 	strtvc	fp, [r8], #-584	; 0x248
    28e8:	4352001e 	cmpmi	r2, #30
    28ec:	3e7f9478 	mrccc	4, 3, r9, cr15, cr8, {3}
    28f0:	52b66d48 	adcspl	r6, r6, #72, 26	; 0x1200
    28f4:	a581f31f 	strge	pc, [r1, #799]	; 0x31f
    28f8:	8eb555c3 	cdphi	5, 11, cr5, cr5, cr3, {6}
    28fc:	f6d2e066 			; <UNDEFINED> instruction: 0xf6d2e066
    2900:	4c720244 	lfmmi	f0, 2, [r2], #-272	; 0xfffffef0
    2904:	2081fd82 	addcs	pc, r1, r2, lsl #27
    2908:	f6ef63fd 			; <UNDEFINED> instruction: 0xf6ef63fd
    290c:	ac7c0168 	ldfgee	f0, [ip], #-416	; 0xfffffe60
    2910:	68facb7d 	ldmvs	sl!, {r0, r2, r3, r4, r5, r6, r8, r9, fp, lr, pc}^
    2914:	fec9ddb7 	mcr2	13, 6, sp, cr9, cr7, {5}
    2918:	253bc43b 	ldrcs	ip, [fp, #-1083]!	; 0x43b
    291c:	21ced54c 	biccs	sp, lr, ip, asr #10
    2920:	5a5c5520 	bpl	1717da8 <ZAG+0x1709f90>
    2924:	810d2040 	tsthi	sp, r0, asr #32
    2928:	17c81693 	bfine	r1, r3, (invalid: 13:8)
    292c:	0bed2469 	bleq	ffb4bad8 <end+0xbfa4bad8>
    2930:	923aa637 	eorsls	sl, sl, #57671680	; 0x3700000
    2934:	8cf9143d 	cfldrdhi	mvd1, [r9], #244	; 0xf4
    2938:	425a4a3e 	subsmi	r4, sl, #253952	; 0x3e000
    293c:	15bc53dc 	ldrne	r5, [ip, #988]!	; 0x3dc
    2940:	816092e5 	cmnhi	r0, r5, ror #5
    2944:	c6b965cc 	ldrtgt	r6, [r9], ip, asr #11
    2948:	ddc4fe5c 	stclle	14, cr15, [r4, #368]	; 0x170
    294c:	0120278b 	smlawbeq	r0, fp, r7, r2
    2950:	933b7f67 	teqls	fp, #412	; 0x19c
    2954:	f9b2f3e9 			; <UNDEFINED> instruction: 0xf9b2f3e9
    2958:	75e3ed94 	strbvc	lr, [r3, #3476]!	; 0xd94
    295c:	101572c5 	andsne	r7, r5, r5, asr #5
    2960:	122a3b32 	eorne	r3, sl, #51200	; 0xc800
    2964:	cd4909d0 	stclgt	9, cr0, [r9, #-832]	; 0xfffffcc0
    2968:	c94a3f72 	stmdbgt	sl, {r1, r4, r5, r6, r8, r9, sl, fp, ip, sp}^
    296c:	190a32c9 	stmdbne	sl, {r0, r3, r6, r7, r9, ip, sp}
    2970:	48e4e099 	stmiami	r4!, {r0, r3, r4, r7, sp, lr, pc}^
    2974:	8d7b4e14 	ldclhi	14, cr4, [fp, #-80]!	; 0xffffffb0
    2978:	924fef17 	subls	lr, pc, #23, 30	; 0x5c
    297c:	3a4ba4b3 	bcc	12ebc50 <ZAG+0x12dde38>
    2980:	3101442e 	tstcc	r1, lr, lsr #8
    2984:	886d3ded 	stmdahi	sp!, {r0, r2, r3, r5, r6, r7, r8, sl, fp, ip, sp}^
    2988:	c4099096 	strgt	r9, [r9], #-150	; 0x96
    298c:	5392017e 	orrspl	r0, r2, #-2147483617	; 0x8000001f
    2990:	dcf3a943 	ldclle	9, cr10, [r3], #268	; 0x10c
    2994:	3882d7ca 	stmcc	r2, {r1, r3, r6, r7, r8, r9, sl, ip, lr, pc}
    2998:	eaa6d929 	b	fe9b8e44 <end+0xbe8b8e44>
    299c:	7d825858 	stcvc	8, cr5, [r2, #352]	; 0x160
    29a0:	88bf63de 	ldmhi	pc!, {r1, r2, r3, r4, r6, r7, r8, r9, sp, lr}	; <UNPREDICTABLE>
    29a4:	90f53fd5 	ldrsbtls	r3, [r5], #245	; 0xf5
    29a8:	4f12cf0d 	svcmi	0x0012cf0d
    29ac:	231fbc2d 	tstcs	pc, #11520	; 0x2d00
    29b0:	ed5eeb77 	vldr	d30, [lr, #-476]	; 0xfffffe24
    29b4:	b47673a9 	ldrbtlt	r7, [r6], #-937	; 0x3a9
    29b8:	223daaa9 	eorscs	sl, sp, #692224	; 0xa9000
    29bc:	96e0ea34 			; <UNDEFINED> instruction: 0x96e0ea34
    29c0:	fe05f43f 	mcr2	4, 0, pc, cr5, cr15, {1}	; <UNPREDICTABLE>
    29c4:	124c0257 	subne	r0, ip, #1879048197	; 0x70000005
    29c8:	b1a30143 			; <UNDEFINED> instruction: 0xb1a30143
    29cc:	3b6ebdd2 	blcc	1bb211c <ZAG+0x1ba4304>
    29d0:	969ba1e1 	ldrls	sl, [fp], r1, ror #3
    29d4:	54ea3e15 	strbtpl	r3, [sl], #3605	; 0xe15
    29d8:	4ff51f88 	svcmi	0x00f51f88
    29dc:	1b7a60e2 	blne	1e9ad6c <ZAG+0x1e8cf54>
    29e0:	4eea693d 	mcrmi	9, 7, r6, cr10, cr13, {1}
    29e4:	f8f161a2 			; <UNDEFINED> instruction: 0xf8f161a2
    29e8:	bf7826a9 	svclt	0x007826a9
    29ec:	abcaa652 	blge	ff2ac33c <end+0xbf1ac33c>
    29f0:	ea072832 	b	1ccac0 <ZAG+0x1beca8>
    29f4:	53a954cc 			; <UNDEFINED> instruction: 0x53a954cc
    29f8:	01b991fc 			; <UNDEFINED> instruction: 0x01b991fc
    29fc:	b6018682 	strlt	r8, [r1], -r2, lsl #13
    2a00:	4ff4363e 	svcmi	0x00f4363e
    2a04:	3a7eee99 	bcc	1fbe470 <ZAG+0x1fb0658>
    2a08:	d5eacdca 	strble	ip, [sl, #3530]!	; 0xdca
    2a0c:	0c9c965f 	ldceq	6, cr9, [ip], {95}	; 0x5f
    2a10:	38a68380 	stmiacc	r6!, {r7, r8, r9, pc}
    2a14:	dcf953c1 	ldclle	3, cr5, [r9], #772	; 0x304
    2a18:	0d30c406 	cfldrseq	mvf12, [r0, #-24]!	; 0xffffffe8
    2a1c:	8e75c404 	cdphi	4, 7, cr12, cr5, cr4, {0}
    2a20:	eae2c6c2 	b	ff8b4530 <end+0xbf7b4530>
    2a24:	8b2325ba 	blhi	8cc114 <ZAG+0x8be2fc>
    2a28:	6dec6012 	stclvs	0, cr6, [ip, #72]!	; 0x48
    2a2c:	8d1ffb44 	vldrhi	d15, [pc, #-272]	; 2924 <jpegdata+0x574>
    2a30:	a023f57a 	eorge	pc, r3, sl, ror r5	; <UNPREDICTABLE>
    2a34:	7336055d 	teqvc	r6, #390070272	; 0x17400000
    2a38:	35b2614c 	ldrcc	r6, [r2, #332]!	; 0x14c
    2a3c:	37574b70 			; <UNDEFINED> instruction: 0x37574b70
    2a40:	9424acf2 	strtls	sl, [r4], #-3314	; 0xcf2
    2a44:	10a2ba39 	adcne	fp, r2, r9, lsr sl
    2a48:	f231ef01 	vmin.f<illegal width 64>	d14, d1, d1
    2a4c:	d408c03e 	strle	ip, [r8], #-62	; 0x3e
    2a50:	eec72da7 	cdp	13, 12, cr2, cr7, cr7, {5}
    2a54:	9896af1b 	ldmls	r6, {r0, r1, r3, r4, r8, r9, sl, fp, sp, pc}
    2a58:	38e6c876 	stmiacc	r6!, {r1, r2, r4, r5, r6, fp, lr, pc}^
    2a5c:	1c8a1b3b 	fstmiaxne	sl, {d1-d29}	;@ Deprecated
    2a60:	919f4b40 	orrsls	r4, pc, r0, asr #22
    2a64:	01b0a5c1 	asrseq	sl, r1, #11
    2a68:	8e911f00 	cdphi	15, 9, cr1, cr1, cr0, {0}
    2a6c:	9422c4c6 	strtls	ip, [r2], #-1222	; 0x4c6
    2a70:	129641ce 	addsne	r4, r6, #-2147483597	; 0x80000033
    2a74:	4ede66bb 	mrcmi	6, 6, r6, cr14, cr11, {5}
    2a78:	732387b5 	teqvc	r3, #47448064	; 0x2d40000
    2a7c:	a432af49 	ldrtge	sl, [r2], #-3913	; 0xf49
    2a80:	335a4e55 	cmpcc	sl, #1360	; 0x550
    2a84:	8fbeca3f 	svchi	0x00beca3f
    2a88:	62c799e4 	sbcvs	r9, r7, #228, 18	; 0x390000
    2a8c:	de5fbf07 	cdple	15, 5, cr11, cr15, cr7, {0}
    2a90:	27d77495 	bfics	r7, r5, #9, #15
    2a94:	ddd1d582 	cfldr64le	mvdx13, [r1, #520]	; 0x208
    2a98:	24d5c2cb 	ldrbcs	ip, [r5], #715	; 0x2cb
    2a9c:	51bc0baf 			; <UNDEFINED> instruction: 0x51bc0baf
    2aa0:	9118ec2e 	tstls	r8, lr, lsr #24
    2aa4:	0aea72c3 	beq	ffa9f5b8 <end+0xbf99f5b8>
    2aa8:	d737b36d 	ldrle	fp, [r7, -sp, ror #6]!
    2aac:	3bc06d90 	blcc	ff01e0f4 <end+0xbef1e0f4>
    2ab0:	d8c7f96d 	stmiale	r7, {r0, r2, r3, r5, r6, r8, fp, ip, sp, lr, pc}^
    2ab4:	c67f9dfd 			; <UNDEFINED> instruction: 0xc67f9dfd
    2ab8:	c9750b73 	ldmdbgt	r5!, {r0, r1, r4, r5, r6, r8, r9, fp}^
    2abc:	c58a4221 	strgt	r4, [sl, #545]	; 0x221
    2ac0:	e393cc46 	orrs	ip, r3, #17920	; 0x4600
    2ac4:	10298025 	eorne	r8, r9, r5, lsr #32
    2ac8:	f230c75b 	vaba.s<illegal width 64>	q6, q0, <illegal reg q5.5>
    2acc:	9d1dc701 	ldcls	7, cr12, [sp, #-4]
    2ad0:	b79a7f9e 			; <UNDEFINED> instruction: 0xb79a7f9e
    2ad4:	6d34b2ba 	lfmvs	f3, 1, [r4, #-744]!	; 0xfffffd18
    2ad8:	0488414e 	streq	r4, [r8], #334	; 0x14e
    2adc:	44bff5fa 	ldrtmi	pc, [pc], #1530	; 2ae4 <jpegdata+0x734>	; <UNPREDICTABLE>
    2ae0:	f106f686 			; <UNDEFINED> instruction: 0xf106f686
    2ae4:	d733edc7 	ldrle	lr, [r3, -r7, asr #27]!
    2ae8:	ccfd592f 	ldclgt	9, cr5, [sp], #188	; 0xbc
    2aec:	9edbdbf4 	vmovls.u8	sp, d27[3]
    2af0:	87fa1972 			; <UNDEFINED> instruction: 0x87fa1972
    2af4:	28388ad4 	ldmdacs	r8!, {r2, r4, r6, r7, r9, fp, pc}
    2af8:	0c82c26e 	sfmeq	f4, 1, [r2], {110}	; 0x6e
    2afc:	6d365703 	ldcvs	7, cr5, [r6, #-12]!
    2b00:	cef8c582 	cdpgt	5, 15, cr12, cr8, cr2, {4}
    2b04:	6e1e8122 	mnfvsep	f0, f2
    2b08:	bcc8ecd1 	stcllt	12, cr14, [r8], {209}	; 0xd1
    2b0c:	dc7278d9 	ldclle	8, cr7, [r2], #-868	; 0xfffffc9c
    2b10:	faaadc72 	blx	feab9ce0 <end+0xbe9b9ce0>
    2b14:	dab52dbb 	ble	fed4e208 <end+0xbec4e208>
    2b18:	b8c1b5df 	stmialt	r1, {r0, r1, r2, r3, r4, r6, r7, r8, sl, ip, sp, pc}^
    2b1c:	f8588926 			; <UNDEFINED> instruction: 0xf8588926
    2b20:	8f345df1 	svchi	0x00345df1
    2b24:	201ac220 	andscs	ip, sl, r0, lsr #4
    2b28:	4976267d 	ldmdbmi	r6!, {r0, r2, r3, r4, r5, r6, r9, sl, sp}^
    2b2c:	c6278098 			; <UNDEFINED> instruction: 0xc6278098
    2b30:	296e13ad 	stmdbcs	lr!, {r0, r2, r3, r5, r7, r8, r9, ip}^
    2b34:	fde0708a 	stc2l	0, cr7, [r0, #552]!	; 0x228
    2b38:	113f7652 	teqne	pc, r2, asr r6	; <UNPREDICTABLE>
    2b3c:	7ac4fceb 	bvc	ff141ef0 <end+0xbf041ef0>
    2b40:	e7f5ecf5 	udf	#24261	; 0x5ec5
    2b44:	d67f5e87 	ldrbtle	r5, [pc], -r7, lsl #29
    2b48:	ac65519f 	stfgee	f5, [r5], #-636	; 0xfffffd84
    2b4c:	87f4c7d9 	ubfxhi	ip, r9, #15, #21
    2b50:	63c1574a 	bicvs	r5, r1, #19398656	; 0x1280000
    2b54:	1922195e 	stmdbne	r2!, {r1, r2, r3, r4, r6, r8, fp, ip}
    2b58:	7b824cad 	blvc	fe095e14 <end+0xbdf95e14>
    2b5c:	0b349edc 	bleq	d2a6d4 <ZAG+0xd1c8bc>
    2b60:	fd467024 	stc2l	0, cr7, [r6, #-144]	; 0xffffff70
    2b64:	ee379aa8 	vadd.f32	s18, s15, s17
    2b68:	57a71d6c 	strpl	r1, [r7, ip, ror #26]!
    2b6c:	fb5509d9 	blx	15452da <ZAG+0x15374c2>
    2b70:	a7d62b21 	ldrbge	r2, [r6, r1, lsr #22]
    2b74:	3d535750 	ldclcc	7, cr5, [r3, #-320]	; 0xfffffec0
    2b78:	ac2ff5c0 	cfstr32ge	mvfx15, [pc], #-768	; 2880 <jpegdata+0x4d0>
    2b7c:	dad6f49d 	ble	ff5bfdf8 <end+0xbf4bfdf8>
    2b80:	6a6a50f3 	bvs	1a96f54 <ZAG+0x1a8913c>
    2b84:	876c5d93 			; <UNDEFINED> instruction: 0x876c5d93
    2b88:	2464c8c0 	strbtcs	ip, [r4], #-2240	; 0x8c0
    2b8c:	794e717a 	stmdbvc	lr, {r1, r3, r4, r5, r6, r8, ip, sp, lr}^
    2b90:	bfafe2fd 	svclt	0x00afe2fd
    2b94:	8e842d6a 	cdphi	13, 8, cr2, cr4, cr10, {3}
    2b98:	2a5411aa 	bcs	1507248 <ZAG+0x14f9430>
    2b9c:	780055b1 	stmdavc	r0, {r0, r4, r5, r7, r8, sl, ip, lr}
    2ba0:	745ff7f5 	ldrbvc	pc, [pc], #-2037	; 2ba8 <jpegdata+0x7f8>	; <UNPREDICTABLE>
    2ba4:	6ae5b508 	bvs	ff96ffcc <end+0xbf86ffcc>
    2ba8:	cc8938ef 	stcgt	8, cr3, [r9], {239}	; 0xef
    2bac:	208dca08 	addcs	ip, sp, r8, lsl #20
    2bb0:	8159c553 	cmphi	r9, r3, asr r5
    2bb4:	02fc092a 	rscseq	r0, ip, #688128	; 0xa8000
    2bb8:	f9c3b642 			; <UNDEFINED> instruction: 0xf9c3b642
    2bbc:	afc77fe2 	svcge	0x00c77fe2
    2bc0:	7b1d13c9 	blvc	747aec <ZAG+0x739cd4>
    2bc4:	814bc508 	cmphi	fp, r8, lsl #10
    2bc8:	49fba9a1 	ldmibmi	fp!, {r0, r5, r7, r8, fp, sp, pc}^
    2bcc:	5800ff98 	stmdapl	r0, {r3, r4, r7, r8, r9, sl, fp, ip, sp, lr, pc}
    2bd0:	fd7ae83f 	ldc2l	8, cr14, [sl, #-252]!	; 0xffffff04
    2bd4:	b86a793d 	stmdalt	sl!, {r0, r2, r3, r4, r5, r8, fp, ip, sp, lr}^
    2bd8:	9c78a249 	lfmls	f2, 3, [r8], #-292	; 0xfffffedc
    2bdc:	5257b8aa 	subspl	fp, r7, #11141120	; 0xaa0000
    2be0:	6528aba4 	strvs	sl, [r8, #-2980]!	; 0xba4
    2be4:	08827f3e 	stmeq	r2, {r1, r2, r3, r4, r5, r8, r9, sl, fp, ip, sp, lr}
    2be8:	2000ff20 	andcs	pc, r0, r0, lsr #30
    2bec:	41e0eb83 	mvnmi	lr, r3, lsl #23
    2bf0:	8cccd7f5 	stclhi	7, cr13, [ip], {245}	; 0xf5
    2bf4:	d1411c86 	smlalbble	r1, r1, r6, ip	; <UNPREDICTABLE>
    2bf8:	242200ff 	strtcs	r0, [r2], #-255	; 0xff
    2bfc:	fed8a87f 	mrc2	8, 6, sl, cr8, cr15, {3}
    2c00:	fdfa719d 	ldc2l	1, cr7, [sl, #628]!	; 0x274
    2c04:	bd5fc7eb 	ldcllt	7, cr12, [pc, #-940]	; 2860 <jpegdata+0x4b0>
    2c08:	5bddd77d 	blpl	ff778a04 <end+0xbf678a04>
    2c0c:	4fe900ff 	svcmi	0x00e900ff
    2c10:	47f78aee 	ldrbmi	r8, [r7, lr, ror #21]!
    2c14:	4143f33a 	cmpmi	r3, sl, lsr r3
    2c18:	3f56b265 	svccc	0x0056b265
    2c1c:	c2ac75a2 	adcgt	r7, ip, #679477248	; 0x28800000
    2c20:	cdcea688 	stclgt	6, cr10, [lr, #544]	; 0x220
    2c24:	f1a36c0d 			; <UNDEFINED> instruction: 0xf1a36c0d
    2c28:	0215d65a 	andseq	sp, r5, #94371840	; 0x5a00000
    2c2c:	2a23e531 	bcs	8fc0f8 <ZAG+0x8ee2e0>
    2c30:	14256ed7 	strtne	r6, [r5], #-3799	; 0xed7
    2c34:	919c5189 	orrsls	r5, ip, r9, lsl #3
    2c38:	5ff7ed0a 	svcpl	0x00f7ed0a
    2c3c:	af4fee75 	svcge	0x004fee75
    2c40:	8ea0fbba 	vduphi.16	q8, pc
    2c44:	fccf6bb2 	stc2l	11, cr6, [pc], {178}	; 0xb2
    2c48:	e4afa077 	strt	sl, [pc], #119	; 2c50 <jpegdata+0x8a0>
    2c4c:	09396ea2 	ldmdbeq	r9!, {r1, r5, r7, r9, sl, fp, sp, lr}
    2c50:	f1d2da7f 			; <UNDEFINED> instruction: 0xf1d2da7f
    2c54:	1d9cf7bf 	ldcne	7, cr15, [ip, #764]	; 0x2fc
    2c58:	f591f69b 	pldw	[r1, #1691]	; 0x69b
    2c5c:	1b669f01 	blne	19aa868 <ZAG+0x199ca50>
    2c60:	3e7f1b1e 	vmovcc.s8	r1, d15[4]
    2c64:	f95328b6 			; <UNDEFINED> instruction: 0xf95328b6
    2c68:	74fb056a 	ldrbtvc	r0, [fp], #1386	; 0x56a
    2c6c:	5ff2cfbb 	svcpl	0x00f2cfbb
    2c70:	5d0f56e1 	stcpl	6, cr5, [pc, #-900]	; 28f4 <jpegdata+0x544>
    2c74:	bfe2b37e 	svclt	0x00e2b37e
    2c78:	d1df8ffa 	ldrshle	r8, [pc, #250]	; 2d7a <jpegdata+0x9ca>
    2c7c:	a377121a 	cmnge	r7, #-1610612735	; 0xa0000001
    2c80:	1eeaf711 	mcrne	7, 7, pc, cr10, cr1, {0}	; <UNPREDICTABLE>
    2c84:	cc6665ca 	cfstr64gt	mvdx6, [r6], #-808	; 0xfffffcd8
    2c88:	9e5e6dc8 	cdpls	13, 5, cr6, cr14, cr8, {6}
    2c8c:	8e9cdcd5 	mrchi	12, 4, sp, cr12, cr5, {6}
    2c90:	58edd64c 	stmiapl	sp!, {r2, r3, r6, r9, sl, ip, lr, pc}^
    2c94:	2a149932 	bcs	529164 <ZAG+0x51b34c>
    2c98:	fb461e84 	blx	118a6b2 <ZAG+0x117c89a>
    2c9c:	c7928f8d 	ldrgt	r8, [r2, sp, lsl #31]
    2ca0:	38005470 	stmdacc	r0, {r4, r5, r6, sl, ip, lr}
    2ca4:	170a61f9 			; <UNDEFINED> instruction: 0x170a61f9
    2ca8:	ef5cd743 	svc	0x005cd743
    2cac:	1f5cb35a 	svcne	0x005cb35a
    2cb0:	e72ca992 			; <UNDEFINED> instruction: 0xe72ca992
    2cb4:	406426d9 	ldrdmi	r2, [r4], #-105	; 0xffffff97	; <UNPREDICTABLE>
    2cb8:	fdf5de03 	ldc2l	14, cr13, [r5, #12]!
    2cbc:	8d40a0ce 	stclhi	0, cr10, [r0, #-824]	; 0xfffffcc8
    2cc0:	b69ee895 			; <UNDEFINED> instruction: 0xb69ee895
    2cc4:	b936ba66 	ldmdblt	r6!, {r1, r2, r5, r6, r9, fp, ip, sp, pc}
    2cc8:	5f5470a9 	svcpl	0x005470a9
    2ccc:	4d315054 	ldcmi	0, cr5, [r1, #-336]!	; 0xfffffeb0
    2cd0:	135b382c 	cmpne	fp, #44, 16	; 0x2c0000
    2cd4:	556a432d 	strbpl	r4, [sl, #-813]!	; 0x32d
    2cd8:	cf21da53 	svcgt	0x0021da53
    2cdc:	85d88535 	ldrbhi	r8, [r8, #1333]	; 0x535
    2ce0:	b1cb7e52 	biclt	r7, fp, r2, asr lr
    2ce4:	46cabef3 			; <UNDEFINED> instruction: 0x46cabef3
    2ce8:	b2027aad 	andlt	r7, r2, #708608	; 0xad000
    2cec:	cd7ff3cf 	ldclgt	3, cr15, [pc, #-828]!	; 29b8 <jpegdata+0x608>
    2cf0:	f3c0cf74 			; <UNDEFINED> instruction: 0xf3c0cf74
    2cf4:	605dc48d 	subsvs	ip, sp, sp, lsl #9
    2cf8:	dc31681a 	ldcle	8, cr6, [r1], #-104	; 0xffffff98
    2cfc:	a0ac87fd 	strdge	r8, [ip], sp	; <UNPREDICTABLE>
    2d00:	813d104c 	teqhi	sp, ip, asr #32
    2d04:	11bd3532 			; <UNDEFINED> instruction: 0x11bd3532
    2d08:	5d9f7461 	cfldrspl	mvf7, [pc, #388]	; 2e94 <jpegdata+0xae4>
    2d0c:	960ee57f 			; <UNDEFINED> instruction: 0x960ee57f
    2d10:	f065dd68 			; <UNDEFINED> instruction: 0xf065dd68
    2d14:	a2fe4c7f 	rscsge	r4, lr, #32512	; 0x7f00
    2d18:	fccbd2c2 	stc2l	2, cr13, [fp], {194}	; 0xc2
    2d1c:	e377ef2e 	cmn	r7, #46, 30	; 0xb8
    2d20:	5e1288fc 	mrcpl	8, 0, r8, cr2, cr12, {7}
    2d24:	cb2b3edf 	blgt	ad28a8 <ZAG+0xac4a90>
    2d28:	71b93d8f 			; <UNDEFINED> instruction: 0x71b93d8f
    2d2c:	c3beed1b 			; <UNDEFINED> instruction: 0xc3beed1b
    2d30:	5d07e8f1 	stcpl	8, cr14, [r7, #-964]	; 0xfffffc3c
    2d34:	dd83d207 	sfmle	f5, 1, [r3, #28]
    2d38:	af8decc5 	svcge	0x008decc5
    2d3c:	5a1d6ce9 	bpl	75e0e8 <ZAG+0x7502d0>
    2d40:	a905cbf3 	stmdbge	r5, {r0, r1, r4, r5, r6, r7, r8, r9, fp, lr, pc}
    2d44:	682494a4 	stmdavs	r4!, {r2, r5, r7, sl, ip, pc}
    2d48:	7198dfaf 	orrsvc	sp, r8, pc, lsr #31
    2d4c:	77035544 	strvc	r5, [r3, -r4, asr #10]
    2d50:	e38d04e4 	orr	r0, sp, #228, 8	; 0xe4000000
    2d54:	76710f60 	ldrbtvc	r0, [r1], -r0, ror #30
    2d58:	a5d447e4 	ldrbge	r4, [r4, #2020]	; 0x7e4
    2d5c:	3d260390 	stccc	3, cr0, [r6, #-576]!	; 0xfffffdc0
    2d60:	a5e2fb4a 	strbge	pc, [r2, #2890]!	; 0xb4a	; <UNPREDICTABLE>
    2d64:	adbdfd67 	ldcge	13, cr15, [sp, #412]!	; 0x19c
    2d68:	27312435 			; <UNDEFINED> instruction: 0x27312435
    2d6c:	00b465ec 	adcseq	r6, r4, ip, ror #11
    2d70:	7e12791f 	mrcvc	9, 0, r7, cr2, cr15, {0}
    2d74:	3e7b64d0 	mrccc	4, 3, r6, cr11, cr0, {6}
    2d78:	a6b68aa6 	ldrtge	r8, [r6], r6, lsr #21
    2d7c:	152b66a5 	strne	r6, [fp, #-1701]!	; 0x6a5
    2d80:	422c78e5 	eormi	r7, ip, #15007744	; 0xe50000
    2d84:	89e548e2 	stmibhi	r5!, {r1, r5, r6, r7, fp, lr}^
    2d88:	3b30ba8a 	blcc	c317b8 <ZAG+0xc239a0>
    2d8c:	04790486 	ldrbteq	r0, [r9], #-1158	; 0x486
    2d90:	458f3b1f 	strmi	r3, [pc, #2847]	; 38b7 <jpegdata+0x1507>
    2d94:	ea410488 	b	1043fbc <ZAG+0x10361a4>
    2d98:	d8d48e46 	ldmle	r4, {r1, r2, r6, r9, sl, fp, pc}^
    2d9c:	6023183a 	eorvs	r1, r3, sl, lsr r8
    2da0:	ecf4608f 	ldcl	0, cr6, [r4], #572	; 0x23c
    2da4:	9713fdd4 			; <UNDEFINED> instruction: 0x9713fdd4
    2da8:	16a7d347 	strtne	sp, [r7], r7, asr #6
    2dac:	5ba6595e 	blpl	fe99932c <end+0xbe89932c>
    2db0:	8429841c 	strthi	r8, [r9], #-1052	; 0x41c
    2db4:	93cc2d81 	bicls	r2, ip, #8256	; 0x2040
    2db8:	38395d13 	ldmdacc	r9!, {r0, r1, r4, r8, sl, fp, ip, lr}
    2dbc:	6ebcd36e 	cdpvs	3, 11, cr13, cr12, cr14, {3}
    2dc0:	f128d4c5 			; <UNDEFINED> instruction: 0xf128d4c5
    2dc4:	9163341b 	cmnls	r3, fp, lsl r4
    2dc8:	4d72792e 	ldclmi	9, cr7, [r2, #-184]!	; 0xffffff48
    2dcc:	b76a00ff 			; <UNDEFINED> instruction: 0xb76a00ff
    2dd0:	ec164d19 	ldc	13, cr4, [r6], {25}
    2dd4:	c6c79493 			; <UNDEFINED> instruction: 0xc6c79493
    2dd8:	e16fb003 	cmn	pc, r3
    2ddc:	b3f13389 	mvnslt	r3, #603979778	; 0x24000002
    2de0:	0340122b 	movteq	r1, #555	; 0x22b
    2de4:	25894a48 	strcs	r4, [r9, #2632]	; 0xa48
    2de8:	7be4948c 	blvc	ff928020 <end+0xbf828020>
    2dec:	68aab841 	stmiavs	sl!, {r0, r6, fp, ip, sp, pc}
    2df0:	a69c84b7 			; <UNDEFINED> instruction: 0xa69c84b7
    2df4:	831d2005 	tsthi	sp, #5
    2df8:	9f490c7f 	svcls	0x00490c7f
    2dfc:	9258998d 	subsls	r9, r8, #2310144	; 0x234000
    2e00:	28461a00 	stmdacs	r6, {r9, fp, ip}^
    2e04:	41ce2532 	bicmi	r2, lr, r2, lsr r5
    2e08:	e9657414 	stmdb	r5!, {r2, r4, sl, ip, sp, lr}^
    2e0c:	9d5e8f32 	ldclls	15, cr8, [lr, #-200]	; 0xffffff38
    2e10:	0dcfcf74 	stcleq	15, cr12, [pc, #464]	; 2fe8 <jpegdata+0xc38>
    2e14:	4d3a1282 	lfmmi	f1, 4, [sl, #-520]!	; 0xfffffdf8
    2e18:	1365adde 	cmnne	r5, #14208	; 0x3780
    2e1c:	471758bc 			; <UNDEFINED> instruction: 0x471758bc
    2e20:	18080b0c 	stmdane	r8, {r2, r3, r8, r9, fp}
    2e24:	d7196caa 	ldrle	r6, [r9, -sl, lsr #25]
    2e28:	797dbb72 	ldmdbvc	sp!, {r1, r4, r5, r6, r8, r9, fp, ip, sp, pc}^
    2e2c:	ebe2522a 	bl	ff8976dc <end+0xbf7976dc>
    2e30:	8a4e6335 	bhi	139bb0c <ZAG+0x138dcf4>
    2e34:	a0adcc8a 	adcge	ip, sp, sl, lsl #25
    2e38:	66c04abe 			; <UNDEFINED> instruction: 0x66c04abe
    2e3c:	1204c14e 	andne	ip, r4, #-2147483629	; 0x80000013
    2e40:	335d9510 	cmpcc	sp, #16, 10	; 0x4000000
    2e44:	941a912c 	ldrls	r9, [sl], #-300	; 0x12c
    2e48:	764d3cfa 			; <UNDEFINED> instruction: 0x764d3cfa
    2e4c:	51d169ae 	bicspl	r6, r1, lr, lsr #19
    2e50:	17b49559 	sbfxne	r9, r9, #10, #21
    2e54:	642e18c9 	strtvs	r1, [lr], #-2249	; 0x8c9
    2e58:	090c06f9 	stmdbeq	ip, {r0, r3, r4, r5, r6, r7, r9, sl}
    2e5c:	06ac4a08 	strteq	r4, [ip], r8, lsl #20
    2e60:	a9b19275 	ldmibge	r1!, {r0, r2, r4, r5, r6, r9, ip, pc}
    2e64:	2accc9c2 	bcs	ff335574 <end+0xbf235574>
    2e68:	2064f1b4 	strhtcs	pc, [r4], #-20	; 0xffffffec	; <UNPREDICTABLE>
    2e6c:	24452f35 	strbcs	r2, [r5], #-3893	; 0xf35
    2e70:	b060f675 	rsblt	pc, r0, r5, ror r6	; <UNPREDICTABLE>
    2e74:	6c477c2c 	mcrrvs	12, 2, r7, r7, cr12
    2e78:	6ec447a3 	cdpvs	7, 12, cr4, cr4, cr3, {5}
    2e7c:	f70db8e5 			; <UNDEFINED> instruction: 0xf70db8e5
    2e80:	86db7007 	ldrbhi	r7, [fp], r7
    2e84:	511bb82d 	tstpl	fp, sp, lsr #16
    2e88:	7453b35c 	ldrbvc	fp, [r3], #-860	; 0x35c
    2e8c:	22eaa222 	rsccs	sl, sl, #536870914	; 0x20000002
    2e90:	a5212820 	strge	r2, [r1, #-2080]!	; 0x820
    2e94:	49a0f740 	stmibmi	r0!, {r6, r8, r9, sl, ip, sp, lr, pc}
    2e98:	242da6d7 	strtcs	sl, [sp], #-1751	; 0x6d7
    2e9c:	56681ec8 	strbtpl	r1, [r8], -r8, asr #29
    2ea0:	e247efac 	sub	lr, r7, #172, 30	; 0x2b0
    2ea4:	807d5563 	rsbshi	r5, sp, r3, ror #10
    2ea8:	9c9a1622 	ldcls	6, cr1, [sl], {34}	; 0x22
    2eac:	20b350f2 	ldrshtcs	r5, [r3], r2
    2eb0:	80da4c2e 	sbcshi	r4, sl, lr, lsr #24
    2eb4:	24495aac 	strbcs	r5, [r9], #-2732	; 0xaac
    2eb8:	86627668 	strbthi	r7, [r2], -r8, ror #12
    2ebc:	f2e26a2c 	vmlsl.s32	q11, d2, d28
    2ec0:	79569b10 	ldmdbvc	r6, {r4, r8, r9, fp, ip, pc}^
    2ec4:	7a7223c7 	bvc	1c8bde8 <ZAG+0x1c7dfd0>
    2ec8:	55cdc5f2 	strbpl	ip, [sp, #1522]	; 0x5f2
    2ecc:	8859391a 	ldmdahi	r9, {r1, r3, r4, r8, fp, ip, sp}^
    2ed0:	7d774688 	ldclvc	6, cr4, [r7, #-544]!	; 0xfffffde0
    2ed4:	b3ca5b99 	biclt	r5, sl, #156672	; 0x26400
    2ed8:	55b8e317 	ldrpl	lr, [r8, #791]!	; 0x317
    2edc:	6955c5d8 	ldmdbvs	r5, {r3, r4, r6, r7, r8, sl, lr, pc}^
    2ee0:	26836a0b 	strcs	r6, [r3], fp, lsl #20
    2ee4:	19a97d90 	stmibne	r9!, {r4, r7, r8, sl, fp, ip, sp, lr}
    2ee8:	9358a500 	cmpls	r8, #0, 10
    2eec:	83e03e86 	mvnhi	r3, #2144	; 0x860
    2ef0:	fa3827b5 	blx	e0cdcc <ZAG+0xdfefb4>
    2ef4:	16555c46 	ldrbne	r5, [r5], -r6, asr #24
    2ef8:	32a8b590 	adccc	fp, r8, #144, 10	; 0x24000000
    2efc:	b0da0779 	sbcslt	r0, sl, r9, ror r7
    2f00:	c42a05c8 	strtgt	r0, [sl], #-1480	; 0x5c8
    2f04:	a0fa319c 	smlalsge	r3, sl, ip, r1
    2f08:	bc24b583 	cfstr32lt	mvfx11, [r4], #-524	; 0xfffffdf4
    2f0c:	9546237d 	strbls	r2, [r6, #-893]	; 0x37d
    2f10:	4d734d7d 	ldclmi	13, cr4, [r3, #-500]!	; 0xfffffe0c
    2f14:	798bcedf 	stmibvc	fp, {r0, r1, r2, r3, r4, r6, r7, r9, sl, fp, lr, pc}
    2f18:	68ab8c33 	stmiavs	fp!, {r0, r1, r4, r5, sl, fp, pc}
    2f1c:	625236db 	subsvs	r3, r2, #229638144	; 0xdb00000
    2f20:	89872ec8 	stmibhi	r7, {r3, r6, r7, r9, sl, fp, sp}
    2f24:	824b8e4c 	subhi	r8, fp, #76, 28	; 0x4c0
    2f28:	90326db2 	ldrhtls	r6, [r2], -r2
    2f2c:	c73f16e0 	ldrgt	r1, [pc, -r0, ror #13]!
    2f30:	6977c580 	ldmdbvs	r7!, {r7, r8, sl, lr, pc}^
    2f34:	d2562527 	subsle	r2, r6, #163577856	; 0x9c00000
    2f38:	f877e8a5 			; <UNDEFINED> instruction: 0xf877e8a5
    2f3c:	7590b2d5 	ldrvc	fp, [r0, #725]	; 0x2d5
    2f40:	3e894af2 	mcrcc	10, 4, r4, cr9, cr2, {7}
    2f44:	10868640 	addne	r8, r6, r0, asr #12
    2f48:	b4fd58d0 	ldrbtlt	r5, [sp], #2256	; 0x8d0
    2f4c:	14fdae18 	ldrbtne	sl, [sp], #3608	; 0xe18
    2f50:	d4d92ae5 	ldrble	r2, [r9], #2789	; 0xae5
    2f54:	00ff0ebf 	ldrhteq	r0, [pc], #239
    2f58:	0359361a 	cmpeq	r9, #27262976	; 0x1a00000
    2f5c:	645092af 	ldrbvs	r9, [r0], #-687	; 0x2af
    2f60:	0e0d817c 	mcreq	1, 0, r8, cr13, cr12, {3}
    2f64:	7e2c6808 	cdpvc	8, 2, cr6, cr12, cr8, {0}
    2f68:	b4550cda 	ldrblt	r0, [r5], #-3290	; 0xcda
    2f6c:	e9e5d53d 	stmib	r5!, {r0, r2, r3, r4, r5, r8, sl, ip, lr, pc}^
    2f70:	cde58653 	stclgt	6, cr8, [r5, #332]!	; 0x14c
    2f74:	f1a8dc1d 			; <UNDEFINED> instruction: 0xf1a8dc1d
    2f78:	ec78a246 	lfm	f2, 3, [r8], #-280	; 0xfffffee8
    2f7c:	84b4513c 	ldrthi	r5, [r4], #316	; 0x13c
    2f80:	148319c8 	strne	r1, [r3], #2504	; 0x9c8
    2f84:	6c8cc561 	cfstr32vs	mvfx12, [ip], {97}	; 0x61
    2f88:	b6237f15 	qadd16lt	r7, r3, r5
    2f8c:	d86600ff 	stmdale	r6!, {r0, r1, r2, r3, r4, r5, r6, r7}^
    2f90:	a3bdd0ed 			; <UNDEFINED> instruction: 0xa3bdd0ed
    2f94:	31eed7cc 	mvncc	sp, ip, asr #15
    2f98:	29a6d754 	stmibcs	r6!, {r2, r4, r6, r8, r9, sl, ip, lr, pc}
    2f9c:	b347a8e0 	movtlt	sl, #30944	; 0x78e0
    2fa0:	11c32591 			; <UNDEFINED> instruction: 0x11c32591
    2fa4:	002be331 	eoreq	lr, fp, r1, lsr r3
    2fa8:	c7820c6e 	strgt	r0, [r2, lr, ror #24]
    2fac:	efb25fed 	svc	0x00b25fed
    2fb0:	f2c9baeb 	vmull.s<illegal width 8>	<illegal reg q13.5>, d25, d3[6]
    2fb4:	85f1b3d7 	ldrbhi	fp, [r1, #983]!	; 0x3d7
    2fb8:	490224d8 	stmdbmi	r2, {r3, r4, r6, r7, sl, sp}
    2fbc:	4e254860 	cdpmi	8, 2, cr4, cr5, cr0, {3}
    2fc0:	d9005289 	stmdble	r0, {r0, r3, r7, r9, ip, lr}
    2fc4:	bec95b05 	vdivlt.f64	d21, d9, d5
    2fc8:	ae470dc9 	cdpge	13, 4, cr0, cr7, cr9, {6}
    2fcc:	e907ea23 	stmdb	r7, {r0, r1, r5, r9, fp, sp, lr, pc}
    2fd0:	ac8d9c39 	stcge	12, cr9, [sp], {57}	; 0x39
    2fd4:	39df5e66 	ldmibcc	pc, {r1, r2, r5, r6, r9, sl, fp, ip, lr}^	; <UNPREDICTABLE>
    2fd8:	282ebda0 	stmdacs	lr!, {r5, r7, r8, sl, fp, ip, sp, pc}
    2fdc:	da496d18 	ble	125e444 <ZAG+0x125062c>
    2fe0:	9b49a194 	blls	126b638 <ZAG+0x125d820>
    2fe4:	f13a6487 			; <UNDEFINED> instruction: 0xf13a6487
    2fe8:	95140564 	ldrls	r0, [r4, #-1380]	; 0x564
    2fec:	5482b3e3 	strpl	fp, [r2], #995	; 0x3e3
    2ff0:	776a540f 	strbvc	r5, [sl, -pc, lsl #8]!
    2ff4:	4abd2934 	bmi	fef4d4cc <end+0xbee4d4cc>
    2ff8:	a8c49540 	stmiage	r4, {r6, r8, sl, ip, pc}^
    2ffc:	b62c0496 			; <UNDEFINED> instruction: 0xb62c0496
    3000:	18305680 	ldmdane	r0!, {r7, r9, sl, ip, lr}
    3004:	3001a293 	mulcc	r1, r3, r2
    3008:	4a4f34c6 	bmi	13d0328 <ZAG+0x13c2510>
    300c:	5deb853c 	cfstr64pl	mvdx8, [fp, #240]!	; 0xf0
    3010:	b0b73abd 	ldrhtlt	r3, [r7], sp
    3014:	14a0f95f 	strtne	pc, [r0], #2399	; 0x95f
    3018:	92150c62 	andsls	r0, r5, #25088	; 0x6200
    301c:	3e480257 	mcrcc	2, 2, r0, cr8, cr7, {2}
    3020:	65d44125 	ldrbvs	r4, [r4, #293]	; 0x125
    3024:	ea0b1d3a 	b	2ca514 <ZAG+0x2bc6fc>
    3028:	95ecb54c 	strbls	fp, [ip, #1356]!	; 0x54c
    302c:	9dd9d31b 	ldclls	3, cr13, [r9, #108]	; 0x6c
    3030:	985641ea 	ldmdals	r6, {r1, r3, r5, r6, r7, r8, lr}^
    3034:	35e99f86 	strbcc	r9, [r9, #3974]!	; 0xf86
    3038:	14abe519 	strtne	lr, [fp], #1305	; 0x519
    303c:	c64a0070 			; <UNDEFINED> instruction: 0xc64a0070
    3040:	5a498244 	bpl	1263958 <ZAG+0x1255b40>
    3044:	13be2441 			; <UNDEFINED> instruction: 0x13be2441
    3048:	e0366966 	eors	r6, r6, r6, ror #18
    304c:	f993e54e 			; <UNDEFINED> instruction: 0xf993e54e
    3050:	a2b1d6bb 	adcsge	sp, r1, #196083712	; 0xbb00000
    3054:	a8eeaf2d 	stmiage	lr!, {r0, r2, r3, r5, r8, r9, sl, fp, sp, pc}^
    3058:	74155391 	ldrvc	r5, [r5], #-913	; 0x391
    305c:	1d99552a 	cfldr32ne	mvfx5, [r9, #168]	; 0xa8
    3060:	e25f66f0 	subs	r6, pc, #240, 12	; 0xf000000
    3064:	3b21a092 	blcc	86b2b4 <ZAG+0x85d49c>
    3068:	98498c86 	stmdals	r9, {r1, r2, r7, sl, fp, pc}^
    306c:	75730bd0 	ldrbvc	r0, [r3, #-3024]!	; 0xbd0
    3070:	7c143df3 	ldcvc	13, cr3, [r4], {243}	; 0xf3
    3074:	934a1574 	movtls	r1, #42356	; 0xa574
    3078:	fdc7440a 	stc2l	4, cr4, [r7, #40]	; 0x28
    307c:	d8461043 	stmdale	r6, {r0, r1, r6, ip}^
    3080:	4893d5cf 	ldmmi	r3, {r0, r1, r2, r3, r6, r7, r8, sl, ip, lr, pc}
    3084:	579a0698 			; <UNDEFINED> instruction: 0x579a0698
    3088:	52ce5f4e 	sbcpl	r5, lr, #312	; 0x138
    308c:	653a3eab 	ldrvs	r3, [sl, #-3755]!	; 0xeab
    3090:	dad2d482 	ble	ff4b82a0 <end+0xbf3b82a0>
    3094:	05f94782 	ldrbeq	r4, [r9, #1922]!	; 0x782
    3098:	c4b1c478 	ldrtgt	ip, [r1], #1144	; 0x478
    309c:	70172a08 	andsvc	r2, r7, r8, lsl #20
    30a0:	7d574c18 	ldclvc	12, cr4, [r7, #-96]	; 0xffffffa0
    30a4:	d8c82dcf 	stmiale	r8, {r0, r1, r2, r3, r6, r7, r8, sl, fp, sp}^
    30a8:	3da32505 	cfstr32cc	mvfx2, [r3, #20]!
    30ac:	f894dad1 			; <UNDEFINED> instruction: 0xf894dad1
    30b0:	3834ca3b 	ldmdacc	r4!, {r0, r1, r3, r4, r5, r9, fp, lr, pc}
    30b4:	ace68dda 	stclge	13, cr8, [r6], #872	; 0x368
    30b8:	1f136649 	svcne	0x00136649
    30bc:	20aa1049 	adccs	r1, sl, r9, asr #32
    30c0:	94ef6310 	strbtls	r6, [pc], #784	; 30c8 <jpegdata+0xd18>
    30c4:	e40d0091 	str	r0, [sp], #-145	; 0x91
    30c8:	f35efbe3 	vqrdmulh.s16	<illegal reg q15.5>, q15, <illegal reg q9.5>
    30cc:	384da991 	stmdacc	sp, {r0, r4, r7, r8, fp, sp, pc}^
    30d0:	906f86e6 	rsbls	r8, pc, r6, ror #13
    30d4:	2a002d16 	bcs	e534 <ZAG+0x71c>
    30d8:	59400684 	stmdbpl	r0, {r2, r7, r9, sl}^
    30dc:	d105f283 	smlabble	r5, r3, r2, pc	; <UNPREDICTABLE>
    30e0:	a082b26c 	addge	fp, r2, ip, ror #4
    30e4:	4edd4902 	cdpmi	9, 13, cr4, cr13, cr2, {0}
    30e8:	dad2d79c 	ble	ff4b8f60 <end+0xbf3b8f60>
    30ec:	e7340a52 			; <UNDEFINED> instruction: 0xe7340a52
    30f0:	9d7a94b7 	cfldrdls	mvd9, [sl, #-732]!	; 0xfffffd24
    30f4:	cda9bfb0 	stcgt	15, cr11, [r9, #704]!	; 0x2c0
    30f8:	1cdbc32d 	ldclne	3, cr12, [fp], {45}	; 0x2d
    30fc:	3939d155 	ldmdbcc	r9!, {r0, r2, r4, r6, r8, ip, lr, pc}
    3100:	6073dc74 	rsbsvs	sp, r3, r4, ror ip
    3104:	62874bca 	addvs	r4, r7, #206848	; 0x32800
    3108:	95c5b8e7 	strbls	fp, [r5, #2279]	; 0x8e7
    310c:	e8e3d5c6 	stmia	r3!, {r1, r2, r6, r7, r8, sl, ip, lr, pc}^
    3110:	a72bf930 			; <UNDEFINED> instruction: 0xa72bf930
    3114:	fa4ac1c8 	blx	12b383c <ZAG+0x12a5a24>
    3118:	a0254100 	eorge	r4, r5, r0, lsl #2
    311c:	cc002000 	stcgt	0, cr2, [r0], {-0}
    3120:	f128435b 			; <UNDEFINED> instruction: 0xf128435b
    3124:	e93a1053 	ldmdb	sl!, {r0, r1, r4, r6, ip}
    3128:	716b7c1a 	cmnvc	fp, sl, lsl ip
    312c:	e4d82a5c 	ldrb	r2, [r8], #2652	; 0xa5c
    3130:	9a9396d5 	bls	fe4e8c8c <end+0xbe3e8c8c>
    3134:	875505a0 	ldrbhi	r0, [r5, -r0, lsr #11]
    3138:	134c8920 	movtne	r8, #51488	; 0xc920
    313c:	ba580a34 	blt	1605a14 <ZAG+0x15f7bfc>
    3140:	7d5173fc 	ldclvc	3, cr7, [r1, #-1008]	; 0xfffffc10
    3144:	e6105026 	ldr	r5, [r0], -r6, lsr #32
    3148:	1ff6dce9 	svcne	0x00f6dce9
    314c:	4e2b5f0b 	cdpmi	15, 2, cr5, cr11, cr11, {0}
    3150:	1332e4ba 	teqne	r2, #-1174405120	; 0xba000000
    3154:	26142363 	ldrcs	r2, [r4], -r3, ror #6
    3158:	964a2159 			; <UNDEFINED> instruction: 0x964a2159
    315c:	9d81ca44 	vstrls	s24, [r1, #272]	; 0x110
    3160:	7c149158 	ldfvcd	f1, [r4], {88}	; 0x58
    3164:	bc4734d8 	cfstrdlt	mvd3, [r7], {216}	; 0xd8
    3168:	070e2384 	streq	r2, [lr, -r4, lsl #7]
    316c:	d291977d 	addsle	r9, r1, #32768000	; 0x1f40000
    3170:	e2b6b9b8 	adcs	fp, r6, #184, 18	; 0x2e0000
    3174:	d6da29ef 	ldrble	r2, [sl], pc, ror #19
    3178:	a560054c 	strbge	r0, [r0, #-1356]!	; 0x54c
    317c:	cc508848 	mrrcgt	8, 4, r8, r0, cr8
    3180:	8824c846 	stmdahi	r4!, {r1, r2, r6, fp, lr, pc}
    3184:	404b6623 	submi	r6, fp, r3, lsr #12
    3188:	27492413 	smlaldcs	r2, r9, r3, r4
    318c:	5a8af6c2 	bpl	fe2c0c9c <end+0xbe1c0c9c>
    3190:	ae5f5cd9 	mrcge	12, 2, r5, cr15, cr9, {6}
    3194:	7a2aa834 	bvc	aad26c <ZAG+0xa9f454>
    3198:	01401627 	cmpeq	r0, r7, lsr #12
    319c:	8ca00467 	cfstrshi	mvf0, [r0], #412	; 0x19c
    31a0:	876a10a3 	strbhi	r1, [sl, -r3, lsr #1]!
    31a4:	19990896 	ldmibne	r9, {r1, r2, r4, r7, fp}
    31a8:	0239f2a7 	eorseq	pc, r9, #1879048202	; 0x7000000a
    31ac:	666aa8cb 	strbtvs	sl, [sl], -fp, asr #17
    31b0:	c48f2b13 	strgt	r2, [pc], #2835	; 31b8 <jpegdata+0xe08>
    31b4:	5762b151 			; <UNDEFINED> instruction: 0x5762b151
    31b8:	f9798b70 			; <UNDEFINED> instruction: 0xf9798b70
    31bc:	18bba842 	ldmne	fp!, {r1, r6, fp, sp, pc}
    31c0:	5c558afb 	mrrcpl	10, 15, r8, r5, cr11
    31c4:	46566309 	ldrbmi	r6, [r6], -r9, lsl #6
    31c8:	23430b60 	movtcs	r0, #15200	; 0x3b60
    31cc:	a0ccd1ae 	sbcge	sp, ip, lr, lsr #3
    31d0:	f1c72bb0 			; <UNDEFINED> instruction: 0xf1c72bb0
    31d4:	4779d4f6 			; <UNDEFINED> instruction: 0x4779d4f6
    31d8:	891caae5 	ldmdbhi	ip, {r0, r2, r5, r6, r7, r9, fp, sp, pc}
    31dc:	23ca0a0b 	biccs	r0, sl, #45056	; 0xb000
    31e0:	93bd01e9 			; <UNDEFINED> instruction: 0x93bd01e9
    31e4:	8c89efbf 	stchi	15, cr14, [r9], {191}	; 0xbf
    31e8:	351d09b6 	ldrcc	r0, [sp, #-2486]	; 0x9b6
    31ec:	5cf72eaf 	ldclpl	14, cr2, [r7], #700	; 0x2bc
    31f0:	14aa5972 	strtne	r5, [sl], #2418	; 0x972
    31f4:	8b4e6650 	blhi	139cb3c <ZAG+0x138ed24>
    31f8:	7d3ce403 	cfldrsvc	mvf14, [ip, #-12]!
    31fc:	0cc104a8 	cfstrdeq	mvd0, [r1], {168}	; 0xa8
    3200:	80be6403 	adcshi	r6, lr, r3, lsl #8
    3204:	8fabe389 	svchi	0x00abe389
    3208:	b4f261c7 	ldrbtlt	r6, [r2], #455	; 0x1c7
    320c:	789ecaa5 	ldmvc	lr, {r0, r2, r5, r7, r9, fp, lr, pc}
    3210:	932a9aa7 	teqls	sl, #684032	; 0xa7000
    3214:	521cb1f2 	andspl	fp, ip, #-2147483588	; 0x8000003c
    3218:	fba69224 	blx	fe9a7ab2 <end+0xbe8a7ab2>
    321c:	e105bb6d 	tst	r5, sp, ror #22
    3220:	005892e4 	subseq	r9, r8, r4, ror #5
    3224:	db6db002 	blle	1b6f234 <ZAG+0x1b6141c>
    3228:	edb24f88 	ldc	15, cr4, [r2, #544]!	; 0x220
    322c:	aa4b2bcb 	bge	12ce160 <ZAG+0x12c0348>
    3230:	3a5b2f75 	bcc	16cf00c <ZAG+0x16c11f4>
    3234:	aa12565a 	bge	498ba4 <ZAG+0x48ad8c>
    3238:	a97f7072 	ldmdbge	pc!, {r1, r4, r5, r6, ip, sp, lr}^	; <UNPREDICTABLE>
    323c:	92641f03 	rsbls	r1, r4, #3, 30
    3240:	02d98000 	sbcseq	r8, r9, #0
    3244:	bf1c1a71 	svclt	0x001c1a71
    3248:	456b45ea 	strbmi	r4, [fp, #-1514]!	; 0x5ea
    324c:	d18a5651 	orrle	r5, sl, r1, asr r6
    3250:	8d5c7446 	cfldrdhi	mvd7, [ip, #-280]	; 0xfffffee8
    3254:	004b5940 	subeq	r5, fp, r0, asr #18
    3258:	540058c1 	strpl	r5, [r0], #-2241	; 0x8c1
    325c:	987cd930 	ldmdals	ip!, {r4, r5, r8, fp, ip, lr, pc}^
    3260:	4d05a720 	stcmi	7, cr10, [r5, #-128]	; 0xffffff80
    3264:	58067142 	stmdapl	r6, {r1, r6, r8, ip, sp, lr}
    3268:	297d757c 	ldmdbcs	sp!, {r2, r3, r4, r5, r6, r8, sl, ip, sp, lr}^
    326c:	b671ac15 			; <UNDEFINED> instruction: 0xb671ac15
    3270:	ef609e67 	svc	0x00609e67
    3274:	2fba02fb 	svccs	0x00ba02fb
    3278:	2ce31580 	cfstr64cs	mvdx1, [r3], #512	; 0x200
    327c:	1004f67f 	andne	pc, r4, pc, ror r6	; <UNPREDICTABLE>
    3280:	5955ea46 	ldmdbpl	r5, {r1, r2, r6, r9, fp, sp, lr, pc}^
    3284:	f85cfe49 			; <UNDEFINED> instruction: 0xf85cfe49
    3288:	051c0a9b 	ldreq	r0, [ip, #-2715]	; 0xa9b
    328c:	b606963a 			; <UNDEFINED> instruction: 0xb606963a
    3290:	80ded26e 	sbcshi	sp, lr, lr, ror #4
    3294:	52416820 	subpl	r6, r1, #32, 16	; 0x200000
    3298:	cf20eec7 	svcgt	0x0020eec7
    329c:	276540d2 			; <UNDEFINED> instruction: 0x276540d2
    32a0:	bc9467ee 	ldclt	7, cr6, [r4], {238}	; 0xee
    32a4:	dd3acaa9 	vldmdble	sl!, {s24-s192}
    32a8:	005465fc 	ldrsheq	r6, [r4], #-92	; 0xffffffa4
    32ac:	3e3b91bf 	mrccc	1, 1, r9, cr11, cr15, {5}
    32b0:	ae0f6ee0 	cdpge	14, 0, cr6, cr15, cr0, {7}
    32b4:	d63533b8 			; <UNDEFINED> instruction: 0xd63533b8
    32b8:	d1d22dc6 	bicsle	r2, r2, r6, asr #27
    32bc:	12312058 	eorsne	r2, r1, #88	; 0x58
    32c0:	020a6525 	andeq	r6, sl, #155189248	; 0x9400000
    32c4:	7c324f82 	ldcvc	15, cr4, [r2], #-520	; 0xfffffdf8
    32c8:	c907016e 	stmdbgt	r7, {r1, r2, r3, r5, r6, r8}
    32cc:	c7dfc63f 			; <UNDEFINED> instruction: 0xc7dfc63f
    32d0:	aa955caf 	bge	fe55a594 <end+0xbe45a594>
    32d4:	0a355ade 	beq	d59e54 <ZAG+0xd4c03c>
    32d8:	623452da 	eorsvs	r5, r4, #-1610612723	; 0xa000000d
    32dc:	fb41123d 	blx	1047bda <ZAG+0x1039dc2>
    32e0:	3ff7114c 	svccc	0x00f7114c
    32e4:	1b3af468 	blne	ec048c <ZAG+0xeb2674>
    32e8:	da387c6f 	ble	e224ac <ZAG+0xe14694>
    32ec:	0188f1a2 	orreq	pc, r8, r2, lsr #3
    32f0:	08204936 	stmdaeq	r0!, {r1, r2, r4, r5, r8, fp, lr}
    32f4:	023ac98d 	eorseq	ip, sl, #2310144	; 0x234000
    32f8:	7d6f7f27 	stclvc	15, cr7, [pc, #-156]!	; 3264 <jpegdata+0xeb4>
    32fc:	0e356267 	cdpeq	2, 3, cr6, cr5, cr7, {3}
    3300:	3c128e4e 	ldccc	14, cr8, [r2], {78}	; 0x4e
    3304:	830a0276 	movwhi	r0, #41590	; 0xa276
    3308:	39920921 	ldmibcc	r2, {r0, r5, r8, fp}
    330c:	3da3e5ac 	cfstr32cc	mvfx14, [r3, #688]!	; 0x2b0
    3310:	c6a4c4ba 			; <UNDEFINED> instruction: 0xc6a4c4ba
    3314:	db44ed37 	blle	113e7f8 <ZAG+0x11309e0>
    3318:	6f2fc9ce 	svcvs	0x002fc9ce
    331c:	c51396c0 	ldrgt	r9, [r3, #-1728]	; 0x6c0
    3320:	0a4fdaa4 	beq	13f9db8 <ZAG+0x13ebfa0>
    3324:	e4d60e0e 	ldrb	r0, [r6], #3598	; 0xe0e
    3328:	1b68edad 	blne	1a3e9e4 <ZAG+0x1a30bcc>
    332c:	819a0504 	orrshi	r0, sl, r4, lsl #10
    3330:	49169086 	ldmdbmi	r6, {r1, r2, r7, ip, pc}
    3334:	b699d666 	ldrlt	sp, [r9], r6, ror #12
    3338:	18e22abb 	stmiane	r2!, {r0, r1, r3, r4, r5, r7, r9, fp, sp}^
    333c:	04116c1d 	ldreq	r6, [r1], #-3101	; 0xc1d
    3340:	ab757af9 	blge	1d61f2c <ZAG+0x1d54114>
    3344:	55857c9a 	strpl	r7, [r5, #3226]	; 0xc9a
    3348:	4250e6c3 	subsmi	lr, r0, #204472320	; 0xc300000
    334c:	5df195cc 	cfldr64pl	mvdx9, [r1, #816]!	; 0x330
    3350:	60fed418 	rscsvs	sp, lr, r8, lsl r4
    3354:	d927f891 	stmdble	r7!, {r0, r4, r7, fp, ip, sp, lr, pc}
    3358:	90dd7a8d 	sbcsls	r7, sp, sp, lsl #21
    335c:	bad71df7 	blt	ff5cab40 <end+0xbf4cab40>
    3360:	5d67b6c6 	stclpl	6, cr11, [r7, #-792]!	; 0xfffffce8
    3364:	b988469c 	stmiblt	r8, {r2, r3, r4, r7, r9, sl, lr}
    3368:	a7bd050d 	ldrge	r0, [sp, sp, lsl #10]!
    336c:	e352ecb4 	cmp	r2, #180, 24	; 0xb400
    3370:	28d2b0a0 	ldmcs	r2, {r5, r7, ip, sp, pc}^
    3374:	a30d65ad 	movwge	r6, #54701	; 0xd5ad
    3378:	d20ae45f 	andle	lr, sl, #1593835520	; 0x5f000000
    337c:	1ccb3213 	sfmne	f3, 2, [fp], {19}
    3380:	9ed623e9 	cdpls	3, 13, cr2, cr6, cr9, {7}
    3384:	08eb5955 	stmiaeq	fp!, {r0, r2, r4, r6, r8, fp, ip, lr}^
    3388:	ac7a6d11 	ldclge	13, cr6, [sl], #-68	; 0xffffffbc
    338c:	162aeed5 			; <UNDEFINED> instruction: 0x162aeed5
    3390:	7ca8c8d4 	stcvc	8, cr12, [r8], #848	; 0x350
    3394:	82ca3e80 	sbchi	r3, sl, #128, 28	; 0x800
    3398:	0164fa63 	msreq	(UNDEF: 100), r3
    339c:	2b981e3b 	blcs	fe60ac90 <end+0xbe50ac90>
    33a0:	9cc0e203 	sfmls	f6, 3, [r0], {3}
    33a4:	c5fd5d02 	ldrbgt	r5, [sp, #3330]!	; 0xd02
    33a8:	dc0b352e 	cfstr32le	mvfx3, [fp], {46}	; 0x2e
    33ac:	a05c58b0 	ldrhge	r5, [ip], #-128	; 0xffffff80
    33b0:	7a8da490 	bvc	fe36c5f8 <end+0xbe26c5f8>
    33b4:	5982a8c8 	stmibpl	r2, {r3, r6, r7, fp, sp, pc}
    33b8:	2c812440 	cfstrscs	mvf2, [r1], {64}	; 0x40
    33bc:	d78360b2 			; <UNDEFINED> instruction: 0xd78360b2
    33c0:	19f694d6 	ldmibne	r6!, {r1, r2, r4, r6, r7, sl, ip, pc}^
    33c4:	896dacd3 	stmdbhi	sp!, {r0, r1, r4, r6, r7, sl, fp, sp, pc}^
    33c8:	928249af 	addls	r4, r2, #2867200	; 0x2bc000
    33cc:	5715cab5 			; <UNDEFINED> instruction: 0x5715cab5
    33d0:	8d1c251f 	cfldr32hi	mvfx2, [ip, #-124]	; 0xffffff84
    33d4:	9669e6a8 	strbtls	lr, [r9], -r8, lsr #13
    33d8:	a58427cc 	strge	r2, [r4, #1996]	; 0x7cc
    33dc:	32856724 	addcc	r6, r5, #36, 14	; 0x900000
    33e0:	9ba8b451 	blls	fea3052c <end+0xbe93052c>
    33e4:	8d9c9a86 	vldrhi	s18, [ip, #536]	; 0x218
    33e8:	b4912818 	ldrlt	r2, [r1], #2072	; 0x818
    33ec:	51f0ed9f 			; <UNDEFINED> instruction: 0x51f0ed9f
    33f0:	55dceae4 	ldrbpl	lr, [ip, #2788]	; 0xae4
    33f4:	92b882a6 	adcsls	r8, r8, #1610612746	; 0x6000000a
    33f8:	c582f84b 	strgt	pc, [r2, #2123]	; 0x84b
    33fc:	ea023930 	b	918c4 <ZAG+0x83aac>
    3400:	89237ea2 	stmdbhi	r3!, {r1, r5, r7, r9, sl, fp, ip, sp, lr}
    3404:	3ef9082c 	cdpcc	8, 15, cr0, cr9, cr12, {1}
    3408:	9295c530 	addsls	ip, r5, #48, 10	; 0xc000000
    340c:	02d64305 	sbcseq	r4, r6, #335544320	; 0x14000000
    3410:	4a04dc83 	bmi	13a624 <ZAG+0x12c80c>
    3414:	b2645daa 	rsblt	r5, r4, #10880	; 0x2a80
    3418:	4150a8c0 	cmpmi	r0, r0, asr #17
    341c:	016eba20 	cmneq	lr, r0, lsr #20
    3420:	c4097682 	strgt	r7, [r9], #-1666	; 0x682
    3424:	32460a17 	subcc	r0, r6, #94208	; 0x17000
    3428:	b7efeaa4 	strblt	lr, [pc, r4, lsr #21]!
    342c:	19aa388a 	stmibne	sl!, {r1, r3, r7, fp, ip, sp}
    3430:	d456359d 	ldrble	r3, [r6], #-1437	; 0x59d
    3434:	afddaa96 	svcge	0x00ddaa96
    3438:	dbcdc518 	blle	ff3748a0 <end+0xbf2748a0>
    343c:	2a79b5da 	bcs	1e70bac <ZAG+0x1e62d94>
    3440:	3d06a2a2 	sfmcc	f2, 1, [r6, #-648]	; 0xfffffd78
    3444:	b34dd1b2 	movtlt	sp, #53682	; 0xd1b2
    3448:	a4a492c6 	strtge	r9, [r4], #710	; 0x2c6
    344c:	3eeac7cb 	cdpcc	7, 14, cr12, cr10, cr11, {6}
    3450:	b5743daa 	ldrblt	r3, [r4, #-3498]!	; 0xdaa
    3454:	dcf35a92 	vldmiale	r3!, {s11-s156}
    3458:	a6a6d273 			; <UNDEFINED> instruction: 0xa6a6d273
    345c:	3855469d 	ldmdacc	r5, {r0, r2, r3, r4, r7, r9, sl, lr}^
    3460:	212a841d 	teqcs	sl, sp, lsl r4
    3464:	19025859 	stmdbne	r2, {r0, r3, r4, r6, fp, ip, lr}
    3468:	826a211e 	rsbhi	r2, sl, #-2147483641	; 0x80000007
    346c:	140222df 	strne	r2, [r2], #-735	; 0x2df
    3470:	91b690f8 	ldrshls	r9, [r6, r8]!
    3474:	f6f25ac7 			; <UNDEFINED> instruction: 0xf6f25ac7
    3478:	82a92d15 	adchi	r2, r9, #1344	; 0x540
    347c:	a7b0ca8c 	ldrge	ip, [r0, ip, lsl #21]!
    3480:	2a06856a 	bcs	1a4a30 <ZAG+0x196c18>
    3484:	0d9982c1 	lfmeq	f0, 1, [r9, #772]	; 0x304
    3488:	e86239eb 	stmda	r2!, {r0, r1, r3, r5, r6, r7, r8, fp, ip, sp}^
    348c:	420a5308 	andmi	r5, sl, #8, 6	; 0x20000000
    3490:	a7d3fac5 	ldrbge	pc, [r3, r5, asr #21]	; <UNPREDICTABLE>
    3494:	cb9f9ed9 	blgt	fe7eb000 <end+0xbe6eb000>
    3498:	50d41c46 	sbcspl	r1, r4, r6, asr #24
    349c:	236eb357 	cmncs	lr, #1543503873	; 0x5c000001
    34a0:	c28ed732 	addgt	sp, lr, #13107200	; 0xc80000
    34a4:	31602449 	cmncc	r0, r9, asr #8
    34a8:	7652b85f 			; <UNDEFINED> instruction: 0x7652b85f
    34ac:	f2c16ddf 			; <UNDEFINED> instruction: 0xf2c16ddf
    34b0:	e10efe0e 	tst	lr, lr, lsl #28
    34b4:	f1df9b80 			; <UNDEFINED> instruction: 0xf1df9b80
    34b8:	45693c97 	strbmi	r3, [r9, #-3223]!	; 0xc97
    34bc:	131600b9 	tstne	r6, #185	; 0xb9
    34c0:	8d1b0912 	ldchi	9, cr0, [fp, #-72]	; 0xffffffb8
    34c4:	8f7dfbc7 	svchi	0x007dfbc7
    34c8:	310241e6 	smlattcc	r2, r6, r1, r4
    34cc:	5c3771c9 	ldfpls	f7, [r7], #-804	; 0xfffffcdc
    34d0:	00bb4449 	adcseq	r4, fp, r9, asr #8
    34d4:	04890933 	streq	r0, [r9], #2355	; 0x933
    34d8:	3fb8918d 	svccc	0x00b8918d
    34dc:	f3c73ee6 			; <UNDEFINED> instruction: 0xf3c73ee6
    34e0:	13818120 	orrne	r8, r1, #32, 2
    34e4:	22511244 	subscs	r1, r1, #68, 4	; 0x40000004
    34e8:	a35d393b 	cmpge	sp, #966656	; 0xec000
    34ec:	b742e12a 	strblt	lr, [r2, -sl, lsr #2]
    34f0:	8e8de421 	cdphi	4, 8, cr14, cr13, cr1, {1}
    34f4:	61436ee3 	smlalttvs	r6, r3, r3, lr
    34f8:	fe0e92b7 	mcr2	2, 0, r9, cr14, cr7, {5}
    34fc:	fd4c2236 	stc2l	2, cr2, [ip, #-216]	; 0xffffff28
    3500:	60a512ba 	strhtvs	r1, [r5], sl
    3504:	fef637e4 	cdp2	7, 15, cr3, cr6, cr4, {7}
    3508:	f5d6f7f3 	pld	[r6, #2035]	; 0x7f3
    350c:	75ee8d3f 	strbvc	r8, [lr, #3391]!	; 0xd3f
    3510:	614e7707 	cmpvs	lr, r7, lsl #14
    3514:	54f2f6b2 	ldrbtpl	pc, [r2], #1714	; 0x6b2	; <UNPREDICTABLE>
    3518:	378b1397 			; <UNDEFINED> instruction: 0x378b1397
    351c:	599456ae 	ldmibpl	r4, {r1, r2, r3, r5, r7, r9, sl, ip, lr}
    3520:	6247560f 	subvs	r5, r7, #15728640	; 0xf00000
    3524:	58deb7e7 	ldmpl	lr, {r0, r1, r2, r5, r6, r7, r8, r9, sl, ip, sp, pc}^
    3528:	9b8d23cb 	blls	fe34c45c <end+0xbe24c45c>
    352c:	aa10528c 	bge	417f64 <ZAG+0x40a14c>
    3530:	1f879b44 	svcne	0x00879b44
    3534:	283600b8 	ldmdacs	r6!, {r3, r4, r5, r7}
    3538:	25bdd759 	ldrcs	sp, [sp, #1881]!	; 0x759
    353c:	9169a928 	cmnls	r9, r8, lsr #18
    3540:	f713faeb 	pldw	[r3, -fp, ror #21]
    3544:	0f0c90fb 	svceq	0x000c90fb
    3548:	8a1e68bc 	bhi	79d840 <ZAG+0x78fa28>
    354c:	545ddb59 	ldrbpl	sp, [sp], #-2905	; 0xb59
    3550:	96da82aa 	ldrbls	r8, [sl], sl, lsr #5
    3554:	132da74c 	teqne	sp, #76, 14	; 0x1300000
    3558:	95801cbf 	strls	r1, [r0, #3263]	; 0xcbf
    355c:	80a4303a 	adchi	r3, r4, sl, lsr r0
    3560:	b047e621 	sublt	lr, r7, r1, lsr #12
    3564:	2deaeb00 	stclcs	11, cr14, [sl]
    3568:	09d39035 	ldmibeq	r3, {r0, r2, r4, r5, ip, pc}^
    356c:	9c4abe56 	mcrrls	14, 5, fp, sl, cr6
    3570:	1994e435 	ldmibne	r4, {r0, r2, r4, r5, sl, sp, lr, pc}
    3574:	d6399ae2 	ldrtle	r9, [r9], -r2, ror #21
    3578:	a86c3c53 	stmdage	ip!, {r0, r1, r4, r6, sl, fp, ip, sp}^
    357c:	2a578155 	bcs	15e3ad8 <ZAG+0x15d5cc0>
    3580:	75f5f363 	ldrbvc	pc, [r5, #867]!	; 0x363	; <UNPREDICTABLE>
    3584:	6e5c121b 	mrcvs	2, 2, r1, cr12, cr11, {0}
    3588:	aebe904a 	cdpge	0, 11, cr9, cr14, cr10, {2}
    358c:	545a6b2d 	ldrbpl	r6, [sl], #-2861	; 0xb2d
    3590:	2408ebf8 	strcs	lr, [r8], #-3064	; 0xbf8
    3594:	41103d02 	tstmi	r0, r2, lsl #26
    3598:	201a41f4 			; <UNDEFINED> instruction: 0x201a41f4
    359c:	7a4200ff 	bvc	10839a0 <ZAG+0x1075b88>
    35a0:	5e6579c5 	cdppl	9, 6, cr7, cr5, cr5, {6}
    35a4:	40572ac8 	subsmi	r2, r7, r8, asr #21
    35a8:	8320d809 	teqhi	r0, #589824	; 0x90000
    35ac:	10418020 	subne	r8, r1, r0, lsr #32
    35b0:	23f82b48 	mvnscs	r2, #72, 22	; 0x12000
    35b4:	c424e444 	strtgt	lr, [r4], #-1092	; 0x444
    35b8:	a7330d0d 	ldrge	r0, [r3, -sp, lsl #26]!
    35bc:	2d39d465 	cfldrscs	mvf13, [r9, #-404]!	; 0xfffffe6c
    35c0:	1ff1953a 	svcne	0x00f1953a
    35c4:	92251922 	eorls	r1, r5, #557056	; 0x88000
    35c8:	dfbed729 	svcle	0x00bed729
    35cc:	bd27ccee 	stclt	12, cr12, [r7, #-952]!	; 0xfffffc48
    35d0:	d7058537 	smladxle	r5, r7, r5, r8
    35d4:	c8065d68 	stmdagt	r6, {r3, r5, r6, r8, sl, fp, ip, lr}
    35d8:	503f9ea4 	eorspl	r9, pc, r4, lsr #29
    35dc:	8ef576cc 	cdphi	6, 15, cr7, cr5, cr12, {6}
    35e0:	edaddada 	stc	10, cr13, [sp, #872]!	; 0x368
    35e4:	f9446d63 			; <UNDEFINED> instruction: 0xf9446d63
    35e8:	107a8d1d 	rsbsne	r8, sl, sp, lsl sp
    35ec:	2026a977 	eorcs	sl, r6, r7, ror r9
    35f0:	e8930098 	ldm	r3, {r3, r4, r7}
    35f4:	bbad6302 	bllt	feb5c204 <end+0xbea5c204>
    35f8:	abbb362b 	blge	feed0eac <end+0xbedd0eac>
    35fc:	828c126e 	addhi	r1, ip, #-536870906	; 0xe0000006
    3600:	583e3b48 	ldmdapl	lr!, {r3, r6, r8, r9, fp, ip, sp}
    3604:	61a937f9 	strdvs	r3, [r9, r9]!
    3608:	04854008 	streq	r4, [r5], #8
    360c:	8c05f198 	stfhid	f7, [r5], {152}	; 0x98
    3610:	afe9de74 	svcge	0x00e9de74
    3614:	1c7d724d 	lfmne	f7, 2, [sp], #-308	; 0xfffffecc
    3618:	767d78d6 			; <UNDEFINED> instruction: 0x767d78d6
    361c:	ec1932f4 	lfm	f3, 4, [r9], {244}	; 0xf4
    3620:	62c990b6 	sbcvs	r9, r9, #182	; 0xb6
    3624:	2be17133 	blcs	ff85faf8 <end+0xbf75faf8>
    3628:	db966856 	blle	fe59d788 <end+0xbe49d788>
    362c:	786588ad 	stmdavc	r5!, {r0, r2, r3, r5, r7, fp, pc}^
    3630:	311c7016 	tstcc	ip, r6, lsl r0
    3634:	182b125e 	stmdane	fp!, {r1, r2, r3, r4, r6, r9, ip}
    3638:	1b0580d5 	blne	163994 <ZAG+0x155b7c>
    363c:	6a207972 	bvs	821c0c <ZAG+0x813df4>
    3640:	ca9bedb8 	bgt	fe6fed28 <end+0xbe5fed28>
    3644:	59d29954 	ldmibpl	r2, {r2, r4, r6, r8, fp, ip, pc}^
    3648:	13571297 	cmpne	r7, #1879048201	; 0x70000009
    364c:	91c286bc 	strhls	r8, [r2, #108]	; 0x6c
    3650:	b8b78a21 	ldmlt	r7!, {r0, r5, r9, fp, pc}
    3654:	7ce68e91 	stclvc	14, cr8, [r6], #580	; 0x244
    3658:	d15e1d43 	cmple	lr, r3, asr #26
    365c:	5a6da3b8 	bpl	1b6c544 <ZAG+0x1b5e72c>
    3660:	20aac9a1 	adccs	ip, sl, r1, lsr #19
    3664:	82291442 	eorhi	r1, r9, #1107296256	; 0x42000000
    3668:	bc03245a 	cfstrslt	mvf2, [r3], {90}	; 0x5a
    366c:	324ef98a 	subcc	pc, lr, #2260992	; 0x228000
    3670:	a8bd1c3d 	popge	{r0, r2, r3, r4, r5, sl, fp, ip}
    3674:	ef259ff5 	svc	0x00259ff5
    3678:	7e291bbe 	vmovvc.16	d25[2], r1
    367c:	5a1d2bde 	bpl	74e5fc <ZAG+0x7407e4>
    3680:	0d3b35a4 	cfldr32eq	mvfx3, [fp, #-656]!	; 0xfffffd70
    3684:	92283f0e 	eorls	r3, r8, #14, 30	; 0x38
    3688:	eedf9bb5 	vmov.u8	r9, d31[1]
    368c:	1e515924 	cdpne	9, 5, cr5, cr1, cr4, {1}
    3690:	788fe32d 	stmvc	pc, {r0, r2, r3, r5, r8, r9, sp, lr, pc}	; <UNPREDICTABLE>
    3694:	7373523b 	cmnvc	r3, #-1342177277	; 0xb0000003
    3698:	16c860f4 			; <UNDEFINED> instruction: 0x16c860f4
    369c:	dd94c150 	ldfled	f4, [r4, #320]	; 0x140
    36a0:	1572cf0e 	ldrbne	ip, [r2, #-3854]!	; 0xf0e
    36a4:	b024936b 	eorlt	r9, r4, fp, ror #6
    36a8:	030b6324 	movweq	r6, #45860	; 0xb324
    36ac:	0b928944 	bleq	fe4a5bc4 <end+0xbe3a5bc4>
    36b0:	a4b2014c 	ldrtge	r0, [r2], #332	; 0x14c
    36b4:	7a058113 	bvc	163b08 <ZAG+0x155cf0>
    36b8:	19b14b39 	ldmibne	r1!, {r0, r3, r4, r5, r8, r9, fp, lr}
    36bc:	49ee4a70 	stmibmi	lr!, {r4, r5, r6, r9, fp, lr}^
    36c0:	c5589669 	ldrbgt	r9, [r8, #-1641]	; 0x669
    36c4:	8304417c 	movwhi	r4, #16764	; 0x417c
    36c8:	0722e5b3 			; <UNDEFINED> instruction: 0x0722e5b3
    36cc:	114a0cb1 	strhne	r0, [sl, #-193]	; 0xffffff3f
    36d0:	3aab4105 	bcc	fead3aec <end+0xbe9d3aec>
    36d4:	a6ea96b3 			; <UNDEFINED> instruction: 0xa6ea96b3
    36d8:	ec3db3ae 	ldc	3, cr11, [sp], #-696	; 0xfffffd48
    36dc:	e0745b9d 			; <UNDEFINED> instruction: 0xe0745b9d
    36e0:	abd374b1 	blge	ff4e09ac <end+0xbf3e09ac>
    36e4:	518c9500 	orrpl	r9, ip, r0, lsl #10
    36e8:	707191b4 	ldrhtvc	r9, [r1], #-20	; 0xffffffec
    36ec:	469f46d2 			; <UNDEFINED> instruction: 0x469f46d2
    36f0:	a1001a41 	tstge	r0, r1, asr #20
    36f4:	7897ec37 	ldmvc	r7, {r0, r1, r2, r4, r5, sl, fp, sp, lr, pc}
    36f8:	f799ddd5 			; <UNDEFINED> instruction: 0xf799ddd5
    36fc:	8f2e0e39 	svchi	0x002e0e39
    3700:	9a82601d 	bls	fe09b77c <end+0xbdf9b77c>
    3704:	2619c790 			; <UNDEFINED> instruction: 0x2619c790
    3708:	10697136 	rsbne	r7, r9, r6, lsr r1
    370c:	6432d809 	ldrtvs	sp, [r2], #-2057	; 0x809
    3710:	c50a65cc 	strgt	r6, [sl, #-1484]	; 0x5cc
    3714:	ea870944 	b	fe1c5c2c <end+0xbe0c5c2c>
    3718:	c56f09e7 	strbgt	r0, [pc, #-2535]!	; 2d39 <jpegdata+0x989>
    371c:	53b3d5f6 			; <UNDEFINED> instruction: 0x53b3d5f6
    3720:	53f20f46 	mvnspl	r0, #280	; 0x118
    3724:	cd009304 	stcgt	3, cr9, [r0, #-16]
    3728:	a182843a 	orrge	r8, r2, sl, lsr r4
    372c:	27082c88 	strcs	r2, [r8, -r8, lsl #25]
    3730:	8a5c9123 	bhi	1727bc4 <ZAG+0x1719dac>
    3734:	3ae2e3a3 	bcc	ff8bc5c8 <end+0xbf7bc5c8>
    3738:	e33a955e 	teq	sl, #394264576	; 0x17800000
    373c:	7c79bafe 	ldclvc	10, cr11, [r9], #-1016	; 0xfffffc08
    3740:	7c4c18b4 	mcrrvc	8, 11, r1, ip, cr4
    3744:	4c892c97 	stcmi	12, cr2, [r9], {151}	; 0x97
    3748:	43a4c828 			; <UNDEFINED> instruction: 0x43a4c828
    374c:	b3db4813 	bicslt	r4, fp, #1245184	; 0x130000
    3750:	090a5f05 	stmdbeq	sl, {r0, r2, r8, r9, sl, fp, ip, lr}
    3754:	931b76db 	tstls	fp, #229638144	; 0xdb00000
    3758:	20c90de0 	sbccs	r0, r9, r0, ror #27
    375c:	147a4602 	ldrbtne	r4, [sl], #-1538	; 0x602
    3760:	d1aae25e 			; <UNDEFINED> instruction: 0xd1aae25e
    3764:	3fc636a6 	svccc	0x00c636a6
    3768:	7bd8d7f9 	blvc	ff639754 <end+0xbf539754>
    376c:	8dbe813f 	ldfhid	f0, [lr, #252]!	; 0xfc
    3770:	d745bcf0 			; <UNDEFINED> instruction: 0xd745bcf0
    3774:	e3d1c83f 	bics	ip, r1, #4128768	; 0x3f0000
    3778:	aad4842c 	bge	ff524830 <end+0xbf424830>
    377c:	f7a14f60 			; <UNDEFINED> instruction: 0xf7a14f60
    3780:	1426c024 	strtne	ip, [r6], #-36	; 0x24
    3784:	60024c02 	andvs	r4, r2, r2, lsl #24
    3788:	ba8d1e1d 	blt	fe34b004 <end+0xbe24b004>
    378c:	aa7fee65 	bge	1fff128 <ZAG+0x1ff1310>
    3790:	55efede9 	strbpl	lr, [pc, #3561]!	; 4581 <jpegdata+0x21d1>
    3794:	50f41c69 	rscspl	r1, r4, r9, ror #24
    3798:	8a9bbae0 	bhi	fe6f2320 <end+0xbe5f2320>
    379c:	6b7af189 	blvs	1ebfdc8 <ZAG+0x1eb1fb0>
    37a0:	5ede9e54 	mrcpl	14, 6, r9, cr14, cr4, {2}
    37a4:	8963c89d 	stmdbhi	r3!, {r0, r2, r3, r4, r7, fp, lr, pc}^
    37a8:	89cd8a23 	stmibhi	sp, {r0, r1, r5, r9, fp, pc}^
    37ac:	4ed3924d 	cdpmi	2, 13, cr9, cr3, cr13, {2}
    37b0:	4e3392ce 	cdpmi	2, 3, cr9, cr3, cr14, {6}
    37b4:	e49e1163 	ldr	r1, [lr], #355	; 0x163
    37b8:	1ca40872 	stcne	8, cr0, [r4], #456	; 0x1c8
    37bc:	f1eb20a3 			; <UNDEFINED> instruction: 0xf1eb20a3
    37c0:	74d629f5 	ldrbvc	r2, [r6], #2549	; 0x9f5
    37c4:	4cea001a 	stclmi	0, cr0, [sl], #104	; 0x68
    37c8:	9f01fdeb 	svcls	0x0001fdeb
    37cc:	e82085cc 	stmda	r0!, {r2, r3, r6, r7, r8, sl, pc}
    37d0:	af0b6480 	svcge	0x000b6480
    37d4:	777cdc39 			; <UNDEFINED> instruction: 0x777cdc39
    37d8:	cd527d0b 	ldclgt	13, cr7, [r2, #-44]	; 0xffffffd4
    37dc:	41526689 	cmpmi	r2, r9, lsl #13
    37e0:	a17fbc0b 	cmnge	pc, fp, lsl #24
    37e4:	08ee1d27 	stmiaeq	lr!, {r0, r1, r2, r5, r8, sl, fp, ip}^
    37e8:	19825480 	stmibne	r2, {r7, sl, ip, lr}
    37ec:	985e8155 	ldmdals	lr, {r0, r2, r4, r6, r8, pc}^
    37f0:	1eeb729d 	mcrne	2, 7, r7, cr11, cr13, {4}
    37f4:	028eea93 	addeq	lr, lr, #602112	; 0x93000
    37f8:	99b1549c 	ldmibls	r1!, {r2, r3, r4, r7, sl, ip, lr}
    37fc:	26d5f258 			; <UNDEFINED> instruction: 0x26d5f258
    3800:	78160b26 	ldmdavc	r6, {r1, r2, r5, r8, r9, fp}
    3804:	db681c47 	blle	1a0a928 <ZAG+0x19fcb10>
    3808:	cd0a0177 	stfgts	f0, [sl, #-476]	; 0xfffffe24
    380c:	e32b7ecb 	teq	fp, #3248	; 0xcb0
    3810:	f21b4160 	vrhadd.s16	q2, <illegal reg q5.5>, q8
    3814:	dbb255f0 	blle	fec98fdc <end+0xbeb98fdc>
    3818:	8c45a9d0 	mcrrhi	9, 13, sl, r5, cr0
    381c:	97a90791 			; <UNDEFINED> instruction: 0x97a90791
    3820:	7fdcf371 	svcvc	0x00dcf371
    3824:	95564133 	ldrbls	r4, [r6, #-307]	; 0x133
    3828:	e814f937 	ldmda	r4, {r0, r1, r2, r4, r5, r8, fp, ip, sp, lr, pc}
    382c:	ef030098 	svc	0x00030098
    3830:	3f3033d1 	svccc	0x003033d1
    3834:	0af6991f 	beq	ffda9cb8 <end+0xbfca9cb8>
    3838:	a70ed147 	strge	sp, [lr, -r7, asr #2]
    383c:	d6da5e9d 			; <UNDEFINED> instruction: 0xd6da5e9d
    3840:	52b833ee 	adcspl	r3, r8, #-1207959549	; 0xb8000003
    3844:	da534add 	ble	14d63c0 <ZAG+0x14c85a8>
    3848:	b5112682 	ldrlt	r2, [r1, #-1666]	; 0x682
    384c:	e346e2ba 	movt	lr, #25274	; 0x62ba
    3850:	10919522 	addsne	r9, r1, r2, lsr #10
    3854:	2fb99db2 	svccs	0x00b99db2
    3858:	9d32408e 	ldcls	0, cr4, [r2, #-568]!	; 0xfffffdc8
    385c:	371eb08a 	ldrcc	fp, [lr, -sl, lsl #1]
    3860:	36177394 			; <UNDEFINED> instruction: 0x36177394
    3864:	55d54aca 	ldrbpl	r4, [r5, #2762]	; 0xaca
    3868:	2c59a32c 	mrrccs	3, 2, sl, r9, cr12
    386c:	05436098 	strbeq	r6, [r3, #-152]	; 0x98
    3870:	a9216390 	stmdbge	r1!, {r4, r7, r8, r9, sp, lr}
    3874:	70155d86 	andsvc	r5, r5, r6, lsl #27
    3878:	525b3d35 	subspl	r3, fp, #3392	; 0xd40
    387c:	abecdac2 	blge	ffb3a38c <end+0xbfa3a38c>
    3880:	12afa457 	adcne	sl, pc, #1459617792	; 0x57000000
    3884:	30608004 	rsbcc	r8, r0, r4
    3888:	11fb1b86 	mvnsne	r1, r6, lsl #23
    388c:	f3e33ea2 	vmull.p64	<illegal reg q9.5>, d19, d18
    3890:	055477d0 	ldrbeq	r7, [r4, #-2000]	; 0x7d0
    3894:	21a271bd 			; <UNDEFINED> instruction: 0x21a271bd
    3898:	b321c2c3 	teqlt	r1, #805306380	; 0x3000000c
    389c:	a115f27d 	tstge	r5, sp, ror r2
    38a0:	c8273e49 	stmdagt	r7!, {r0, r3, r6, r9, sl, fp, ip, sp}
    38a4:	60954757 	addsvs	r4, r5, r7, asr r7
    38a8:	05468079 	strbeq	r8, [r6, #-121]	; 0x79
    38ac:	792f015a 	stmdbvc	pc!, {r1, r3, r4, r6, r8}	; <UNPREDICTABLE>
    38b0:	6205b082 	andvs	fp, r5, #130	; 0x82
    38b4:	4f6e7b3e 	svcmi	0x006e7b3e
    38b8:	bc8877a1 	stclt	7, cr7, [r8], {161}	; 0xa1
    38bc:	57d8b2fd 			; <UNDEFINED> instruction: 0x57d8b2fd
    38c0:	807b3961 	rsbshi	r3, fp, r1, ror #18
    38c4:	c6410272 			; <UNDEFINED> instruction: 0xc6410272
    38c8:	e4ac8b0f 	strt	r8, [ip], #2831	; 0xb0f
    38cc:	e6af9160 	strt	r9, [pc], r0, ror #2
    38d0:	3e1dc4a6 	cdpcc	4, 1, cr12, cr13, cr6, {5}
    38d4:	cfa18053 	svcgt	0x00a18053
    38d8:	974b5bd3 			; <UNDEFINED> instruction: 0x974b5bd3
    38dc:	9b2590c6 	blls	967bfc <ZAG+0x959de4>
    38e0:	63554842 	cmpvs	r5, #4325376	; 0x420000
    38e4:	31f4938a 	mvnscc	r9, sl, lsl #7
    38e8:	c1a01530 	lsrgt	r1, r0, r5
    38ec:	28a92bd3 	stmiacs	r9!, {r0, r1, r4, r6, r7, r8, r9, fp, sp}
    38f0:	ca71dd53 	bgt	1c7ae44 <ZAG+0x1c6d02c>
    38f4:	42153de8 	andsmi	r3, r5, #232, 26	; 0x3a00
    38f8:	7e2573e6 	cdpvc	3, 2, cr7, cr5, cr6, {7}
    38fc:	5ecc182b 	cdppl	8, 12, cr1, cr12, cr11, {1}
    3900:	b75a9d06 	ldrblt	r9, [sl, -r6, lsl #26]
    3904:	541ccbeb 	ldrpl	ip, [ip], #-3051	; 0xbeb
    3908:	fdb25c6e 	ldc2	12, cr5, [r2, #440]!	; 0x1b8
    390c:	126ceaba 	rsbne	lr, ip, #761856	; 0xba000
    3910:	4f3c3e11 	svcmi	0x003c3e11
    3914:	491ac504 	ldmdbmi	sl, {r2, r8, sl, lr, pc}
    3918:	371a7825 	ldrcc	r7, [sl, -r5, lsr #16]
    391c:	dd4dc401 	cfstrdle	mvd12, [sp, #-4]
    3920:	ad76c919 	ldclge	9, cr12, [r6, #-100]!	; 0xffffff9c
    3924:	b3665a85 	cmnlt	r6, #544768	; 0x85000
    3928:	a094cee4 	addsge	ip, r4, r4, ror #29
    392c:	03c43462 	biceq	r3, r4, #1644167168	; 0x62000000
    3930:	54b2018c 	ldrtpl	r0, [r2], #396	; 0x18c
    3934:	925c5040 	subsls	r5, ip, #64	; 0x40
    3938:	041343a1 	ldreq	r4, [r3], #-929	; 0x3a1
    393c:	f447be95 			; <UNDEFINED> instruction: 0xf447be95
    3940:	87a5c6de 	sbfxhi	ip, lr, #13, #6
    3944:	f9736eef 			; <UNDEFINED> instruction: 0xf9736eef
    3948:	0a29a369 	beq	a6c6f4 <ZAG+0xa5e8dc>
    394c:	a4a81014 	strtge	r1, [r8], #20
    3950:	0ec9f806 	cdpeq	8, 12, cr15, cr9, cr6, {0}
    3954:	038213e4 	orreq	r1, r2, #228, 6	; 0x90000003
    3958:	b4a64950 	strtlt	r4, [r6], #2384	; 0x950
    395c:	7a9a99d9 	bvc	fe6aa0c8 <end+0xbe5aa0c8>
    3960:	e65e4d56 			; <UNDEFINED> instruction: 0xe65e4d56
    3964:	ef35d38e 	svc	0x0035d38e
    3968:	6acb2064 	bvs	ff2cbb00 <end+0xbf1cbb00>
    396c:	9bd742bd 	blls	ff5d4468 <end+0xbf4d4468>
    3970:	05b389bd 	ldreq	r8, [r3, #2493]!	; 0x9bd
    3974:	7365b66a 	cmnvc	r5, #111149056	; 0x6a00000
    3978:	c45c1337 	ldrbgt	r1, [ip], #-823	; 0x337
    397c:	e1245a8b 	smlawb	r4, fp, sl, r5
    3980:	182547c6 	stmdane	r5!, {r1, r2, r6, r7, r8, r9, sl, lr}
    3984:	23c86f2f 	biccs	r6, r8, #47, 30	; 0xbc
    3988:	b924f589 	stmdblt	r4!, {r0, r3, r7, r8, sl, ip, sp, lr, pc}
    398c:	f6b54ea7 			; <UNDEFINED> instruction: 0xf6b54ea7
    3990:	91e9942c 	mvnls	r9, ip, lsr #8
    3994:	a698f12c 	ldrge	pc, [r8], ip, lsr #2
    3998:	41983e00 	orrsmi	r3, r8, r0, lsl #28
    399c:	14ea2475 	strbtne	r2, [sl], #1141	; 0x475
    39a0:	a03200ff 	ldrshtge	r0, [r2], -pc
    39a4:	848ee008 	strhi	lr, [lr], #8
    39a8:	434ed28f 	movtmi	sp, #57999	; 0xe28f
    39ac:	9a1cb197 	bls	730010 <ZAG+0x7221f8>
    39b0:	a6552a25 	ldrbge	r2, [r5], -r5, lsr #20
    39b4:	53cc3545 	bicpl	r3, ip, #289406976	; 0x11400000
    39b8:	0e8185aa 	cdpeq	5, 8, cr8, cr1, cr10, {5}
    39bc:	8974364b 	ldmdbhi	r4!, {r0, r1, r3, r6, r9, sl, ip, sp}^
    39c0:	5205f804 	andpl	pc, r5, #4, 16	; 0x40000
    39c4:	a7942214 			; <UNDEFINED> instruction: 0xa7942214
    39c8:	718e2e53 	orrvc	r2, lr, r3, asr lr
    39cc:	864c025a 			; <UNDEFINED> instruction: 0x864c025a
    39d0:	2fe0aa5d 	svccs	0x00e0aa5d
    39d4:	3b5ab61c 	blcc	16b124c <ZAG+0x16a3434>
    39d8:	d82bd52e 	stmdale	fp!, {r1, r2, r3, r5, r8, sl, ip, lr, pc}
    39dc:	58501ca3 	ldmdapl	r0, {r0, r1, r5, r7, sl, fp, ip}^
    39e0:	0cc11b89 	fstmiaxeq	r1, {d17-d84}	;@ Deprecated
    39e4:	546230f2 	strbtpl	r3, [r2], #-242	; 0xf2
    39e8:	2a222b73 	bcs	88e7bc <ZAG+0x8809a4>
    39ec:	2477c9ed 	ldrbtcs	ip, [r7], #-2541	; 0x9ed
    39f0:	ac6dfe00 	stclge	14, cr15, [sp], #-0
    39f4:	5ad75d68 	bpl	ff5daf9c <end+0xbf4daf9c>
    39f8:	5243651c 	subpl	r6, r3, #28, 10	; 0x7000000
    39fc:	280326b0 	stmdacs	r3, {r4, r5, r7, r9, sl, sp}
    3a00:	2049e10a 	subcs	lr, r9, sl, lsl #2
    3a04:	a0f6898c 	rscsge	r8, r6, ip, lsl #19
    3a08:	d300ae12 	movwle	sl, #3602	; 0xe12
    3a0c:	2a85890c 	bcs	fe165e44 <end+0xbe065e44>
    3a10:	a500ff17 	strge	pc, [r0, #-3863]	; 0xf17
    3a14:	471fe7bc 			; <UNDEFINED> instruction: 0x471fe7bc
    3a18:	312814f7 	strdcc	r1, [r8, -r7]!
    3a1c:	1a79676a 	bne	1e5d7cc <ZAG+0x1e4f9b4>
    3a20:	85cc1f25 	strbhi	r1, [ip, #3877]	; 0xf25
    3a24:	4a24332a 	bmi	9106d4 <ZAG+0x9028bc>
    3a28:	23759494 	cmncs	r5, #148, 8	; 0x94000000
    3a2c:	9db02d4f 	ldcls	13, cr2, [r0, #316]!	; 0x13c
    3a30:	5c22f505 	cfstr32pl	mvfx15, [r2], #-20	; 0xffffffec
    3a34:	2ecf1bad 	vdivcs.f64	d17, d31, d29
    3a38:	979ad55e 			; <UNDEFINED> instruction: 0x979ad55e
    3a3c:	35895a5a 	strcc	r5, [r9, #2650]	; 0xa5a
    3a40:	ac1341ad 	ldfges	f4, [r3], {173}	; 0xad
    3a44:	5e63ee8c 	cdppl	14, 6, cr14, cr3, cr12, {4}
    3a48:	2cc1d9d7 	stclcs	9, cr13, [r1], {215}	; 0xd7
    3a4c:	24e3f6c0 	strbtcs	pc, [r3], #1728	; 0x6c0	; <UNPREDICTABLE>
    3a50:	c44349ee 	strbgt	r4, [r3], #-2542	; 0x9ee
    3a54:	1e56cffe 	mrcne	15, 2, ip, cr6, cr14, {7}
    3a58:	5b4bb2cf 	blpl	12f059c <ZAG+0x12e2784>
    3a5c:	6e2ee484 	cdpvs	4, 2, cr14, cr14, cr4, {4}
    3a60:	c539dd98 	ldrgt	sp, [r9, #-3480]!	; 0xd98
    3a64:	f05990a9 			; <UNDEFINED> instruction: 0xf05990a9
    3a68:	601d0020 	andsvs	r0, sp, r0, lsr #32
    3a6c:	458043ba 	strmi	r4, [r0, #954]	; 0x3ba
    3a70:	09c37142 	stmibeq	r3, {r1, r6, r8, ip, sp, lr}^
    3a74:	9e28e08c 	cdpls	0, 2, cr14, cr8, cr12, {4}
    3a78:	47a4941f 			; <UNDEFINED> instruction: 0x47a4941f
    3a7c:	b14a7f23 	cmplt	sl, r3, lsr #30
    3a80:	189dac0f 	ldmne	sp, {r0, r1, r2, r3, sl, fp, sp, pc}
    3a84:	49740a49 	ldmdbmi	r4!, {r0, r3, r6, r9, fp}^
    3a88:	4c2aa50d 	cfstr32mi	mvfx10, [sl], #-52	; 0xffffffcc
    3a8c:	977fd1ce 	ldrbls	sp, [pc, -lr, asr #3]!
    3a90:	ad5e9f71 	ldclge	15, cr9, [lr, #-452]	; 0xfffffe3c
    3a94:	0443668b 	strbeq	r6, [r3], #-1675	; 0x68b
    3a98:	43624c32 	cmnmi	r2, #12800	; 0x3200
    3a9c:	b7d4f623 	ldrblt	pc, [r4, r3, lsr #12]	; <UNPREDICTABLE>
    3aa0:	3b961f04 	blcc	fe58b6b8 <end+0xbe48b6b8>
    3aa4:	00ff007e 	rscseq	r0, pc, lr, ror r0	; <UNPREDICTABLE>
    3aa8:	12b5ad3e 	adcsne	sl, r5, #3968	; 0xf80
    3aac:	46339dd6 			; <UNDEFINED> instruction: 0x46339dd6
    3ab0:	488e50a8 	stmmi	lr, {r3, r5, r7, ip, lr}
    3ab4:	a4c51083 	strbge	r1, [r5], #131	; 0x83
    3ab8:	62891e91 	addvs	r1, r9, #2320	; 0x910
    3abc:	27ef2349 	strbcs	r2, [pc, r9, asr #6]!
    3ac0:	deed54ac 	cdple	4, 14, cr5, cr13, cr12, {5}
    3ac4:	0b4961b8 	bleq	125c1ac <ZAG+0x124e394>
    3ac8:	26300900 	ldrtcs	r0, [r0], -r0, lsl #18
    3acc:	e99fdc07 	ldmib	pc, {r0, r1, r2, sl, fp, ip, lr, pc}	; <UNPREDICTABLE>
    3ad0:	7e5d27f9 	mrcvc	7, 2, r2, cr13, cr9, {7}
    3ad4:	16fc12fd 			; <UNDEFINED> instruction: 0x16fc12fd
    3ad8:	385cdd9e 	ldmdacc	ip, {r1, r2, r3, r4, r7, r8, sl, fp, ip, lr, pc}^
    3adc:	c2f0fc96 	rscsgt	pc, r0, #38400	; 0x9600
    3ae0:	342acdd2 	strtcc	ip, [sl], #-3538	; 0xdd2
    3ae4:	c915d56c 	ldmdbgt	r5, {r2, r3, r5, r6, r8, sl, ip, lr, pc}
    3ae8:	12235ce6 	eorne	r5, r3, #58880	; 0xe600
    3aec:	949524a8 	ldrls	r2, [r5], #1192	; 0x4a8
    3af0:	2366a91f 	cmncs	r6, #507904	; 0x7c000
    3af4:	4758e475 			; <UNDEFINED> instruction: 0x4758e475
    3af8:	e382eb3b 	orr	lr, r2, #60416	; 0xec00
    3afc:	d5fd8d9f 	ldrble	r8, [sp, #3487]!	; 0xd9f
    3b00:	40312da3 	eorsmi	r2, r1, r3, lsr #27
    3b04:	f92aaab4 			; <UNDEFINED> instruction: 0xf92aaab4
    3b08:	c120623b 	teqgt	r0, fp, lsr r2
    3b0c:	b62c2058 			; <UNDEFINED> instruction: 0xb62c2058
    3b10:	35260b89 	strcc	r0, [r6, #-2953]!	; 0xb89
    3b14:	17dfadd6 			; <UNDEFINED> instruction: 0x17dfadd6
    3b18:	2880d470 	stmcs	r0, {r4, r5, r6, sl, ip, lr, pc}
    3b1c:	a45a55e1 	ldrbge	r5, [sl], #-1505	; 0x5e1
    3b20:	0f442705 	svceq	0x00442705
    3b24:	600ad038 	andvs	sp, sl, r8, lsr r0
    3b28:	9dc07f06 	stclls	15, cr7, [r0, #24]
    3b2c:	b4311dc0 	ldrtlt	r1, [r1], #-3520	; 0xdc0
    3b30:	77fa4a51 	ubfxvc	r4, r1, #20, #27
    3b34:	7fcc351f 	svcvc	0x00cc351f
    3b38:	0106ad3c 	tsteq	r6, ip, lsr sp
    3b3c:	98c45a6e 	stmials	r4, {r1, r2, r3, r5, r6, r9, fp, ip, lr}^
    3b40:	8e30db10 	vmovhi.32	sp, d0[1]
    3b44:	a93b2b56 	ldmdbge	fp!, {r1, r2, r4, r6, r8, r9, fp, sp}
    3b48:	12ab9de4 	adcne	r9, fp, #228, 26	; 0x3900
    3b4c:	14232b28 	strtne	r2, [r3], #-2856	; 0xb28
    3b50:	cf6cbcee 	svcgt	0x006cbcee
    3b54:	bb10e3b9 	bllt	43ca40 <ZAG+0x42ec28>
    3b58:	b1871be4 	orrlt	r1, r7, r4, ror #23
    3b5c:	a7d42d15 	bfige	r2, r5, (invalid: 26:20)
    3b60:	835908ca 	cmphi	r9, #13238272	; 0xca0000
    3b64:	00cb86e9 	sbceq	r8, fp, r9, ror #13
    3b68:	0cb08101 	ldfeqd	f0, [r0], #4
    3b6c:	95384810 	ldrls	r4, [r8, #-2064]!	; 0x810
    3b70:	7fa52365 	svcvc	0x00a52365
    3b74:	7641f84a 	strbvc	pc, [r1], -sl, asr #16	; <UNPREDICTABLE>
    3b78:	b52851ab 	strlt	r5, [r8, #-427]!	; 0x1ab
    3b7c:	c1e4183a 	mvngt	r1, sl, lsr r8
    3b80:	4ed2e482 	cdpmi	4, 13, cr14, cr2, cr2, {4}
    3b84:	2e453507 	cdpcs	5, 4, cr3, cr5, cr7, {0}
    3b88:	c58906a4 	strgt	r0, [r9, #1700]	; 0x6a4
    3b8c:	959c1690 	ldrls	r1, [ip, #1680]	; 0x690
    3b90:	c5d115e9 	ldrbgt	r1, [r1, #1513]	; 0x5e9
    3b94:	346cea0f 	strbtcc	lr, [ip], #-2575	; 0xa0f
    3b98:	8664bc79 			; <UNDEFINED> instruction: 0x8664bc79
    3b9c:	69752efe 	ldmdbvs	r5!, {r1, r2, r3, r4, r5, r6, r7, r9, sl, fp, sp}^
    3ba0:	56fbbb63 	ldrbtpl	fp, [fp], r3, ror #22
    3ba4:	22830465 	addcs	r0, r3, #1694498816	; 0x65000000
    3ba8:	12bad872 	adcsne	sp, sl, #7471104	; 0x720000
    3bac:	75175909 	ldrvc	r5, [r7, #-2313]	; 0x909
    3bb0:	16ba4a91 	ssatne	r4, #27, r1, lsl #21
    3bb4:	6f545256 	svcvs	0x00545256
    3bb8:	b59377fb 	ldrlt	r7, [r3, #2043]	; 0x7fb
    3bbc:	2659a967 	ldrbcs	sl, [r9], -r7, ror #18
    3bc0:	59494c06 	stmdbpl	r9, {r1, r2, sl, fp, lr}^
    3bc4:	c8a72506 	stmiagt	r7!, {r1, r2, r8, sl, sp}
    3bc8:	fb410699 	blx	1045636 <ZAG+0x103781e>
    3bcc:	eda4ebc8 	stc	11, cr14, [r4, #800]!	; 0x320
    3bd0:	b80abb79 	stmdalt	sl, {r0, r3, r4, r5, r6, r8, r9, fp, ip, sp, pc}
    3bd4:	4c8246d2 	stcmi	6, cr4, [r2], {210}	; 0xd2
    3bd8:	0bf30701 	bleq	ffcc57e4 <end+0xbfbc57e4>
    3bdc:	0f2281f6 	svceq	0x002281f6
    3be0:	e7eb98f4 			; <UNDEFINED> instruction: 0xe7eb98f4
    3be4:	8c175b17 	ldchi	11, cr5, [r7], {23}
    3be8:	44227bb5 	strtmi	r7, [r2], #-2997	; 0xbb5
    3bec:	b159af55 	cmplt	r9, r5, asr pc
    3bf0:	8b8acc16 	blhi	fe2b6c50 <end+0xbe1b6c50>
    3bf4:	617667ca 	cmnvs	r6, sl, asr #15
    3bf8:	445566b9 	ldrbmi	r6, [r5], #-1721	; 0x6b9
    3bfc:	047625e4 	ldrbteq	r2, [r6], #-1508	; 0x5e4
    3c00:	5792f2aa 	ldrpl	pc, [r2, sl, lsr #5]
    3c04:	13b33bdc 			; <UNDEFINED> instruction: 0x13b33bdc
    3c08:	c7ed755c 	ubfxgt	r7, ip, #10, #14
    3c0c:	925bcb30 	subsls	ip, fp, #48, 22	; 0xc000
    3c10:	54c497ab 	strbpl	r9, [r4], #1963	; 0x7ab
    3c14:	3300d053 	movwcc	sp, #83	; 0x53
    3c18:	119f6410 	orrsne	r6, pc, r0, lsl r4	; <UNPREDICTABLE>
    3c1c:	23072800 	movwcs	r2, #30720	; 0x7800
    3c20:	0ec4c618 	mcreq	6, 6, ip, cr4, cr8, {0}
    3c24:	ccf11da7 	ldclgt	13, cr1, [r1], #668	; 0x29c
    3c28:	8f95f6d8 	svchi	0x0095f6d8
    3c2c:	00ff6ac3 	rscseq	r6, pc, r3, asr #21
    3c30:	41a54a1d 			; <UNDEFINED> instruction: 0x41a54a1d
    3c34:	0ab96388 	beq	fee5ca5c <end+0xbed5ca5c>
    3c38:	23003918 	movwcs	r3, #2328	; 0x918
    3c3c:	4d16cb43 	vldrmi	d12, [r6, #-268]	; 0xfffffef4
    3c40:	c070052b 	rsbsgt	r0, r0, fp, lsr #10
    3c44:	eb843310 	bl	fe11088c <end+0xbe01088c>
    3c48:	9ea5972c 	cdpls	7, 10, cr9, cr5, cr12, {1}
    3c4c:	3532e3b2 	ldrcc	lr, [r2, #-946]!	; 0x3b2
    3c50:	6478464d 	ldrbtvs	r4, [r8], #-1613	; 0x64d
    3c54:	f56a648a 			; <UNDEFINED> instruction: 0xf56a648a
    3c58:	81b20b99 			; <UNDEFINED> instruction: 0x81b20b99
    3c5c:	d9487e03 	stmdble	r8, {r0, r1, r9, sl, fp, ip, sp, lr}^
    3c60:	e309020b 	movw	r0, #37387	; 0x920b
    3c64:	02243eca 	eoreq	r3, r4, #3232	; 0xca0
    3c68:	af63fad1 	svcge	0x0063fad1
    3c6c:	6994f674 	ldmibvs	r4, {r2, r4, r5, r6, r9, sl, ip, sp, lr, pc}
    3c70:	9cad2e54 	stcls	14, cr2, [sp], #336	; 0x150
    3c74:	084cabf8 	stmdaeq	ip, {r3, r4, r5, r6, r7, r8, r9, fp, sp, pc}^
    3c78:	be36b053 	mrclt	0, 1, fp, cr6, cr3, {2}
    3c7c:	326482c8 	rsbcc	r8, r4, #200, 4	; 0x8000000c
    3c80:	7974619c 	ldmdbvc	r4!, {r2, r3, r4, r7, r8, sp, lr}^
    3c84:	5c77af56 	ldclpl	15, cr10, [r7], #-344	; 0xfffffea8
    3c88:	f5d6d671 			; <UNDEFINED> instruction: 0xf5d6d671
    3c8c:	180e5632 	stmdane	lr, {r1, r4, r5, r9, sl, ip, lr}
    3c90:	78ea741a 	stmiavc	sl!, {r1, r3, r4, sl, ip, sp, lr}^
    3c94:	008610aa 	addeq	r1, r6, sl, lsr #1
    3c98:	33ccf412 	biccc	pc, ip, #301989888	; 0x12000000
    3c9c:	534b0c28 	movtpl	r0, #48168	; 0xbc28
    3ca0:	5a111f74 	bpl	44ba78 <ZAG+0x43dc60>
    3ca4:	33854d53 	orrcc	r4, r5, #5312	; 0x14c0
    3ca8:	3320b31a 	teqcc	r0, #1744830464	; 0x68000000
    3cac:	e3b89b32 			; <UNDEFINED> instruction: 0xe3b89b32
    3cb0:	26241f6b 	strtcs	r1, [r4], -fp, ror #30
    3cb4:	af167349 	svcge	0x00167349
    3cb8:	bcfc141e 	cfldrdlt	mvd1, [ip], #120	; 0x78
    3cbc:	eeb3428e 	cdp	2, 11, cr4, cr3, cr14, {4}
    3cc0:	bb80aa3c 	bllt	fe02e5b8 <end+0xbdf2e5b8>
    3cc4:	dbccc218 	blle	ff33452c <end+0xbf23452c>
    3cc8:	d6a30804 	strtle	r0, [r3], r4, lsl #16
    3ccc:	53c82b81 	bicpl	r2, r8, #132096	; 0x20400
    3cd0:	036ad56a 	cmneq	sl, #444596224	; 0x1a800000
    3cd4:	05aac258 	streq	ip, [sl, #600]!	; 0x258
    3cd8:	02503069 	subseq	r3, r0, #105	; 0x69
    3cdc:	19c9f8b8 	stmibne	r9, {r3, r4, r5, r7, fp, ip, sp, lr, pc}^
    3ce0:	407f3f48 	rsbsmi	r3, pc, r8, asr #30
    3ce4:	ee510596 	mrc	5, 2, r0, cr1, cr6, {4}
    3ce8:	03b8dbee 			; <UNDEFINED> instruction: 0x03b8dbee
    3cec:	0f57dede 	svceq	0x0057dede
    3cf0:	d3a24272 			; <UNDEFINED> instruction: 0xd3a24272
    3cf4:	5030c9c5 	eorspl	ip, r0, r5, asr #19
    3cf8:	0be29102 	bleq	ff8a8108 <end+0xbf7a8108>
    3cfc:	653d924b 	ldrvs	r9, [sp, #-587]!	; 0x24b
    3d00:	2bb8ac38 	blcs	fee2ede8 <end+0xbed2ede8>
    3d04:	cc3daec5 	ldcgt	14, cr10, [sp], #-788	; 0xfffffcec
    3d08:	0dc3943e 	cfstrdeq	mvd9, [r3, #248]	; 0xf8
    3d0c:	642ba951 	strtvs	sl, [fp], #-2385	; 0x951
    3d10:	7b81d2ee 	blvc	fe0788d0 <end+0xbdf788d0>
    3d14:	b0b02b5f 	adcslt	r2, r0, pc, asr fp
    3d18:	641471da 	ldrvs	r7, [r4], #-474	; 0x1da
    3d1c:	5ddc08a9 	ldclpl	8, cr0, [ip, #676]	; 0x2a4
    3d20:	2947ecdc 	stmdbcs	r7, {r2, r3, r4, r6, r7, sl, fp, sp, lr, pc}^
    3d24:	63a39d4a 			; <UNDEFINED> instruction: 0x63a39d4a
    3d28:	e603fdc8 	str	pc, [r3], -r8, asr #27
    3d2c:	00ff0a6e 	rscseq	r0, pc, lr, ror #20
    3d30:	6ea16fb9 	mcrvs	15, 5, r6, cr1, cr9, {5}
    3d34:	a308f717 	movwge	pc, #34583	; 0x8717	; <UNPREDICTABLE>
    3d38:	c0e88360 	rscgt	r8, r8, r0, ror #6
    3d3c:	40a2e92c 	adcmi	lr, r2, ip, lsr #18
    3d40:	a45d208f 	ldrbge	r2, [sp], #-143	; 0x8f
    3d44:	534c9fa2 	movtpl	r9, #53154	; 0xcfa2
    3d48:	fb4cbfa2 	blx	1333bda <ZAG+0x1325dc2>
    3d4c:	5ea190d7 	mcrpl	0, 5, r9, cr1, cr7, {6}
    3d50:	d4cb0daf 	strble	r0, [fp], #3503	; 0xdaf
    3d54:	23880917 	orrcs	r0, r8, #376832	; 0x5c000
    3d58:	c0f85616 	rscsgt	r5, r8, r6, lsl r6
    3d5c:	319034c8 	orrscc	r3, r0, r8, asr #9
    3d60:	28531aa8 	ldmdacs	r3, {r3, r5, r7, r9, fp, ip}^
    3d64:	1a16c4a8 	bne	5b500c <ZAG+0x5a71f4>
    3d68:	17c3d424 	strbne	sp, [r3, r4, lsr #8]
    3d6c:	e946dda6 	stmdb	r6, {r1, r2, r5, r7, r8, sl, fp, ip, lr, pc}^
    3d70:	ea138a6d 	b	4e672c <ZAG+0x4d8914>
    3d74:	d2e09cbe 	rscle	r9, r0, #48640	; 0xbe00
    3d78:	9e6515d4 	mcrls	5, 3, r1, cr5, cr4, {6}
    3d7c:	e2c45e8b 	sbc	r5, r4, #2224	; 0x8b0
    3d80:	314a0dcc 	smlalbtcc	r0, sl, ip, sp
    3d84:	a1489a18 	cmpge	r8, r8, lsl sl
    3d88:	b0c8aa8c 	sbclt	sl, r8, ip, lsl #21
    3d8c:	9adde2b1 	bls	ff77c858 <end+0xbf67c858>
    3d90:	314b43e8 	smlalttcc	r4, fp, r8, r3
    3d94:	469e1c6e 	ldrmi	r1, [lr], lr, ror #24
    3d98:	dbc9a5f5 	blle	ff26d574 <end+0xbf16d574>
    3d9c:	4bd532f7 	blmi	ff550980 <end+0xbf450980>
    3da0:	a3e4564e 	mvnge	r5, #81788928	; 0x4e00000
    3da4:	1b17407d 	blne	5d3fa0 <ZAG+0x5c6188>
    3da8:	cb92712c 	blgt	fe4a0260 <end+0xbe3a0260>
    3dac:	5d6223e3 	stclpl	3, cr2, [r2, #-908]!	; 0xfffffc74
    3db0:	02045480 	andeq	r5, r4, #128, 8	; 0x80000000
    3db4:	cedd0204 	cdpgt	2, 13, cr0, cr13, cr4, {0}
    3db8:	dff6a07e 	svcle	0x00f6a07e
    3dbc:	cbd67007 	blgt	ff59fde0 <end+0xbf49fde0>
    3dc0:	b0ae17c7 	adclt	r1, lr, r7, asr #15
    3dc4:	aaf1e769 	bge	ffc7db70 <end+0xbfb7db70>
    3dc8:	92c79737 	sbcls	r9, r7, #14417920	; 0xdc0000
    3dcc:	e5f867b9 	ldrb	r6, [r8, #1977]!	; 0x7b9
    3dd0:	5265194b 	rsbpl	r1, r5, #1228800	; 0x12c000
    3dd4:	f504e744 			; <UNDEFINED> instruction: 0xf504e744
    3dd8:	edea92cf 	sfm	f1, 3, [sl, #828]!	; 0x33c
    3ddc:	d583470d 	strle	r4, [r3, #1805]	; 0x70d
    3de0:	6bed5cf8 	blvs	ffb5b1c8 <end+0xbfa5b1c8>
    3de4:	d74d677a 	smlsldxle	r6, sp, sl, r7
    3de8:	5d2d95ae 	cfstr32pl	mvfx9, [sp, #-696]!	; 0xfffffd48
    3dec:	7c6c56cb 	stclvc	6, cr5, [ip], #-812	; 0xfffffcd4
    3df0:	98fd6e26 	ldmls	sp!, {r1, r2, r5, r9, sl, fp, sp, lr}^
    3df4:	8e344783 	cdphi	7, 3, cr4, cr4, cr3, {4}
    3df8:	0503b361 	streq	fp, [r3, #-865]	; 0x361
    3dfc:	379e9880 	ldrcc	r9, [lr, r0, lsl #17]
    3e00:	b240d689 	sublt	sp, r0, #143654912	; 0x8900000
    3e04:	69b41273 	ldmibvs	r4!, {r0, r1, r4, r5, r6, r9, ip}
    3e08:	d6dbc5bd 			; <UNDEFINED> instruction: 0xd6dbc5bd
    3e0c:	4b955ae1 	blmi	fe55a998 <end+0xbe45a998>
    3e10:	ab552b20 	blge	154ea98 <ZAG+0x1540c80>
    3e14:	e9cc56b8 	stmib	ip, {r3, r4, r5, r7, r9, sl, ip, lr}^
    3e18:	03aa1241 			; <UNDEFINED> instruction: 0x03aa1241
    3e1c:	32301929 	eorscc	r1, r0, #671744	; 0xa4000
    3e20:	71259549 	teqvc	r5, r9, asr #10
    3e24:	f29531c4 	vmla.f<illegal width 16>	d3, d21, d4[0]
    3e28:	95bca89f 	ldrls	sl, [ip, #2207]!	; 0x89f
    3e2c:	421db7e5 	andsmi	fp, sp, #60030976	; 0x3940000
    3e30:	3093deda 			; <UNDEFINED> instruction: 0x3093deda
    3e34:	94a3f056 	strtls	pc, [r3], #86	; 0x56
    3e38:	42c5c729 	sbcmi	ip, r5, #10747904	; 0xa40000
    3e3c:	2922b42b 	stmdbcs	r2!, {r0, r1, r3, r5, sl, ip, sp, pc}
    3e40:	ca36ac12 	bgt	daee90 <ZAG+0xda1078>
    3e44:	4a852ae0 	bmi	fe14e9cc <end+0xbe04e9cc>
    3e48:	67415787 	strbvs	r5, [r1, -r7, lsl #15]
    3e4c:	d63be9ac 	ldrtle	lr, [fp], -ip, lsr #19
    3e50:	f24bd16c 	vrhadd.s8	<illegal reg q14.5>, <illegal reg q5.5>, q14
    3e54:	5e8932e1 	cdppl	2, 8, cr3, cr9, cr1, {7}
    3e58:	27f69be2 	ldrbcs	r9, [r6, r2, ror #23]!
    3e5c:	24d9da9e 	ldrbcs	sp, [r9], #2718	; 0xa9e
    3e60:	c2da91a9 	sbcsgt	r9, sl, #1073741866	; 0x4000002a
    3e64:	682791b5 	stmdavs	r7!, {r0, r2, r4, r5, r7, r8, ip, pc}
    3e68:	9e291fc3 	cdpls	15, 2, cr1, cr9, cr3, {6}
    3e6c:	8c201240 	sfmhi	f1, 4, [r0], #-256	; 0xffffff00
    3e70:	fdfdb188 	ldc2l	1, cr11, [sp, #544]!	; 0x220
    3e74:	2a2ee5d6 	bcs	bbd5d4 <ZAG+0xbaf7bc>
    3e78:	4b5935b1 	blmi	1651544 <ZAG+0x164372c>
    3e7c:	00081dab 	andeq	r1, r8, fp, lsr #27
    3e80:	07813500 	streq	r3, [r1, r0, lsl #10]
    3e84:	0f68430d 	svceq	0x0068430d
    3e88:	4cfedf22 	ldclmi	15, cr13, [lr], #136	; 0x88
    3e8c:	7bd467a1 	blvc	ff51dd18 <end+0xbf41dd18>
    3e90:	56a992af 	strtpl	r9, [r9], pc, lsr #5
    3e94:	95d55aad 	ldrbls	r5, [r5, #2733]	; 0xaad
    3e98:	122707aa 	eorne	r0, r7, #44564480	; 0x2a80000
    3e9c:	9c5401d1 	ldflse	f0, [r4], {209}	; 0xd1
    3ea0:	4c63b9a8 	stclmi	9, cr11, [r3], #-672	; 0xfffffd60
    3ea4:	1bc90a15 	blne	ff246700 <end+0xbf146700>
    3ea8:	a5403e35 	strbge	r3, [r0, #-3637]	; 0xe35
    3eac:	5921326e 	stmdbpl	r1!, {r1, r2, r3, r5, r6, r9, ip, sp}
    3eb0:	e1a3aef8 	strd	sl, [r3, r8]!
    3eb4:	c29d6e75 	addsgt	r6, sp, #1872	; 0x750
    3eb8:	0ccd984b 	stcleq	8, cr9, [sp], {75}	; 0x4b
    3ebc:	54b2ca21 	ldrtpl	ip, [r2], #2593	; 0xa21
    3ec0:	256ab682 	strbcs	fp, [sl, #-1666]!	; 0x682
    3ec4:	62dbd3a8 	sbcsvs	sp, fp, #168, 6	; 0xa0000002
    3ec8:	6149fcd1 	ldrdvs	pc, [r9, #-193]	; 0xffffff3f
    3ecc:	3fd2e276 	svccc	0x00d2e276
    3ed0:	bbb513f7 	bllt	fed48eb4 <end+0xbec48eb4>
    3ed4:	9004aaac 	andls	sl, r4, ip, lsr #21
    3ed8:	3dc8cb36 	vstrcc	d28, [r8, #216]	; 0xd8
    3edc:	ed2eb5f1 	cfstr32	mvfx11, [lr, #-964]!	; 0xfffffc3c
    3ee0:	674badde 			; <UNDEFINED> instruction: 0x674badde
    3ee4:	1900854a 	stmdbne	r0, {r1, r3, r6, r8, sl, pc}
    3ee8:	96090629 	strls	r0, [r9], -r9, lsr #12
    3eec:	078b8b5a 			; <UNDEFINED> instruction: 0x078b8b5a
    3ef0:	b064a552 	rsblt	sl, r4, r2, asr r5
    3ef4:	c42a0e80 	strtgt	r0, [sl], #-3712	; 0xe80
    3ef8:	0b3d6406 	bleq	f5cf18 <ZAG+0xf4f100>
    3efc:	16dd5fc2 	ldrbne	r5, [sp], r2, asr #31
    3f00:	d25d29aa 	subsle	r2, sp, #2785280	; 0x2a8000
    3f04:	2ed4d4ac 	cdpcs	4, 13, cr13, cr4, cr12, {5}
    3f08:	6686516a 	strvs	r5, [r6], sl, ror #2
    3f0c:	1f01d44a 	svcne	0x0001d44a
    3f10:	e5546025 	ldrb	r6, [r4, #-37]	; 0x25
    3f14:	4268148b 	rsbmi	r1, r8, #-1962934272	; 0x8b000000
    3f18:	0e9da18c 	coseq<illegal precision>	f2, #4.0
    3f1c:	daa46f26 	ble	fe91fbbc <end+0xbe81fbbc>
    3f20:	cc913313 	ldcgt	3, cr3, [r1], {19}
    3f24:	12e5c814 	rscne	ip, r5, #20, 16	; 0x140000
    3f28:	8ee27148 	cdphi	1, 14, cr7, cr2, cr8, {2}
    3f2c:	b905214f 	stmdblt	r5, {r0, r1, r2, r3, r6, r8, sp}
    3f30:	df266967 	svcle	0x00266967
    3f34:	38b750b5 	ldmcc	r7!, {r0, r2, r4, r5, r7, ip, lr}
    3f38:	d8c58ee4 	stmiale	r5, {r2, r5, r6, r7, r9, sl, fp, pc}^
    3f3c:	12127082 	andsne	r7, r2, #130	; 0x82
    3f40:	928838d6 	addls	r3, r8, #14024704	; 0xd60000
    3f44:	034ce25e 	movteq	lr, #49758	; 0xc25e
    3f48:	5bbe7850 	blpl	fefa2090 <end+0xbeea2090>
    3f4c:	2dcae298 	sfmcs	f6, 3, [sl, #608]	; 0x260
    3f50:	a38e3fad 	orrge	r3, lr, #692	; 0x2b4
    3f54:	100453c3 	andne	r5, r4, r3, asr #7
    3f58:	47cd0aa1 	strbmi	r0, [sp, r1, lsr #21]
    3f5c:	8f503819 	svchi	0x00503819
    3f60:	a62c6688 	strtge	r6, [ip], -r8, lsl #13
    3f64:	a7a98b9e 			; <UNDEFINED> instruction: 0xa7a98b9e
    3f68:	d8a488f1 	stmiale	r4!, {r0, r4, r5, r6, r7, fp, pc}
    3f6c:	b0d8dedc 	ldrsblt	sp, [r8], #236	; 0xec
    3f70:	a352ca16 	cmpge	r2, #90112	; 0x16000
    3f74:	8c725600 	ldclhi	6, cr5, [r2], #-0
    3f78:	267ff248 	ldrbtcs	pc, [pc], -r8, asr #4	; <UNPREDICTABLE>
    3f7c:	58101bc6 	ldmdapl	r0, {r1, r2, r6, r7, r8, r9, fp, ip}
    3f80:	90c0b2b2 	strhls	fp, [r0], #34	; 0x22
    3f84:	7bd21157 	blvc	ff4884e8 <end+0xbf3884e8>
    3f88:	b4dc9ead 	ldrblt	r9, [ip], #3757	; 0xead
    3f8c:	47345467 	ldrmi	r5, [r4, -r7, ror #8]!
    3f90:	17ca39e9 	strbne	r3, [sl, r9, ror #19]
    3f94:	0a0d69fa 	beq	35e784 <ZAG+0x35096c>
    3f98:	336351e7 	cmncc	r3, #-1073741767	; 0xc0000039
    3f9c:	8d4c46cd 	stclhi	6, cr4, [ip, #-820]	; 0xfffffccc
    3fa0:	26340383 	ldrtcs	r0, [r4], -r3, lsl #7
    3fa4:	1b4f08d2 	blne	13c62f4 <ZAG+0x13b84dc>
    3fa8:	a8ad0a6f 	stmiage	sp!, {r0, r1, r2, r3, r5, r6, r9, fp}
    3fac:	d7d29299 	bfile	r9, r9, #5, #14
    3fb0:	02479d68 	subeq	r9, r7, #104, 26	; 0x1a00
    3fb4:	152a23f1 	strne	r2, [sl, #-1009]!	; 0x3f1
    3fb8:	dc5cceaf 	mrrcle	14, 10, ip, ip, cr15	; <UNPREDICTABLE>
    3fbc:	b52b55b6 	strlt	r5, [fp, #-1462]!	; 0x5b6
    3fc0:	501e9063 	andspl	r9, lr, r3, rrx
    3fc4:	21489009 	cmpcs	r8, r9
    3fc8:	77a66572 			; <UNDEFINED> instruction: 0x77a66572
    3fcc:	3abe4da1 	bcc	fef97658 <end+0xbee97658>
    3fd0:	757116a8 	ldrbvc	r1, [r1, #-1704]!	; 0x6a8
    3fd4:	77f26919 			; <UNDEFINED> instruction: 0x77f26919
    3fd8:	5a4c91e7 	bpl	132877c <ZAG+0x131a964>
    3fdc:	410639a3 	smlatbmi	r6, r3, r9, r3
    3fe0:	4e323760 	cdpmi	7, 3, cr3, cr2, cr0, {3}
    3fe4:	eb206cb2 	bl	81f2b4 <ZAG+0x81149c>
    3fe8:	0ab03815 	beq	fec12044 <end+0xbeb12044>
    3fec:	6d760548 	cfldr64vs	mvdx0, [r6, #-288]!	; 0xfffffee0
    3ff0:	98f41fd3 	ldmls	r4!, {r0, r1, r4, r6, r7, r8, r9, sl, fp, ip}^
    3ff4:	d29706e9 	addsle	r0, r7, #244318208	; 0xe900000
    3ff8:	5f557bfa 	svcpl	0x00557bfa
    3ffc:	bceadfca 	stcllt	15, cr13, [sl], #808	; 0x328
    4000:	f9c5d2d5 			; <UNDEFINED> instruction: 0xf9c5d2d5
    4004:	b1d4b488 	bicslt	fp, r4, r8, lsl #9
    4008:	199a2899 	ldmibne	sl, {r0, r3, r4, r7, fp, sp}
    400c:	2b18bf1a 	blcs	633c7c <ZAG+0x625e64>
    4010:	15cc34c5 	strbne	r3, [ip, #1221]	; 0x4c5
    4014:	94543f84 	ldrbls	r3, [r4], #-3972	; 0xf84
    4018:	f3d82596 	vsli.64	d18, d6, #24
    401c:	5b4c421b 	blpl	1314890 <ZAG+0x1306a78>
    4020:	03ca74e1 	biceq	r7, sl, #-520093696	; 0xe1000000
    4024:	7d82b178 	stfvcd	f3, [r2, #480]	; 0x1e0
    4028:	88fbd847 	ldmhi	fp!, {r0, r1, r2, r6, fp, ip, lr, pc}^
    402c:	5809ee23 	stmdapl	r9, {r0, r1, r5, r9, sl, fp, sp, lr, pc}
    4030:	81be918d 			; <UNDEFINED> instruction: 0x81be918d
    4034:	5135045b 	teqpl	r5, fp, asr r4
    4038:	dcc8c41f 	cfstrdle	mvd12, [r8], {31}
    403c:	108dec03 	addne	lr, sp, r3, lsl #24
    4040:	930016cc 	movwls	r1, #1740	; 0x6cc
    4044:	604c1fbd 	strhvs	r1, [ip], #-253	; 0xffffff03
    4048:	bd71a6ca 	ldcllt	6, cr10, [r1, #-808]!	; 0xfffffcd8
    404c:	2cf4d018 	ldclcs	0, cr13, [r4], #96	; 0x60
    4050:	38d187c5 	ldmcc	r1, {r0, r2, r6, r7, r8, r9, sl, pc}^
    4054:	d4e0b65a 	strbtle	fp, [r0], #1626	; 0x65a
    4058:	a5526c16 	ldrbge	r6, [r2, #-3094]	; 0xc16
    405c:	fd132e55 	ldc2	14, cr2, [r3, #-340]	; 0xfffffeac
    4060:	04a26cf9 	strteq	r6, [r2], #3321	; 0xcf9
    4064:	91f3ac78 	mvnsls	sl, r8, ror ip
    4068:	80059222 	andhi	r9, r5, r2, lsr #4
    406c:	495d6970 	ldmdbmi	sp, {r4, r5, r6, r8, fp, sp, lr}^
    4070:	52ac8cd9 	adcpl	r8, ip, #55552	; 0xd900
    4074:	c5dfd648 	ldrbgt	sp, [pc, #1608]	; 46c4 <jpegdata+0x2314>
    4078:	82a59dad 	adchi	r9, r5, #11072	; 0x2b40
    407c:	9a624a3d 	bls	1896978 <ZAG+0x1888b60>
    4080:	a12186b2 			; <UNDEFINED> instruction: 0xa12186b2
    4084:	334c0dc9 	movtcc	r0, #52681	; 0xcdc9
    4088:	56666528 	strbtpl	r6, [r6], -r8, lsr #10
    408c:	1ab6243e 	bne	fed8d18c <end+0xbec8d18c>
    4090:	55b07421 	ldrpl	r7, [r0, #1057]!	; 0x421
    4094:	585842cf 	ldmdapl	r8, {r0, r1, r2, r3, r6, r7, r9, lr}^
    4098:	af56715a 	svcge	0x0056715a
    409c:	4585e94d 	strmi	lr, [r5, #2381]	; 0x94d
    40a0:	4a0bd212 	bmi	2f88f0 <ZAG+0x2eaad8>
    40a4:	4ec31994 	mcrmi	9, 6, r1, cr3, cr4, {4}
    40a8:	0a90afe4 	beq	fe430040 <end+0xbe330040>
    40ac:	181f2824 	ldmdane	pc, {r2, r5, fp, sp}	; <UNPREDICTABLE>
    40b0:	d73b6295 			; <UNDEFINED> instruction: 0xd73b6295
    40b4:	3ec793ce 	cdpcc	3, 12, cr9, cr7, cr14, {6}
    40b8:	ff74c798 			; <UNDEFINED> instruction: 0xff74c798
    40bc:	a78b3400 	strge	r3, [fp, r0, lsl #8]
    40c0:	63af63eb 			; <UNDEFINED> instruction: 0x63af63eb
    40c4:	e9f22bf2 	ldmib	r2!, {r1, r4, r5, r6, r7, r8, r9, fp, sp}^
    40c8:	f7a976a4 			; <UNDEFINED> instruction: 0xf7a976a4
    40cc:	b07a856a 	rsbslt	r8, sl, sl, ror #10
    40d0:	4458e10e 	ldrbmi	lr, [r8], #-270	; 0x10e
    40d4:	1b01e8bd 	blne	7e3d0 <ZAG+0x705b8>
    40d8:	7ebdc66e 	cdpvc	6, 11, cr12, cr13, cr14, {3}
    40dc:	179cac48 	ldrne	sl, [ip, r8, asr #24]
    40e0:	b289fbf6 	addlt	pc, r9, #251904	; 0x3d800
    40e4:	ac51e9e6 	mrrcge	9, 14, lr, r1, cr6
    40e8:	2aa9221c 	bcs	fea4c960 <end+0xbe94c960>
    40ec:	cb15c40a 	blgt	57511c <ZAG+0x567304>
    40f0:	3e90a010 	mrccc	0, 4, sl, cr0, cr0, {0}
    40f4:	04d8c7e3 	ldrbeq	ip, [r8], #2019	; 0x7e3
    40f8:	0f020390 	svceq	0x00020390
    40fc:	0b8f3c5a 	bleq	fe3d326c <end+0xbe2d326c>
    4100:	1a05f7c7 	bne	182024 <ZAG+0x17420c>
    4104:	22500b17 	subscs	r0, r0, #23552	; 0x5c00
    4108:	c40a2aa1 	strgt	r2, [sl], #-2721	; 0xaa1
    410c:	50880d15 	addpl	r0, r8, r5, lsl sp
    4110:	e3711f48 	cmn	r1, #72, 30	; 0x120
    4114:	0092a012 	addseq	sl, r2, r2, lsl r0
    4118:	31e94160 	mvncc	r4, r0, ror #2
    411c:	1a6c2cd1 	bne	1b0f468 <ZAG+0x1b01650>
    4120:	47aa6444 	strmi	r6, [sl, r4, asr #8]!
    4124:	2735aa76 			; <UNDEFINED> instruction: 0x2735aa76
    4128:	6789ed82 	strvs	lr, [r9, r2, lsl #27]
    412c:	eb395e51 	bl	e5ba78 <ZAG+0xe4dc60>
    4130:	4e9add98 	mrcmi	13, 4, sp, cr10, cr8, {4}
    4134:	42e24cfa 	rscmi	r4, r2, #64000	; 0xfa00
    4138:	99855891 	stmibls	r5, {r0, r4, r7, fp, ip, lr}
    413c:	0b213176 	bleq	85071c <ZAG+0x842904>
    4140:	de3b99b7 	mrcle	9, 1, r9, cr11, cr7, {5}
    4144:	d2cbf682 	sbcle	pc, fp, #136314880	; 0x8200000
    4148:	56d2f2a1 	ldrbpl	pc, [r2], r1, lsr #5	; <UNPREDICTABLE>
    414c:	3043c80a 	subcc	ip, r3, sl, lsl #16
    4150:	315f196f 	cmpcc	pc, pc, ror #18
    4154:	866c8794 			; <UNDEFINED> instruction: 0x866c8794
    4158:	1ed63024 	cdpne	0, 13, cr3, cr6, cr4, {1}
    415c:	429f6da3 	addsmi	r6, pc, #10432	; 0x28c0
    4160:	71826afb 	strdvc	r6, [r2, fp]
    4164:	252500ff 	strcs	r0, [r5, #-255]!	; 0xff
    4168:	8955e071 	ldmdbhi	r5, {r0, r4, r5, r6, sp, lr, pc}^
    416c:	12ac203e 	adcne	r2, ip, #62	; 0x3e
    4170:	36d8614e 	ldrbcc	r6, [r8], lr, asr #2
    4174:	8348ea28 	movthi	lr, #35368	; 0x8a28
    4178:	db464c4d 	blle	11972b4 <ZAG+0x118949c>
    417c:	8fa5e9e5 	svchi	0x00a5e9e5
    4180:	870cf96b 	strhi	pc, [ip, -fp, ror #18]
    4184:	363097e9 	ldrtcc	r9, [r0], -r9, ror #15
    4188:	9396e0ab 	orrsls	lr, r6, #171	; 0xab
    418c:	a8f55e44 	ldmge	r5!, {r2, r6, r9, sl, fp, ip, lr}^
    4190:	498e256c 	stmibmi	lr, {r2, r3, r5, r6, r8, sl, sp}
    4194:	ee22c90e 	cdp	9, 2, cr12, cr2, cr14, {0}
    4198:	9937ceee 	ldmdbls	r7!, {r1, r2, r3, r5, r6, r7, r9, sl, fp, lr, pc}
    419c:	f1542c49 			; <UNDEFINED> instruction: 0xf1542c49
    41a0:	38e69724 	stmiacc	r6!, {r2, r5, r8, r9, sl, ip, pc}^
    41a4:	6a35d2bc 	bvs	d78c9c <ZAG+0xd6ae84>
    41a8:	512af8d4 	ldrdpl	pc, [sl, -r4]!
    41ac:	e4319622 	ldrt	r9, [r1], #-1570	; 0x622
    41b0:	ba908155 	blt	fe42470c <end+0xbe32470c>
    41b4:	d44f6c23 	strble	r6, [pc], #-3107	; 41bc <jpegdata+0x1e0c>
    41b8:	2d53e30e 	ldclcs	3, cr14, [r3, #-56]	; 0xffffffc8
    41bc:	9a681e22 	bls	1a0ba4c <ZAG+0x19fdc34>
    41c0:	de7e6ad5 	mrcle	10, 3, r6, cr14, cr5, {6}
    41c4:	852802ad 	strhi	r0, [r8, #-685]!	; 0x2ad
    41c8:	0d56268f 	ldcleq	6, cr2, [r6, #-572]	; 0xfffffdc4
    41cc:	59c23421 	stmibpl	r2, {r0, r5, sl, ip, sp}^
    41d0:	c9401e89 	stmdbgt	r0, {r0, r3, r7, r9, sl, fp, ip}^
    41d4:	644b1283 	strbvs	r1, [fp], #-643	; 0x283
    41d8:	cfcaa620 	svcgt	0x00caa620
    41dc:	7bbd969b 	blvc	fef69c50 <end+0xbee69c50>
    41e0:	63eb69f9 	mvnvs	r6, #4079616	; 0x3e4000
    41e4:	5873d469 	ldmdapl	r3!, {r0, r3, r5, r6, sl, ip, lr, pc}^
    41e8:	27cf1347 	strbcs	r1, [pc, r7, asr #6]
    41ec:	588e6779 	stmpl	lr, {r0, r3, r4, r5, r6, r8, r9, sl, sp, lr}
    41f0:	18bd03e0 	popne	{r5, r6, r7, r8, r9}
    41f4:	64e5168e 	strbtvs	r1, [r5], #1678	; 0x68e
    41f8:	33db02bb 	bicscc	r0, fp, #-1342177269	; 0xb000000b
    41fc:	19c8eda9 	stmibne	r8, {r0, r3, r5, r7, r8, sl, fp, sp, lr, pc}^
    4200:	4e71cbc1 	vsubmi.f64	d28, d17, d1
    4204:	70fb6bbe 	ldrhtvc	r6, [fp], #190	; 0xbe
    4208:	490b92b8 	stmdbmi	fp, {r3, r4, r5, r7, r9, ip, pc}
    420c:	c6aee820 	strtgt	lr, [lr], r0, lsr #16
    4210:	1041fc3e 	subne	pc, r1, lr, lsr ip	; <UNPREDICTABLE>
    4214:	c8400748 	stmdagt	r0, {r3, r6, r8, r9, sl}^
    4218:	d25c7390 	subsle	r7, ip, #144, 6	; 0x40000002
    421c:	f617f9b9 	pldw	[r7], -r9	; <illegal shifter operand>
    4220:	0b92b8aa 	bleq	fe4b24d0 <end+0xbe3b24d0>
    4224:	151d5892 	ldrne	r5, [sp, #-2194]	; 0x892
    4228:	88dfc7d8 	ldmhi	pc, {r3, r4, r6, r7, r8, r9, sl, lr, pc}^	; <UNPREDICTABLE>
    422c:	f8000922 			; <UNDEFINED> instruction: 0xf8000922
    4230:	26082a83 	strcs	r2, [r8], -r3, lsl #21
    4234:	b0703e5d 	rsbslt	r3, r0, sp, asr lr
    4238:	3ca34ae4 	vstmiacc	r3!, {s8-s235}
    423c:	11d88183 	bicsne	r8, r8, r3, lsl #3
    4240:	00dbf0f6 	ldrsheq	pc, [fp], #6	; <UNPREDICTABLE>
    4244:	3f7fde0e 	svccc	0x007fde0e
    4248:	c78ffc93 			; <UNDEFINED> instruction: 0xc78ffc93
    424c:	52e74ea5 	rscpl	r4, r7, #2640	; 0xa50
    4250:	0024805e 	eoreq	r8, r4, lr, asr r0
    4254:	52aff367 	adcpl	pc, pc, #-1677721599	; 0x9c000001
    4258:	617fbd4f 	cmnvs	pc, pc, asr #26
    425c:	58aedf3f 	stmiapl	lr!, {r0, r1, r2, r3, r4, r5, r8, r9, sl, fp, ip, lr, pc}
    4260:	f5a478fd 			; <UNDEFINED> instruction: 0xf5a478fd
    4264:	a9a5782e 	stmibge	r5!, {r1, r2, r3, r5, fp, ip, sp, lr}
    4268:	7c9b5651 	ldcvc	6, cr5, [fp], {81}	; 0x51
    426c:	136f4882 	cmnne	pc, #8519680	; 0x820000
    4270:	2366f234 	msrcs	SPSR_sx, #52, 4	; 0x40000003
    4274:	d2085622 	andle	r5, r8, #35651584	; 0x2200000
    4278:	d50f42a6 	strle	r4, [pc, #-678]	; 3fda <jpegdata+0x1c2a>
    427c:	d2cb0090 	sbcle	r0, fp, #144	; 0x90
    4280:	d7875c17 	usada8le	r7, r7, ip, r5
    4284:	e4a64a35 	strt	r4, [r6], #2613	; 0xa35
    4288:	fa85bffd 	blx	fe174284 <end+0xbe074284>
    428c:	495a618c 	ldmdbmi	sl, {r2, r3, r7, r8, sp, lr}^
    4290:	64e5906a 	strbtvs	r9, [r5], #106	; 0x6a
    4294:	86b3548d 	ldrthi	r5, [r3], sp, lsl #9
    4298:	e20543e0 	and	r4, r5, #224, 6	; 0x80000003
    429c:	20089218 	andcs	r9, r8, r8, lsl r2
    42a0:	6f1b7702 	svcvs	0x001b7702
    42a4:	6a54d2eb 	bvs	1538e58 <ZAG+0x152b040>
    42a8:	82212a4c 	eorhi	r2, r1, #76, 20	; 0x4c000
    42ac:	00ff2008 	rscseq	r2, pc, r8
    42b0:	89beb75f 	ldmibhi	lr!, {r0, r1, r2, r3, r4, r6, r8, r9, sl, ip, sp, pc}
    42b4:	1657b771 			; <UNDEFINED> instruction: 0x1657b771
    42b8:	2daf9417 	cfstrscs	mvf9, [pc, #92]!	; 431c <jpegdata+0x1f6c>
    42bc:	3029f147 	eorcc	pc, r9, r7, asr #2
    42c0:	1cdaa971 	ldclne	9, cr10, [sl], {113}	; 0x71
    42c4:	89c08fa4 	stmibhi	r0, {r2, r5, r7, r8, r9, sl, fp, pc}^
    42c8:	8aafd33f 	bhi	febf8fcc <end+0xbeaf8fcc>
    42cc:	094e49d3 	stmdbeq	lr, {r0, r1, r4, r6, r7, r8, fp, lr}^
    42d0:	4123af61 	teqmi	r3, r1, ror #30
    42d4:	a488b10c 	strge	fp, [r8], #268	; 0x10c
    42d8:	5dc5338e 	stclpl	3, cr3, [r5, #568]	; 0x238
    42dc:	400a0603 	andmi	r0, sl, r3, lsl #12
    42e0:	4e5580fc 	mrcmi	0, 2, r8, cr5, cr12, {7}
    42e4:	fe41e5df 	mcr2	5, 2, lr, cr1, cr15, {6}
    42e8:	2e317e3d 	mrccs	14, 1, r7, cr1, cr13, {1}
    42ec:	b9cf3ed9 	stmiblt	pc, {r0, r3, r4, r6, r7, r9, sl, fp, ip, sp}^	; <UNPREDICTABLE>
    42f0:	546bbdfe 	strbtpl	fp, [fp], #-3582	; 0xdfe
    42f4:	a55aafb9 	ldrbge	sl, [sl, #-4025]	; 0xfb9
    42f8:	b35cb54a 	cmplt	ip, #310378496	; 0x12800000
    42fc:	9224963c 	eorls	r9, r4, #60, 12	; 0x3c00000
    4300:	b1249358 	teqlt	r4, r8, asr r3
    4304:	cfec64f6 	svcgt	0x00ec64f6
    4308:	fafa7edf 	blx	ffea3e8c <end+0xbfda3e8c>
    430c:	1ccdc396 	stclne	3, cr12, [sp], {150}	; 0x96
    4310:	8500c128 	strhi	ip, [r0, #-296]	; 0x128
    4314:	d5482938 	strble	r2, [r8, #-2360]	; 0x938
    4318:	7d8b1c49 	stcvc	12, cr1, [fp, #292]	; 0x124
    431c:	ddb11b88 	ldcle	11, cr1, [r1, #544]!	; 0x220
    4320:	dbb9938f 	blle	fee69164 <end+0xbed69164>
    4324:	0f00f861 	svceq	0x0000f861
    4328:	6216d631 	andsvs	sp, r6, #51380224	; 0x3100000
    432c:	fef603c0 	cdp2	3, 15, cr0, cr6, cr0, {6}
    4330:	fc3bf383 	ldc2	3, cr15, [fp], #-524	; 0xfffffdf4
    4334:	1a77f6fb 	bne	1e01f28 <ZAG+0x1df4110>
    4338:	5e5c07f4 	mrcpl	7, 2, r0, cr12, cr4, {7}
    433c:	d5f17abf 	ldrble	r7, [r1, #2751]!	; 0xabf
    4340:	0cf5a75d 	ldcleq	7, cr10, [r5], #372	; 0x174
    4344:	ad4ce33a 	stclge	3, cr14, [ip, #-232]	; 0xffffff18
    4348:	4e0e77ba 	mcrmi	7, 0, r7, cr14, cr10, {5}
    434c:	df9368e4 	svcle	0x009368e4
    4350:	911c4704 	tstls	ip, r4, lsl #14
    4354:	e62c1eb7 			; <UNDEFINED> instruction: 0xe62c1eb7
    4358:	4c5e1f25 	mrrcmi	15, 2, r1, lr, cr5
    435c:	de4e2509 	cdple	5, 4, cr2, cr14, cr9, {0}
    4360:	b902ee3c 	stmdblt	r2, {r2, r3, r4, r5, r9, sl, fp, sp, lr, pc}
    4364:	5716f386 	ldrpl	pc, [r6, -r6, lsl #7]
    4368:	534bf50a 	movtpl	pc, #46346	; 0xb50a	; <UNPREDICTABLE>
    436c:	12b1c823 	adcsne	ip, r1, #2293760	; 0x230000
    4370:	7c6d0d20 	stclvc	13, cr0, [sp], #-128	; 0xffffff80
    4374:	4bb06141 	blmi	fec1c880 <end+0xbeb1c880>
    4378:	b24e8f0d 	sublt	r8, lr, #13, 30	; 0x34
    437c:	e1a61e03 			; <UNDEFINED> instruction: 0xe1a61e03
    4380:	427e1bb9 	rsbsmi	r1, lr, #189440	; 0x2e400
    4384:	aad29bd6 	bge	ff4ab2e4 <end+0xbf3ab2e4>
    4388:	7a19801d 	bvc	664404 <ZAG+0x6565ec>
    438c:	28f37f06 	ldmcs	r3!, {r1, r2, r8, r9, sl, fp, ip, sp, lr}^
    4390:	3a481227 	bcc	1208c34 <ZAG+0x11fae1c>
    4394:	4900fff5 	stmdbmi	r0, {r0, r2, r4, r5, r6, r7, r8, r9, sl, fp, ip, sp, lr, pc}
    4398:	62a6ae23 	adcvs	sl, r6, #560	; 0x230
    439c:	71d4cc92 			; <UNDEFINED> instruction: 0x71d4cc92
    43a0:	ab46a3d7 	blge	11ad304 <ZAG+0x119f4ec>
    43a4:	8a25c366 	bhi	975144 <ZAG+0x96732c>
    43a8:	9134c7f3 			; <UNDEFINED> instruction: 0x9134c7f3
    43ac:	8c67f6b2 	stclhi	6, cr15, [r7], #-712	; 0xfffffd38
    43b0:	051babac 	ldreq	sl, [fp, #-2988]	; 0xbac
    43b4:	fd133950 	ldc2	9, cr3, [r3, #-320]	; 0xfffffec0
    43b8:	40dd65d5 	ldrsbmi	r6, [sp], #85	; 0x55
    43bc:	f429bb0b 			; <UNDEFINED> instruction: 0xf429bb0b
    43c0:	19b54cbb 	ldmibne	r5!, {r0, r1, r3, r4, r5, r7, sl, fp, lr}
    43c4:	fc09e0a6 	stc2	0, cr14, [r9], {166}	; 0xa6
    43c8:	1209a293 	andne	sl, r9, #805306377	; 0x30000009
    43cc:	718fdc40 	orrvc	sp, pc, r0, asr #24
    43d0:	00ff7f19 	rscseq	r7, pc, r9, lsl pc	; <UNPREDICTABLE>
    43d4:	41d18224 	bicsmi	r8, r1, r4, lsr #4
    43d8:	ece964ca 	cfstrd	mvd6, [r9], #808	; 0x328
    43dc:	20400601 	subcs	r0, r0, r1, lsl #12
    43e0:	ee44a6e4 	cdp	6, 4, cr10, cr4, cr4, {7}
    43e4:	7e90f47f 	mrcvc	4, 4, APSR_nzcv, cr0, cr15, {3}
    43e8:	a78e00f3 			; <UNDEFINED> instruction: 0xa78e00f3
    43ec:	fb9a710f 	blx	fe6a0832 <end+0xbe5a0832>
    43f0:	a41ee851 	ldrge	lr, [lr], #-2129	; 0x851
    43f4:	b8d2a5e4 	ldmlt	r2, {r2, r5, r6, r7, r8, sl, sp, pc}^
    43f8:	9620b71b 			; <UNDEFINED> instruction: 0x9620b71b
    43fc:	3846cecf 	stmdacc	r6, {r0, r1, r2, r3, r6, r7, r9, sl, fp, lr, pc}^
    4400:	465c2dc3 	ldrbmi	r2, [ip], -r3, asr #27
    4404:	1223484a 	eorne	r4, r3, #4849664	; 0x4a0000
    4408:	388ea3e6 	stmcc	lr, {r1, r2, r5, r6, r7, r8, r9, sp, pc}
    440c:	24b856cc 	ldrtcs	r5, [r8], #1740	; 0x6cc
    4410:	96e3be3d 			; <UNDEFINED> instruction: 0x96e3be3d
    4414:	bd9b6748 	ldclt	7, cr6, [fp, #288]	; 0x120
    4418:	4974a822 	ldmdbmi	r4!, {r1, r5, fp, sp, pc}^
    441c:	f36f2d5d 			; <UNDEFINED> instruction: 0xf36f2d5d
    4420:	6b846a66 	blvs	fe11edc0 <end+0xbe01edc0>
    4424:	b4fa4860 	ldrbtlt	r4, [sl], #2144	; 0x860
    4428:	f6090637 			; <UNDEFINED> instruction: 0xf6090637
    442c:	6a6f4044 	bvs	1bd4544 <ZAG+0x1bc672c>
    4430:	b16ec006 	cmnlt	lr, r6
    4434:	9456777a 	ldrbls	r7, [r6], #-1914	; 0x77a
    4438:	2a546a2d 	bcs	151ecf4 <ZAG+0x1510edc>
    443c:	000b55ce 	andeq	r5, fp, lr, asr #11
    4440:	78c9f849 	stmiavc	r9, {r0, r3, r6, fp, ip, sp, lr, pc}^
    4444:	25f14ea6 	ldrbcs	r4, [r1, #3750]!	; 0xea6
    4448:	0abc4684 	beq	fef15e60 <end+0xbee15e60>
    444c:	261040ce 	ldrcs	r4, [r0], -lr, asr #1
    4450:	c45ad5a6 	ldrbgt	sp, [sl], #-1446	; 0x5a6
    4454:	aac7234f 	bge	ff1cd198 <end+0xbf0cd198>
    4458:	3f1c41ad 	svccc	0x001c41ad
    445c:	87e16318 			; <UNDEFINED> instruction: 0x87e16318
    4460:	48d7719c 	ldmmi	r7, {r2, r3, r4, r7, r8, ip, sp, lr}^
    4464:	22c58211 	sbccs	r8, r5, #268435457	; 0x10000001
    4468:	19958523 	ldmibne	r5, {r0, r1, r5, r8, sl, pc}
    446c:	aa6e3bd8 	bge	1b933d4 <ZAG+0x1b855bc>
    4470:	3b2314ec 	blcc	8c9828 <ZAG+0x8bba10>
    4474:	33d0d727 	bicscc	sp, r0, #10223616	; 0x9c0000
    4478:	58acf1c3 	stmiapl	ip!, {r0, r1, r6, r7, r8, ip, sp, lr, pc}
    447c:	c87200b5 	ldmdagt	r2!, {r0, r2, r4, r5, r7}^
    4480:	b424c1b4 	strtlt	ip, [r4], #-436	; 0x1b4
    4484:	ca820449 	bgt	fe0855b0 <end+0xbdf855b0>
    4488:	0283d040 	addeq	sp, r3, #64	; 0x40
    448c:	d5770249 	ldrble	r0, [r7, #-585]!	; 0x249
    4490:	f5c2f82d 			; <UNDEFINED> instruction: 0xf5c2f82d
    4494:	3435546a 	ldrtcc	r5, [r5], #-1130	; 0x46a
    4498:	ea2010c4 	b	8087b0 <ZAG+0x7fa998>
    449c:	23b9a307 			; <UNDEFINED> instruction: 0x23b9a307
    44a0:	248e232f 	strcs	r2, [lr], #815	; 0x32f
    44a4:	809524fd 			; <UNDEFINED> instruction: 0x809524fd
    44a8:	5b36f508 	blpl	dc18d0 <ZAG+0xdb3ab8>
    44ac:	c2e0ab21 	rscgt	sl, r0, #33792	; 0x8400
    44b0:	8d6ba8e5 	stclhi	8, cr10, [fp, #-916]!	; 0xfffffc6c
    44b4:	6575a579 	ldrbvs	sl, [r5, #-1401]!	; 0x579
    44b8:	b9d4304a 	ldmiblt	r4, {r1, r3, r6, ip, sp}^
    44bc:	359f1963 	ldrcc	r1, [pc, #2403]	; 4e27 <jpegdata+0x2a77>
    44c0:	eb76d371 	bl	1db928c <ZAG+0x1dab474>
    44c4:	ab789a84 	blge	1e2aedc <ZAG+0x1e1d0c4>
    44c8:	23398656 	teqcs	r9, #90177536	; 0x5600000
    44cc:	920c799a 	andls	r7, ip, #2523136	; 0x268000
    44d0:	a3ba520e 			; <UNDEFINED> instruction: 0xa3ba520e
    44d4:	18cfae32 	stmiane	pc, {r1, r4, r5, r9, sl, fp, sp, pc}^	; <UNPREDICTABLE>
    44d8:	d42eb508 	strtle	fp, [lr], #-1288	; 0x508
    44dc:	0a1acbec 	beq	6b7494 <ZAG+0x6a967c>
    44e0:	5490056f 	ldrpl	r0, [r0], #1391	; 0x56f
    44e4:	aa9731f6 	bge	fe5d0cc4 <end+0xbe4d0cc4>
    44e8:	c8c71027 	stmiagt	r7, {r0, r1, r2, r5, ip}^
    44ec:	b34d8178 	movtlt	r8, #53624	; 0xd178
    44f0:	1237cf55 	eorsne	ip, r7, #340	; 0x154
    44f4:	388d9356 	stmcc	sp, {r1, r2, r4, r6, r8, r9, ip, pc}
    44f8:	ee95da21 	vfnms.f32	s26, s10, s3
    44fc:	a2db9b18 	sbcsge	r9, fp, #24, 22	; 0x6000
    4500:	630011e9 	movwvs	r1, #489	; 0x1e9
    4504:	3140f6f7 	strdcc	pc, [r0, #-103]	; 0xffffff99
    4508:	60fdb1a1 	rscsvs	fp, sp, r1, lsr #3
    450c:	ce62c090 	mcrgt	0, 3, ip, cr2, cr0, {4}
    4510:	9dc5b5c8 	cfstr64ls	mvdx11, [r5, #800]	; 0x320
    4514:	9cc68871 	stclls	8, cr8, [r6], {113}	; 0x71
    4518:	6eb68b95 	vmovvs.32	r8, d22[1]
    451c:	c9278994 	stmdbgt	r7!, {r2, r4, r7, r8, fp, pc}
    4520:	651e38e4 	ldrvs	r3, [lr, #-2276]	; 0x8e4
    4524:	28b9b717 	ldmcs	r9!, {r0, r1, r2, r4, r8, r9, sl, ip, sp, pc}
    4528:	7edb364b 	cdpvc	6, 13, cr3, cr11, cr11, {2}
    452c:	7721f24a 	strvc	pc, [r1, -sl, asr #4]!
    4530:	e0dcb124 	sbcs	fp, ip, r4, lsr #2
    4534:	e2bdd67e 	adcs	sp, sp, #132120576	; 0x7e00000
    4538:	00ffaebb 	ldrhteq	sl, [pc], #235
    453c:	b0d4ac9a 	smullslt	sl, r4, sl, ip
    4540:	3aad0aa8 	bcc	feb46fe8 <end+0xbea46fe8>
    4544:	a904e479 	stmdbge	r4, {r0, r3, r4, r5, r6, sl, sp, lr, pc}
    4548:	41a10c49 			; <UNDEFINED> instruction: 0x41a10c49
    454c:	7828a32a 	stmdavc	r8!, {r1, r3, r5, r8, r9, sp, pc}
    4550:	fa02740c 	blx	a1588 <ZAG+0x93770>
    4554:	5faffe81 	svcpl	0x00affe81
    4558:	70442b71 	subvc	r2, r4, r1, ror fp
    455c:	6b55f556 	blvs	1581abc <ZAG+0x1573ca4>
    4560:	c8acac53 	stmiagt	ip!, {r0, r1, r4, r6, sl, fp, sp, pc}
    4564:	9115e115 	tstls	r5, r5, lsl r1
    4568:	c738ce8c 	ldrgt	ip, [r8, -ip, lsl #29]!
    456c:	91a43098 			; <UNDEFINED> instruction: 0x91a43098
    4570:	35a00630 	strcc	r0, [r0, #1584]!	; 0x630
    4574:	f1f838f1 			; <UNDEFINED> instruction: 0xf1f838f1
    4578:	6e766f34 	mrcvs	15, 3, r6, cr6, cr4, {1}
    457c:	e2f1a9d5 	rscs	sl, r1, #3489792	; 0x354000
    4580:	c542cc8e 	strbgt	ip, [r2, #-3214]	; 0xc8e
    4584:	d45854b5 	ldrble	r5, [r8], #-1205	; 0x4b5
    4588:	84253b2f 	strthi	r3, [r5], #-2863	; 0xb2f
    458c:	90c30160 	sbcls	r0, r3, r0, ror #2
    4590:	94d5af12 	ldrbls	sl, [r5], #3858	; 0xf12
    4594:	1cee2281 	sfmne	f2, 2, [lr], #516	; 0x204
    4598:	3afdcd19 	bcc	fff77a04 <end+0xbfe77a04>
    459c:	0e760935 	mrceq	9, 3, r0, cr6, cr5, {1}
    45a0:	996ca1a2 	stmdbls	ip!, {r1, r5, r7, r8, sp, pc}^
    45a4:	6049d372 	subvs	sp, r9, r2, ror r3
    45a8:	8fca59a1 	svchi	0x00ca59a1
    45ac:	40a6373f 	adcmi	r3, r6, pc, lsr r7
    45b0:	6586a425 	strvs	sl, [r6, #1061]	; 0x425
    45b4:	2b7ea423 	blcs	1fad648 <ZAG+0x1f9f830>
    45b8:	2d156588 	cfldr32cs	mvfx6, [r5, #-544]	; 0xfffffde0
    45bc:	870a58ac 	strhi	r5, [sl, -ip, lsr #17]
    45c0:	bf9f8b02 	svclt	0x009f8b02
    45c4:	4858d440 	ldmdami	r8, {r6, sl, ip, lr, pc}^
    45c8:	e8500992 	ldmda	r0, {r1, r4, r7, r8, fp}^
    45cc:	2d04d40a 	cfstrscs	mvf13, [r4, #-40]	; 0xffffffd8
    45d0:	25982d64 	ldrcs	r2, [r8, #3428]	; 0xd64
    45d4:	bbc17456 	bllt	ff061734 <end+0xbef61734>
    45d8:	00ff5726 	rscseq	r5, pc, r6, lsr #14
    45dc:	a5c6ddc9 	strbge	sp, [r6, #3529]	; 0xdc9
    45e0:	d4aaf688 	strtle	pc, [sl], #1672	; 0x688
    45e4:	4e692cc4 	cdpmi	12, 6, cr2, cr9, cr4, {6}
    45e8:	10b3f715 	adcsne	pc, r3, r5, lsl r7	; <UNPREDICTABLE>
    45ec:	31d2ce78 	bicscc	ip, r2, r8, ror lr
    45f0:	5e0e0690 	mcrpl	6, 0, r0, cr14, cr0, {4}
    45f4:	1f1e1032 	svcne	0x001e1032
    45f8:	d1aa0379 			; <UNDEFINED> instruction: 0xd1aa0379
    45fc:	88544e2b 	ldmdahi	r4, {r0, r1, r3, r5, r9, sl, fp, lr}^
    4600:	7c82c904 	stcvc	9, cr12, [r2], {4}
    4604:	112018bd 			; <UNDEFINED> instruction: 0x112018bd
    4608:	fec086ac 	cdp2	6, 12, cr8, cr0, cr12, {5}
    460c:	4fd7c9a4 	svcmi	0x00d7c9a4
    4610:	584a638b 	stmdapl	sl, {r0, r1, r3, r7, r8, r9, sp, lr}^
    4614:	629e8114 	addsvs	r8, lr, #20, 2
    4618:	2d81fb18 	vstrcs	d15, [r1, #96]	; 0x60
    461c:	9693c4f6 			; <UNDEFINED> instruction: 0x9693c4f6
    4620:	2430244a 	ldrtcs	r2, [r0], #-1098	; 0x44a
    4624:	a2e3e6b4 	rscge	lr, r3, #180, 12	; 0xb400000
    4628:	465c0d8c 	ldrbmi	r0, [ip], -ip, lsl #27
    462c:	0c26ac06 	stceq	12, cr10, [r6], #-24	; 0xffffffe8
    4630:	ee20287d 	mcr	8, 1, r2, cr0, cr13, {3}
    4634:	0c0bf959 	stceq	9, cr15, [fp], {89}	; 0x59
    4638:	f31d2622 	vmax.u16	d2, d13, d18
    463c:	20c0cc23 	sbccs	ip, r0, r3, lsr #24
    4640:	76475ae4 	strbvc	r5, [r7], -r4, ror #21
    4644:	f7fd2263 			; <UNDEFINED> instruction: 0xf7fd2263
    4648:	ea96df77 	b	fe5bc42c <end+0xbe4bc42c>
    464c:	a0d4f20e 	sbcsge	pc, r4, lr, lsl #4
    4650:	a1ae5702 			; <UNDEFINED> instruction: 0xa1ae5702
    4654:	efa40cb1 	svc	0x00a40cb1
    4658:	08525625 	ldmdaeq	r2, {r0, r2, r5, r9, sl, ip, lr}^
    465c:	886d415c 	stmdahi	sp!, {r2, r3, r4, r6, r8, lr}^
    4660:	51869001 	orrpl	r9, r6, r1
    4664:	52041822 	andpl	r1, r4, #2228224	; 0x220000
    4668:	94389366 	ldrtls	r9, [r8], #-870	; 0x366
    466c:	6b8d8946 	blvs	fe366b8c <end+0xbe266b8c>
    4670:	94114112 	ldrls	r4, [r1], #-274	; 0x112
    4674:	b9b38198 	ldmiblt	r3!, {r3, r4, r7, r8, pc}
    4678:	ff42ee1f 			; <UNDEFINED> instruction: 0xff42ee1f
    467c:	637aaa00 	cmnvs	sl, #0, 20
    4680:	232de946 	teqcs	sp, #1146880	; 0x118000
    4684:	1e1535aa 	cdpne	5, 1, cr3, cr5, cr10, {5}
    4688:	2fab4f9c 	svccs	0x00ab4f9c
    468c:	72218b56 	eorvc	r8, r1, #88064	; 0x15800
    4690:	b08c353d 	addlt	r3, ip, sp, lsr r5
    4694:	b1e4f6ce 	mvnlt	pc, lr, asr #13
    4698:	b86ac712 	stmdalt	sl!, {r1, r4, r8, r9, sl, lr, pc}^
    469c:	afa6fd0c 	svcge	0x00a6fd0c
    46a0:	23e9dd3e 	mvncs	sp, #3968	; 0xf80
    46a4:	aff27054 	svcge	0x00f27054
    46a8:	a134b377 	teqge	r4, r7, ror r3
    46ac:	71a59b79 			; <UNDEFINED> instruction: 0x71a59b79
    46b0:	a6b0526b 	ldrtge	r5, [r0], fp, ror #4
    46b4:	7b600afe 	blvc	18072b4 <ZAG+0x17f949c>
    46b8:	5e5fa924 	cdppl	9, 5, cr10, cr15, cr4, {1}
    46bc:	c57b0453 	ldrbgt	r0, [fp, #-1107]!	; 0x453
    46c0:	fed1a9bd 	mrc2	9, 6, sl, cr1, cr13, {5}
    46c4:	43a68318 			; <UNDEFINED> instruction: 0x43a68318
    46c8:	00ff3e01 	rscseq	r3, pc, r1, lsl #28
    46cc:	00fffce7 	rscseq	pc, pc, r7, ror #25
    46d0:	39cfebfd 	stmibcc	pc, {r0, r2, r3, r4, r5, r6, r7, r8, r9, fp, sp, lr, pc}^	; <UNPREDICTABLE>
    46d4:	13d400ff 	bicsne	r0, r4, #255	; 0xff
    46d8:	a10ed42f 	tstge	lr, pc, lsr #8
    46dc:	a3a3f5e9 			; <UNDEFINED> instruction: 0xa3a3f5e9
    46e0:	73f1e36d 	mvnsvc	lr, #-1275068415	; 0xb4000001
    46e4:	369e5ae4 	ldrcc	r5, [lr], r4, ror #21
    46e8:	25252b8e 	strcs	r2, [r5, #-2958]!	; 0xb8e
    46ec:	dc00ff78 	stcle	15, cr15, [r0], {120}	; 0x78
    46f0:	1ccb512c 	stfnee	f5, [fp], {44}	; 0x2c
    46f4:	62614782 	rsbvs	r4, r1, #34078720	; 0x2080000
    46f8:	2e1a4964 	cdpcs	9, 1, cr4, cr10, cr4, {3}
    46fc:	9062d87d 	rsbls	sp, r2, sp, ror r8
    4700:	c6f06e34 			; <UNDEFINED> instruction: 0xc6f06e34
    4704:	bcd1f042 	ldcllt	0, cr15, [r1], {66}	; 0x42
    4708:	3b6bfbec 	blcc	1b036c0 <ZAG+0x1af58a8>
    470c:	e268cf6a 	rsb	ip, r8, #424	; 0x1a8
    4710:	2bb92a82 	blcs	fee4f120 <end+0xbed4f120>
    4714:	f2a6f12e 	vaddw.s32	<illegal reg q7.5>, q3, d30
    4718:	355792c8 	ldrbcc	r9, [r7, #-712]	; 0x2c8
    471c:	42052a08 	andmi	r2, r5, #8, 20	; 0x8000
    4720:	41024a61 	tstmi	r2, r1, ror #20
    4724:	a7772339 			; <UNDEFINED> instruction: 0xa7772339
    4728:	17ce711b 	bfine	r7, fp, #2, #13
    472c:	48ee6ee5 	stmiami	lr!, {r0, r2, r5, r6, r7, r9, sl, fp, sp, lr}^
    4730:	0ecaa444 	cdpeq	4, 12, cr10, cr10, cr4, {2}
    4734:	332b0431 	teqcc	fp, #822083584	; 0x31000000
    4738:	09001941 	stmdbeq	r0, {r0, r6, r8, fp, ip}
    473c:	4231f965 	eorsmi	pc, r1, #1654784	; 0x194000
    4740:	05714def 	ldrbeq	r4, [r1, #-3567]!	; 0xdef
    4744:	1fd39143 	svcne	0x00d39143
    4748:	274ff54c 	strbcs	pc, [pc, -ip, asr #10]	; <UNPREDICTABLE>
    474c:	b630571c 			; <UNDEFINED> instruction: 0xb630571c
    4750:	b7f335f2 			; <UNDEFINED> instruction: 0xb7f335f2
    4754:	2b89c7a1 	blcs	fe2765e0 <end+0xbe1765e0>
    4758:	9ac6056a 	bls	ff185d08 <end+0xbf085d08>
    475c:	5d1c9b91 	vldrpl	d9, [ip, #-580]	; 0xfffffdbc
    4760:	b469567b 	strbtlt	r5, [r9], #-1659	; 0x67b
    4764:	d3c1c0bd 	bicle	ip, r1, #189	; 0xbd
    4768:	0bc5c9ec 	bleq	ff176f20 <end+0xbf076f20>
    476c:	d3fea2f7 	mvnsle	sl, #1879048207	; 0x7000000f
    4770:	aed0e3c2 	cdpge	3, 13, cr14, cr0, cr2, {6}
    4774:	3b2eb00f 	blcc	bb07b8 <ZAG+0xba29a0>
    4778:	b254e4a6 	subslt	lr, r4, #-1509949440	; 0xa6000000
    477c:	75904e43 	ldrvc	r4, [r0, #3651]	; 0xe43
    4780:	5566b90e 	strbpl	fp, [r6, #-2318]!	; 0x90e
    4784:	e148fd58 	cmp	r8, r8, asr sp
    4788:	4c262071 	stcmi	0, cr2, [r6], #-452	; 0xfffffe3c
    478c:	54c51903 	strbpl	r1, [r5], #2307	; 0x903
    4790:	98566386 	ldmdals	r6, {r1, r2, r7, r8, r9, sp, lr}^
    4794:	7e6eb769 	cdpvc	7, 6, cr11, cr14, cr9, {3}
    4798:	8d775d9a 	ldclhi	13, cr5, [r7, #-616]!	; 0xfffffd98
    479c:	d3c7cdcf 	bicle	ip, r7, #13248	; 0x33c0
    47a0:	a0a3a8f8 	strdge	sl, [r3], r8	; <UNPREDICTABLE>
    47a4:	15c3a5a8 	strbne	sl, [r3, #1448]	; 0x5a8
    47a8:	4de56147 	stfmie	f6, [r5, #284]!	; 0x11c
    47ac:	64422ba0 	strbvs	r2, [r2], #-2976	; 0xba0
    47b0:	159c49e1 	ldrne	r4, [ip, #2529]	; 0x9e1
    47b4:	b4fc3358 	ldrbtlt	r3, [ip], #856	; 0x358
    47b8:	0eeb0ac3 	vfmseq.f32	s1, s23, s6
    47bc:	69fa65b5 	ldmibvs	sl!, {r0, r2, r4, r5, r7, r8, sl, sp, lr}^
    47c0:	b7d660a5 	ldrblt	r6, [r6, r5, lsr #1]
    47c4:	d69c0c2e 	ldrle	r0, [ip], lr, lsr #24
    47c8:	d3cda716 	bicle	sl, sp, #5767168	; 0x580000
    47cc:	54b04eb3 	ldrtpl	r4, [r0], #3763	; 0xeb3
    47d0:	86ba9266 	ldrthi	r9, [sl], r6, ror #4
    47d4:	f9a165f8 			; <UNDEFINED> instruction: 0xf9a165f8
    47d8:	791dc811 	ldmdbvc	sp, {r0, r4, fp, lr, pc}
    47dc:	a12ce498 			; <UNDEFINED> instruction: 0xa12ce498
    47e0:	e580db44 	str	sp, [r0, #2884]	; 0xb44
    47e4:	3fe56276 	svccc	0x00e56276
    47e8:	9dda5e4d 	ldclls	14, cr5, [sl, #308]	; 0x134
    47ec:	bf298204 	svclt	0x00298204
    47f0:	6c9a03c8 	ldcvs	3, cr0, [sl], {200}	; 0xc8
    47f4:	1b95acae 	blne	fe56fab4 <end+0xbe46fab4>
    47f8:	196c0155 	stmdbne	ip!, {r0, r2, r4, r6, r8}^
    47fc:	bc4d7719 	mcrrlt	7, 1, r7, sp, cr9
    4800:	e0c4382a 	sbc	r3, r4, sl, lsr #16
    4804:	6a3aacaa 	bvs	eafab4 <ZAG+0xea1c9c>
    4808:	aa497fe5 	bge	12647a4 <ZAG+0x125698c>
    480c:	2051db5b 	subscs	sp, r1, fp, asr fp
    4810:	03e64ce3 	mvneq	r4, #58112	; 0xe300
    4814:	41956e9a 			; <UNDEFINED> instruction: 0x41956e9a
    4818:	883fac4a 	ldmdahi	pc!, {r1, r3, r6, sl, fp, sp, pc}	; <UNPREDICTABLE>
    481c:	303a8219 	eorscc	r8, sl, r9, lsl r2
    4820:	2bbc4d83 	blcs	fef17e34 <end+0xbee17e34>
    4824:	4c61953a 	cfstr64mi	mvdx9, [r1], #-232	; 0xffffff18
    4828:	1953a753 	ldmdbne	r3, {r0, r1, r4, r6, r8, r9, sl, sp, pc}^
    482c:	e3feaa73 	mvns	sl, #471040	; 0x73000
    4830:	d4421d73 	strble	r1, [r2], #-3443	; 0xd73
    4834:	2d8767f9 	stccs	7, cr6, [r7, #996]	; 0x3e4
    4838:	d4661a92 	strbtle	r1, [r6], #-2706	; 0xa92
    483c:	8dc36b16 	vstrhi	d22, [r3, #88]	; 0x58
    4840:	c53b04bb 	ldrgt	r0, [fp, #-1211]!	; 0x4bb
    4844:	87e0f21b 			; <UNDEFINED> instruction: 0x87e0f21b
    4848:	c871c3b5 	ldmdagt	r1!, {r0, r2, r4, r5, r7, r8, r9, lr, pc}^
    484c:	4a92db44 	bmi	fe4bb564 <end+0xbe3bb564>
    4850:	7b99a0ec 	blvc	fe66cc08 <end+0xbe56cc08>
    4854:	0917bb60 	ldmdbeq	r7, {r5, r6, r8, r9, fp, ip, sp, pc}
    4858:	6de2d1c0 	stfvsp	f5, [r2, #768]!	; 0x300
    485c:	f20b9e12 			; <UNDEFINED> instruction: 0xf20b9e12
    4860:	76c22c88 	strbvc	r2, [r2], r8, lsl #25
    4864:	92162462 	andsls	r2, r6, #1644167168	; 0x62000000
    4868:	03d44834 	bicseq	r4, r4, #52, 16	; 0x340000
    486c:	10b98024 	adcsne	r8, r9, r4, lsr #32
    4870:	816fbb1a 	cmnhi	pc, sl, lsl fp	; <UNPREDICTABLE>
    4874:	29ade0b3 	stmibcs	sp!, {r0, r1, r4, r5, r7, sp, lr, pc}
    4878:	525364d2 	subspl	r6, r3, #-771751936	; 0xd2000000
    487c:	fd147209 	ldc2	2, cr7, [r4, #-36]	; 0xffffffdc
    4880:	0982b278 	stmibeq	r2, {r3, r4, r5, r6, r9, ip, sp, pc}
    4884:	b90fb46c 	stmdblt	pc, {r2, r3, r5, r6, sl, ip, sp, pc}	; <UNPREDICTABLE>
    4888:	90d02c51 	sbcsls	r2, r0, r1, asr ip
    488c:	6eef9d4a 	cdpvs	13, 14, cr9, cr15, cr10, {2}
    4890:	69c750bd 	stmibvs	r7, {r0, r2, r3, r4, r5, r7, ip, lr}^
    4894:	3d2d183a 	stccc	8, cr1, [sp, #-232]!	; 0xffffff18
    4898:	d458c08e 	ldrble	ip, [r8], #-142	; 0x8e
    489c:	a8218b3a 	stmdage	r1!, {r1, r3, r4, r5, r8, r9, fp, pc}
    48a0:	50cd9a63 	sbcpl	r9, sp, r3, ror #20
    48a4:	613c1a89 	teqvs	ip, r9, lsl #21
    48a8:	ff3011a2 			; <UNDEFINED> instruction: 0xff3011a2
    48ac:	20daf900 	sbcscs	pc, sl, r0, lsl #18
    48b0:	b2041996 	andlt	r1, r4, #2457600	; 0x258000
    48b4:	4c521c45 	mrrcmi	12, 4, r1, r2, cr5
    48b8:	9c7271b2 	ldflse	f7, [r2], #-712	; 0xfffffd38
    48bc:	9cdc11a3 	ldflse	f1, [ip], {163}	; 0xa3
    48c0:	abd65b45 	blge	ff59b5dc <end+0xbf49b5dc>
    48c4:	a7b05277 			; <UNDEFINED> instruction: 0xa7b05277
    48c8:	0e90294d 	cdpeq	9, 9, cr2, cr0, cr13, {2}
    48cc:	bf6c98c9 	svclt	0x006c98c9
    48d0:	0cf186f4 	ldcleq	6, cr8, [r1], #976	; 0x3d0
    48d4:	419d5955 	orrsmi	r5, sp, r5, asr r9
    48d8:	84615059 	strbthi	r5, [r1], #-89	; 0x59
    48dc:	8e6e3ff7 	mcrhi	15, 3, r3, cr14, cr7, {7}
    48e0:	25df8b4e 	ldrbcs	r8, [pc, #2894]	; 5436 <jpegdata+0x3086>
    48e4:	9c9452c9 	lfmls	f5, 4, [r4], {201}	; 0xc9
    48e8:	00e8c415 	rsceq	ip, r8, r5, lsl r4
    48ec:	0bacccec 	bleq	feb37ca4 <end+0xbea37ca4>
    48f0:	e5179042 	ldr	r9, [r7, #-66]	; 0x42
    48f4:	71550e84 	cmpvc	r5, r4, lsl #29
    48f8:	a86ea904 	stmdage	lr!, {r2, r8, fp, sp, pc}^
    48fc:	dab8b73c 	ble	fee325f4 <end+0xbed325f4>
    4900:	c4551c3a 	ldrbgt	r1, [r5], #-3130	; 0xc3a
    4904:	a9498b6a 	stmdbge	r9, {r1, r3, r5, r6, r8, r9, fp, pc}^
    4908:	9ad27072 	bls	ff4a0ad8 <end+0xbf3a0ad8>
    490c:	545033ee 	ldrbpl	r3, [r0], #-1006	; 0x3ee
    4910:	3bda98c0 	blcc	ff6aac18 <end+0xbf5aac18>
    4914:	6595d711 	ldrvs	sp, [r5, #1809]	; 0x711
    4918:	84695313 	strbthi	r5, [r9], #-787	; 0x313
    491c:	8c62e38a 	stclhi	3, cr14, [r2], #-552	; 0xfffffdd8
    4920:	493951e8 	ldmdbmi	r9!, {r3, r5, r6, r7, r8, ip, lr}
    4924:	61b2473c 			; <UNDEFINED> instruction: 0x61b2473c
    4928:	0ec5699b 	mcreq	9, 6, r6, cr5, cr11, {4}
    492c:	16c8abd8 			; <UNDEFINED> instruction: 0x16c8abd8
    4930:	1abf62af 	bne	fefdd3f4 <end+0xbeedd3f4>
    4934:	6ae80a96 	bvs	ffa07394 <end+0xbf907394>
    4938:	4660a94c 	strbtmi	sl, [r0], -ip, asr #18
    493c:	1fa9142e 	svcne	0x00a9142e
    4940:	80660870 	rsbhi	r0, r6, r0, ror r8
    4944:	930e338e 	movwls	r3, #58254	; 0xe38e
    4948:	6bedb628 	blvs	ffb721f0 <end+0xbfa721f0>
    494c:	f80f61be 			; <UNDEFINED> instruction: 0xf80f61be
    4950:	038d2f6d 	orreq	r2, sp, #436	; 0x1b4
    4954:	09e4e91c 	stmibeq	r4!, {r2, r3, r4, r8, fp, sp, lr, pc}^
    4958:	8ab44a2a 	bhi	fed17208 <end+0xbec17208>
    495c:	0a2487aa 	beq	92680c <ZAG+0x9189f4>
    4960:	b06c85b9 	strhtlt	r8, [ip], #-89	; 0xffffffa7
    4964:	37541555 			; <UNDEFINED> instruction: 0x37541555
    4968:	e92c32ca 	stmdb	ip!, {r1, r3, r6, r7, r9, ip, sp}
    496c:	abfbba8c 	blge	ffef33a4 <end+0xbfdf33a4>
    4970:	f8f27862 			; <UNDEFINED> instruction: 0xf8f27862
    4974:	ca8db63c 	bgt	fe37226c <end+0xbe27226c>
    4978:	d534a554 	ldrle	sl, [r4, #-1364]!	; 0x554
    497c:	1aecd9b2 	bne	ffb3b04c <end+0xbfa3b04c>
    4980:	3f330c41 	svccc	0x00330c41
    4984:	6a298ac8 	bvs	a674ac <ZAG+0xa59694>
    4988:	285392d5 	ldmdacs	r3, {r0, r2, r4, r6, r7, r9, ip, pc}^
    498c:	2313bf6f 	tstcs	r3, #444	; 0x1bc
    4990:	69ad1019 	stmibvs	sp!, {r0, r3, r4, ip}
    4994:	1c697110 	stfnee	f7, [r9], #-64	; 0xffffffc0
    4998:	a9e7d2fa 	stmibge	r7!, {r1, r3, r4, r5, r6, r7, r9, ip, lr, pc}^
    499c:	4abf9d71 	bmi	fefebf68 <end+0xbeeebf68>
    49a0:	2a0e6a95 	bcs	39f3fc <ZAG+0x3915e4>
    49a4:	8a47aad2 	bhi	11ef4f4 <ZAG+0x11e16dc>
    49a8:	2b5596b1 	blcs	156a474 <ZAG+0x155c65c>
    49ac:	a900d494 	stmdbge	r0, {r2, r4, r7, sl, ip, lr, pc}
    49b0:	a8f8945c 	ldmge	r8!, {r2, r3, r4, r6, sl, ip, pc}^
    49b4:	bc039353 	stclt	3, cr9, [r3], {83}	; 0x53
    49b8:	5f1a1700 	svcpl	0x001a1700
    49bc:	29f716a4 	ldmibcs	r7!, {r2, r5, r7, r9, sl, ip}^
    49c0:	b26a6c59 	rsblt	r6, sl, #22784	; 0x5900
    49c4:	7a94f153 	bvc	fe540f18 <end+0xbe440f18>
    49c8:	54649778 	strbtpl	r9, [r4], #-1912	; 0x778
    49cc:	954f3d38 	strbls	r3, [pc, #-3384]	; 3c9c <jpegdata+0x18ec>
    49d0:	edf655dd 	cfldr64	mvdx5, [r6, #884]!	; 0x374
    49d4:	60862a82 	addvs	r2, r6, r2, lsl #21
    49d8:	341ddfd0 	ldrcc	sp, [sp], #-4048	; 0xfd0
    49dc:	744b0714 	strbvc	r0, [fp], #-1812	; 0x714
    49e0:	f8cd6a9e 			; <UNDEFINED> instruction: 0xf8cd6a9e
    49e4:	6af0bc20 	bvs	ffc33a6c <end+0xbfb33a6c>
    49e8:	6929af4c 	stmdbvs	r9!, {r2, r3, r6, r8, r9, sl, fp, sp, pc}
    49ec:	4b4c87db 	blmi	1326960 <ZAG+0x1318b48>
    49f0:	85247905 	strhi	r7, [r4, #-2309]!	; 0x905
    49f4:	efa033d0 	svc	0x00a033d0
    49f8:	ea46224b 	b	118d32c <ZAG+0x117f514>
    49fc:	f2464bbc 	vpadd.i8	d20, d22, d28
    4a00:	ca63cc1d 	bgt	18f7a7c <ZAG+0x18e9c64>
    4a04:	eca20a31 	vstmia	r2!, {s0-s48}
    4a08:	6a4e8d2d 	bvs	13a7ec4 <ZAG+0x139a0ac>
    4a0c:	d4291687 	strtle	r1, [r9], #-1671	; 0x687
    4a10:	07ba4ea7 	ldreq	r4, [sl, r7, lsr #29]!
    4a14:	ac12c082 	ldcge	0, cr12, [r2], {130}	; 0x82
    4a18:	1c078185 	stfned	f0, [r7], {133}	; 0x85
    4a1c:	09321458 	ldmdbeq	r2!, {r3, r4, r6, sl, ip}
    4a20:	4457b251 	ldrbmi	fp, [r7], #-593	; 0x251
    4a24:	0f2bd065 	svceq	0x002bd065
    4a28:	c3528ed2 	cmpgt	r2, #3360	; 0xd20
    4a2c:	766f178f 	strbtvc	r1, [pc], -pc, lsl #15
    4a30:	9554c9d6 	ldrbls	ip, [r4, #-2518]	; 0x9d6
    4a34:	a48f41ad 	strge	r4, [pc], #429	; 4a3c <jpegdata+0x268c>
    4a38:	680ea6f3 	stmdavs	lr, {r0, r1, r4, r5, r6, r7, r9, sl, sp, pc}
    4a3c:	960fb5ae 	strls	fp, [pc], -lr, lsr #11
    4a40:	0020fc49 	eoreq	pc, r0, r9, asr #24
    4a44:	c8080e73 	stmdagt	r8, {r0, r1, r4, r5, r6, r9, sl, fp}
    4a48:	d3ad3abb 			; <UNDEFINED> instruction: 0xd3ad3abb
    4a4c:	d26b7a58 	rsble	r7, fp, #88, 20	; 0x58000
    4a50:	2ee1d1cb 	urdcsdm	f5, #3.0
    4a54:	2fe6c8d9 	svccs	0x00e6c8d9
    4a58:	593c7c55 	ldmdbpl	ip!, {r0, r2, r4, r6, sl, fp, ip, sp, lr}
    4a5c:	d904435d 	stmdble	r4, {r0, r2, r3, r4, r6, r8, r9, lr}
    4a60:	cd901923 	ldcgt	9, cr1, [r0, #140]	; 0x8c
    4a64:	18a23c22 	stmiane	r2!, {r1, r5, sl, fp, ip, sp}
    4a68:	31e43d4f 	mvncc	r3, pc, asr #26
    4a6c:	21721ac2 	cmncs	r2, r2, asr #21
    4a70:	3b7f5b89 	blcc	1fdb89c <ZAG+0x1fcda84>
    4a74:	35fd1cc9 	ldrbcc	r1, [sp, #3273]!	; 0xcc9
    4a78:	f158decb 			; <UNDEFINED> instruction: 0xf158decb
    4a7c:	de6e75f6 	mcrle	5, 3, r7, cr14, cr6, {7}
    4a80:	6c4ad292 	sfmvs	f5, 3, [sl], {146}	; 0x92
    4a84:	904af86a 	subls	pc, sl, sl, ror #16
    4a88:	64f8bfd0 	ldrbtvs	fp, [r8], #4048	; 0xfd0
    4a8c:	442581b7 	strtmi	r8, [r5], #-439	; 0x1b7
    4a90:	002d2b05 	eoreq	r2, sp, r5, lsl #22
    4a94:	2b2c50fa 	blcs	b18e84 <ZAG+0xb0b06c>
    4a98:	5cc9737d 	stclpl	3, cr7, [r9], {125}	; 0x7d
    4a9c:	b4082aa5 	strlt	r2, [r8], #-2725	; 0xaa5
    4aa0:	20c060c9 	sbccs	r6, r0, r9, asr #1
    4aa4:	48000320 	stmdami	r0, {r5, r8, r9}
    4aa8:	c808c4d9 	stmdagt	r8, {r0, r3, r4, r6, r7, sl, lr, pc}
    4aac:	6776b2e3 	ldrbvs	fp, [r6, -r3, ror #5]!
    4ab0:	b26cc515 	rsblt	ip, ip, #88080384	; 0x5400000
    4ab4:	d2e6cbdd 	rscle	ip, r6, #226304	; 0x37400
    4ab8:	63cbc8a7 	bicvs	ip, fp, #10944512	; 0xa70000
    4abc:	42f2e46a 	rscsmi	lr, r2, #1778384896	; 0x6a000000
    4ac0:	f671961b 			; <UNDEFINED> instruction: 0xf671961b
    4ac4:	723c12a4 	eorsvc	r1, ip, #164, 4	; 0x4000000a
    4ac8:	fdcb483a 	stc2l	8, cr4, [fp, #232]	; 0xe8
    4acc:	b91259b7 	ldmdblt	r2, {r0, r1, r2, r4, r5, r7, r8, fp, ip, lr}
    4ad0:	65c9c92c 	strbvs	ip, [r9, #2348]	; 0x92c
    4ad4:	a7d1b48f 	ldrbge	fp, [r1, pc, lsl #9]
    4ad8:	f6e16a24 			; <UNDEFINED> instruction: 0xf6e16a24
    4adc:	e4d46ee6 	ldrb	r6, [r4], #3814	; 0xee6
    4ae0:	95f2dc29 	ldrbls	sp, [r2, #3113]!	; 0xc29
    4ae4:	a82b2e6f 	stmdage	fp!, {r0, r1, r2, r3, r5, r6, r9, sl, fp, sp}
    4ae8:	0a7159af 	beq	1c5b1ac <ZAG+0x1c4d394>
    4aec:	dc071017 	stcle	0, cr1, [r7], {23}
    4af0:	414f5119 	cmpmi	pc, r9, lsl r1	; <UNPREDICTABLE>
    4af4:	0c498054 	mcrreq	0, 5, r8, r9, cr4
    4af8:	e9784826 	ldmdb	r8!, {r1, r2, r5, fp, lr}^
    4afc:	7bb59cb3 	blvc	fed6bdd0 <end+0xbec6bdd0>
    4b00:	a1b7147b 			; <UNDEFINED> instruction: 0xa1b7147b
    4b04:	cc54fc4c 	mrrcgt	12, 4, pc, r4, cr12	; <UNPREDICTABLE>
    4b08:	e8f74892 	ldm	r7!, {r1, r4, r7, fp, lr}^
    4b0c:	33d9e746 	bicscc	lr, r9, #18350080	; 0x1180000
    4b10:	d6b57eaf 	ldrtle	r7, [r5], pc, lsr #29
    4b14:	aeeb9146 	urdgeem	f1, f6
    4b18:	a001f437 	andge	pc, r1, r7, lsr r4	; <UNPREDICTABLE>
    4b1c:	ae9e507f 	mrcge	0, 4, r5, cr14, cr15, {3}
    4b20:	b96fa736 	stmdblt	pc!, {r1, r2, r4, r5, r8, r9, sl, sp, pc}^	; <UNPREDICTABLE>
    4b24:	621f9b91 	andsvs	r9, pc, #148480	; 0x24400
    4b28:	89161648 	ldmdbhi	r6, {r3, r6, r9, sl, ip}
    4b2c:	bc92c2ec 	lfmlt	f4, 1, [r2], {236}	; 0xec
    4b30:	7071bc51 	rsbsvc	fp, r1, r1, asr ip
    4b34:	941b198a 	ldrls	r1, [fp], #-2442	; 0x98a
    4b38:	8d62b047 	stclhi	0, cr11, [r2, #-284]!	; 0xfffffee4
    4b3c:	5758265e 			; <UNDEFINED> instruction: 0x5758265e
    4b40:	72f70bb7 	rscsvc	r0, r7, #187392	; 0x2dc00
    4b44:	2defdcf1 	stclcs	12, cr13, [pc, #964]!	; 4f10 <jpegdata+0x2b60>
    4b48:	206d2d68 	rsbcs	r2, sp, r8, ror #26
    4b4c:	09357951 	ldmdbeq	r5!, {r0, r4, r6, r8, fp, ip, sp, lr}
    4b50:	4405d1df 	strmi	sp, [r5], #-479	; 0x1df
    4b54:	8d64ce00 	stclhi	14, cr12, [r4, #-0]
    4b58:	02921a42 	addseq	r1, r2, #270336	; 0x42000
    4b5c:	3c9080be 	ldccc	0, cr8, [r0], {190}	; 0xbe
    4b60:	4a3b6b2d 	bmi	edf81c <ZAG+0xed1a04>
    4b64:	73e2e2c6 	mvnvc	lr, #1610612748	; 0x6000000c
    4b68:	eb0f1410 	bl	3c9bb0 <ZAG+0x3bbd98>
    4b6c:	530377a2 	movwpl	r7, #14242	; 0x37a2
    4b70:	fd6c20f7 	stc2l	0, cr2, [ip, #-988]!	; 0xfffffc24
    4b74:	f2d40efa 			; <UNDEFINED> instruction: 0xf2d40efa
    4b78:	5f5d4a69 	svcpl	0x005d4a69
    4b7c:	c713fdd6 			; <UNDEFINED> instruction: 0xc713fdd6
    4b80:	557271cd 	ldrbpl	r7, [r2, #-461]!	; 0x1cd
    4b84:	912d9366 	teqls	sp, r6, ror #6
    4b88:	2ea4dd9e 	mcrcs	13, 5, sp, cr4, cr14, {4}
    4b8c:	c0f3c61a 	rscsgt	ip, r3, sl, lsl r6
    4b90:	726ef3b1 	rsbvc	pc, lr, #-1006632958	; 0xc4000002
    4b94:	b2bb1a10 	adcslt	r1, fp, #16, 20	; 0x10000
    4b98:	88b59dc6 	ldmhi	r5!, {r1, r2, r6, r7, r8, sl, fp, ip, pc}
    4b9c:	951b2ff0 	ldrls	r2, [fp, #-4080]	; 0xff0
    4ba0:	792ff503 	stmdbvc	pc!, {r0, r1, r8, sl, ip, sp, lr, pc}	; <UNPREDICTABLE>
    4ba4:	29e6d24e 	stmibcs	r6!, {r1, r2, r3, r6, r9, ip, lr, pc}^
    4ba8:	412537f7 	strdmi	r3, [r5, -r7]!
    4bac:	a7b1d3aa 	ldrge	sp, [r1, sl, lsr #7]!
    4bb0:	9daadbf0 	stcls	11, cr13, [sl, #960]!	; 0x3c0
    4bb4:	35456a7c 	strbcc	r6, [r5, #-2684]	; 0xa7c
    4bb8:	8215ce6a 	andshi	ip, r5, #1696	; 0x6a0
    4bbc:	204725ab 	subcs	r2, r7, fp, lsr #11
    4bc0:	65e61b92 	strbvs	r1, [r6, #2962]!	; 0xb92
    4bc4:	624c4155 	subvs	r4, ip, #1073741845	; 0x40000015
    4bc8:	9c1f5eb4 	ldcls	14, cr5, [pc], {180}	; 0xb4
    4bcc:	69557aa7 	ldmdbvs	r5, {r0, r1, r2, r5, r7, r9, fp, ip, sp, lr}^
    4bd0:	4f507519 	svcmi	0x00507519
    4bd4:	867c12b8 			; <UNDEFINED> instruction: 0x867c12b8
    4bd8:	04735fce 	ldrbteq	r5, [r3], #-4046	; 0xfce
    4bdc:	f5a8ac4a 			; <UNDEFINED> instruction: 0xf5a8ac4a
    4be0:	a8ebd20b 	stmiage	fp!, {r0, r1, r3, r9, ip, lr, pc}^
    4be4:	69c045bd 	stmibvs	r0, {r0, r2, r3, r4, r5, r7, r8, sl, lr}^
    4be8:	3bf5956e 	blcc	ffd6a1a8 <end+0xbfc6a1a8>
    4bec:	5feca203 	svcpl	0x00eca203
    4bf0:	6a4afabe 	bvs	12c36f0 <ZAG+0x12b58d8>
    4bf4:	5ccb9f29 	stclpl	15, cr9, [fp], {41}	; 0x29
    4bf8:	289562ab 	ldmcs	r5, {r0, r1, r3, r5, r7, r9, sp, lr}
    4bfc:	186ab1a4 	stmdane	sl!, {r2, r5, r7, r8, ip, sp, pc}^
    4c00:	076a7b62 	strbeq	r7, [sl, -r2, ror #22]!
    4c04:	b1189129 	tstlt	r8, r9, lsr #2
    4c08:	fd65d158 	stc2l	1, cr13, [r5, #-352]!	; 0xfffffea0
    4c0c:	86443492 			; <UNDEFINED> instruction: 0x86443492
    4c10:	cb823532 	blgt	fe0920e0 <end+0xbdf920e0>
    4c14:	befbee9f 	mrclt	14, 7, lr, cr11, cr15, {4}
    4c18:	ad9a7b4d 	vldrge	d7, [sl, #308]	; 0x134
    4c1c:	94cd467a 	strbls	r4, [sp], #1658	; 0x67a
    4c20:	fc635bb2 	stc2l	11, cr5, [r3], #-712	; 0xfffffd38
    4c24:	be4d8f50 	mcrlt	15, 2, r8, cr13, cr0, {2}
    4c28:	03530b20 	cmpeq	r3, #32, 22	; 0x8000
    4c2c:	08f52a23 	ldmeq	r5!, {r0, r1, r5, r9, fp, sp}^
    4c30:	64bd15ac 	ldrtvs	r1, [sp], #1452	; 0x5ac
    4c34:	178faa14 	usada8ne	pc, r4, sl, sl	; <UNPREDICTABLE>
    4c38:	446fc1bd 	strbtmi	ip, [pc], #-445	; 4c40 <jpegdata+0x2890>
    4c3c:	454ccdb5 	strbmi	ip, [ip, #-3509]	; 0xdb5
    4c40:	608578c2 	addvs	r7, r5, r2, asr #17
    4c44:	91c824de 	ldrdls	r2, [r8, #78]	; 0x4e
    4c48:	e491f4e3 	ldr	pc, [r1], #1251	; 0x4e3
    4c4c:	e2b26059 	adcs	r6, r2, #89	; 0x59
    4c50:	20a0120c 	adccs	r1, r0, ip, lsl #4
    4c54:	16f5897d 			; <UNDEFINED> instruction: 0x16f5897d
    4c58:	4b4d6bda 	blmi	135fbc8 <ZAG+0x1351db0>
    4c5c:	f1c35257 			; <UNDEFINED> instruction: 0xf1c35257
    4c60:	22b1be34 	adcscs	fp, r1, #52, 28	; 0x340
    4c64:	0c4bc898 	mcrreq	8, 9, ip, fp, cr8
    4c68:	c07c5ac9 	rsbsgt	r5, ip, r9, asr #21
    4c6c:	5d12f61b 	ldcpl	6, cr15, [r2, #-108]	; 0xffffff94
    4c70:	d12c69fb 	strdle	r6, [ip, -fp]!
    4c74:	f09433c9 			; <UNDEFINED> instruction: 0xf09433c9
    4c78:	71c28858 	bicvc	r8, r2, r8, asr r8
    4c7c:	fe98a9fa 	mrc2	9, 4, sl, cr8, cr10, {7}
    4c80:	56af54a4 	strtpl	r5, [pc], r4, lsr #9
    4c84:	6231bfad 	eorsvs	fp, r1, #692	; 0x2b4
    4c88:	cc96f7c3 	ldcgt	7, cr15, [r6], {195}	; 0xc3
    4c8c:	90c4c02a 	sbcls	ip, r4, sl, lsr #32
    4c90:	50aa09b2 	strhtpl	r0, [sl], r2
    4c94:	555420c9 	ldrbpl	r2, [r4, #-201]	; 0xc9
    4c98:	69095827 	stmdbvs	r9, {r0, r1, r2, r5, fp, ip, lr}
    4c9c:	ed52fa18 	vldr	s31, [r2, #-96]	; 0xffffffa0
    4ca0:	bbb952ce 	bllt	fee597e0 <end+0xbed597e0>
    4ca4:	b5f4957a 	ldrblt	r9, [r4, #1402]!	; 0x57a
    4ca8:	d4e0ce0c 	strbtle	ip, [r0], #3596	; 0xe0c
    4cac:	86f2c7d4 	usathi	ip, #18, r4, asr #15
    4cb0:	e63e926d 	ldrt	r9, [lr], -sp, ror #4
    4cb4:	e9400000 	stmdb	r0, {}^	; <UNPREDICTABLE>
    4cb8:	13fdd3c7 	mvnsne	sp, #469762051	; 0x1c000003
    4cbc:	1ad4c607 	bne	ff5364e0 <end+0xbf4364e0>
    4cc0:	9a9b2797 	bls	fe6ceb24 <end+0xbe5ceb24>
    4cc4:	45a94ddf 	strmi	r4, [r9, #3551]!	; 0xddf
    4cc8:	8233be91 	eorshi	fp, r3, #2320	; 0x910
    4ccc:	4e5a16cc 	cdpmi	6, 5, cr1, cr10, cr12, {6}
    4cd0:	ed1f86dd 	ldc	6, cr8, [pc, #-884]	; 4964 <jpegdata+0x25b4>
    4cd4:	60c21dfb 	strdvs	r1, [r2], #219	; 0xdb
    4cd8:	2a768a54 	bcs	1da7630 <ZAG+0x1d99818>
    4cdc:	0a0fb0db 	beq	3f1050 <ZAG+0x3e3238>
    4ce0:	ad323ba9 	fldmdbxge	r2!, {d3-d86}	;@ Deprecated
    4ce4:	00ffb80b 	rscseq	fp, pc, fp, lsl #16
    4ce8:	d178ee58 	cmnle	r8, r8, asr lr
    4cec:	a6c16769 	strbge	r6, [r1], r9, ror #14
    4cf0:	2ff0b577 	svccs	0x00f0b577
    4cf4:	6925b04a 	stmdbvs	r5!, {r1, r3, r6, ip, sp, pc}
    4cf8:	a630801a 			; <UNDEFINED> instruction: 0xa630801a
    4cfc:	b4441a1c 	strblt	r1, [r4], #-2588	; 0xa1c
    4d00:	28241bb8 	stmdacs	r4!, {r3, r4, r5, r7, r8, r9, fp, ip}
    4d04:	1518c110 	ldrne	ip, [r8, #-272]	; 0x110
    4d08:	944f91ea 	strbls	r9, [pc], #-490	; 4d10 <jpegdata+0x2960>
    4d0c:	a6d65034 			; <UNDEFINED> instruction: 0xa6d65034
    4d10:	62f352f9 	rscsvs	r5, r3, #-1879048177	; 0x9000000f
    4d14:	fa8d8658 	blx	fe36667c <end+0xbe26667c>
    4d18:	00d49e52 	sbcseq	r9, r4, r2, asr lr
    4d1c:	0a900cc6 	beq	fe40803c <end+0xbe30803c>
    4d20:	5155b0af 	cmppl	r5, pc, lsr #1
    4d24:	cb56ab7a 	blgt	15afb14 <ZAG+0x15a1cfc>
    4d28:	5216b5a6 	andspl	fp, r6, #696254464	; 0x29800000
    4d2c:	c9987279 	ldmibgt	r8, {r0, r3, r4, r5, r6, r9, ip, sp, lr}
    4d30:	a52a3ff2 	strge	r3, [sl, #-4082]!	; 0xff2
    4d34:	26f83349 	ldrbtcs	r3, [r8], r9, asr #6
    4d38:	4e116fb1 	mrcmi	15, 0, r6, cr1, cr1, {5}
    4d3c:	9a3d121b 	bls	f495b0 <ZAG+0xf3b798>
    4d40:	24d85db5 	ldrbcs	r5, [r8], #3509	; 0xdb5
    4d44:	93119352 	tstls	r1, #1207959553	; 0x48000001
    4d48:	8c91858c 	cfldr32hi	mvfx8, [r1], {140}	; 0x8c
    4d4c:	caef6069 	bgt	ffbdcef8 <end+0xbfadcef8>
    4d50:	f1a1dd21 			; <UNDEFINED> instruction: 0xf1a1dd21
    4d54:	f82eda9d 			; <UNDEFINED> instruction: 0xf82eda9d
    4d58:	f9897cba 			; <UNDEFINED> instruction: 0xf9897cba
    4d5c:	541dc405 	ldrpl	ip, [sp], #-1029	; 0x405
    4d60:	98c15f05 	stmials	r1, {r0, r2, r8, r9, sl, fp, ip, lr}^
    4d64:	168aa805 	strne	sl, [sl], r5, lsl #16
    4d68:	08f6169b 	ldmeq	r6!, {r0, r1, r3, r4, r7, r9, sl, ip}^
    4d6c:	4262000a 	rsbmi	r0, r2, #10
    4d70:	5a862aab 	bpl	fe18f824 <end+0xbe08f824>
    4d74:	5728796e 	strpl	r7, [r8, -lr, ror #18]!
    4d78:	5794b58a 	ldrpl	fp, [r4, sl, lsl #11]
    4d7c:	2243466c 	subcs	r4, r3, #108, 12	; 0x6c00000
    4d80:	aae40ba1 	bge	ff907c0c <end+0xbf807c0c>
    4d84:	c51bc5c3 	ldrgt	ip, [fp, #-1475]	; 0x5c3
    4d88:	e2c49887 	sbc	r9, r4, #8847360	; 0x870000
    4d8c:	7c94615f 	ldfvcs	f6, [r4], {95}	; 0x5f
    4d90:	d7129d85 	ldrle	r9, [r2, -r5, lsl #27]
    4d94:	e950af1a 	ldmdb	r0, {r1, r3, r4, r8, r9, sl, fp, sp, pc}^
    4d98:	b89cb579 	ldmlt	ip, {r0, r3, r4, r5, r6, r8, sl, ip, sp, pc}
    4d9c:	c9a9141b 	stmibgt	r9!, {r0, r1, r3, r4, sl, ip}
    4da0:	98b3c660 	ldmls	r3!, {r5, r6, r9, sl, lr, pc}
    4da4:	28936ae7 	ldmcs	r3, {r0, r1, r2, r5, r6, r7, r9, fp, sp, lr}
    4da8:	95d9388e 	ldrbls	r3, [r9, #2190]	; 0x88e
    4dac:	650af198 	strvs	pc, [sl, #-408]	; 0x198
    4db0:	0052000c 	subseq	r0, r2, ip
    4db4:	b9ddb161 	ldmiblt	sp, {r0, r5, r6, r8, ip, sp, pc}^
    4db8:	fbe65816 	blx	ff99ae1a <end+0xbf89ae1a>
    4dbc:	8b5ddcf0 	blhi	177c184 <ZAG+0x176e36c>
    4dc0:	f4617a15 	vld1.8	{d23-d24}, [r1 :64], r5
    4dc4:	4e4b644a 	cdpmi	4, 4, cr6, cr11, cr10, {2}
    4dc8:	6b4b7c22 	blvs	12e3e58 <ZAG+0x12d6040>
    4dcc:	04853040 	streq	r3, [r5], #64	; 0x40
    4dd0:	6533dc09 	ldrvs	sp, [r3, #-3081]!	; 0xc09
    4dd4:	bf9db586 	svclt	0x009db586
    4dd8:	2db5707f 	ldccs	0, cr7, [r5, #508]!	; 0x1fc
    4ddc:	5dc15479 	cfstrdpl	mvd5, [r1, #484]	; 0x1e4
    4de0:	a07e05c1 	rsbsge	r0, lr, r1, asr #11
    4de4:	17922f54 			; <UNDEFINED> instruction: 0x17922f54
    4de8:	6548160c 	strbvs	r1, [r8, #-1548]	; 0x60c
    4dec:	0d4bfad0 	vstreq	s31, [fp, #-832]	; 0xfffffcc0
    4df0:	6bb8c492 	blvs	fee36040 <end+0xbed36040>
    4df4:	191e57f5 	ldmdbne	lr, {r0, r2, r4, r5, r6, r7, r8, r9, sl, ip, lr}
    4df8:	ecad689e 	stc	8, cr6, [sp], #632	; 0x278
    4dfc:	46684fe1 	strbtmi	r4, [r8], -r1, ror #31
    4e00:	7ddb4684 	ldclvc	6, cr4, [fp, #528]	; 0x210
    4e04:	71436e80 	smlalbbvc	r6, r3, r0, lr
    4e08:	fe1b37fe 	mrc2	7, 0, r3, cr11, cr14, {7}
    4e0c:	1203c87f 	andne	ip, r3, #8323072	; 0x7f0000
    4e10:	9624f473 			; <UNDEFINED> instruction: 0x9624f473
    4e14:	0dd4b80d 	ldcleq	8, cr11, [r4, #52]	; 0x34
    4e18:	4722777e 			; <UNDEFINED> instruction: 0x4722777e
    4e1c:	e8bf4ff9 	ldm	pc!, {r0, r3, r4, r5, r6, r7, r8, r9, sl, fp, lr}	; <UNPREDICTABLE>
    4e20:	7e5d3e07 	cdpvc	14, 5, cr3, cr13, cr7, {0}
    4e24:	5605f389 	strpl	pc, [r5], -r9, lsl #7
    4e28:	3e5ab59d 	mrccc	5, 2, fp, cr10, cr13, {4}
    4e2c:	aa458625 	bge	11666c8 <ZAG+0x11588b0>
    4e30:	4965d60c 	stmdbmi	r5!, {r2, r3, r9, sl, ip, lr, pc}^
    4e34:	012b184c 	teqeq	fp, ip, asr #16
    4e38:	63c5e220 	bicvs	lr, r5, #32, 4
    4e3c:	77860410 	usada8vc	r6, r0, r4, r0
    4e40:	369d3dae 	ldrcc	r3, [sp], lr, lsr #27
    4e44:	4b27eb8f 	blmi	9ffc88 <ZAG+0x9f1e70>
    4e48:	6ebcb933 	mrcvs	9, 5, fp, cr12, cr3, {1}
    4e4c:	d972254f 	ldmdble	r2!, {r0, r1, r2, r3, r6, r8, sl, sp}^
    4e50:	23577a6b 	cmpcs	r7, #438272	; 0x6b000
    4e54:	27cc8805 	strbcs	r8, [ip, r5, lsl #16]
    4e58:	4db3eb16 	ldcmi	11, cr14, [r3, #88]!	; 0x58
    4e5c:	47965b04 	ldrmi	r5, [r6, r4, lsl #22]
    4e60:	acb2c804 	ldcge	8, cr12, [r2], #16
    4e64:	ae437083 	cdpge	0, 4, cr7, cr3, cr3, {4}
    4e68:	5fdc8dea 	svcpl	0x00dc8dea
    4e6c:	d7f0265b 	ubfxle	r2, fp, #12, #17
    4e70:	e8b17054 	ldm	r1!, {r2, r4, r6, ip, sp, lr}
    4e74:	5a9f00ff 	bpl	fe7c5278 <end+0xbe6c5278>
    4e78:	97423b54 	smlsldls	r3, r2, r4, fp
    4e7c:	9536f70e 	ldrls	pc, [r6, #-1806]!	; 0x70e
    4e80:	ca871a6b 	bgt	fe1cb834 <end+0xbe0cb834>
    4e84:	2c8c519e 	stfcss	f5, [ip], {158}	; 0x9e
    4e88:	042c8199 	strteq	r8, [ip], #-409	; 0x199
    4e8c:	fef7fd9d 	mrc2	13, 7, pc, cr7, cr13, {4}
    4e90:	e9cf9772 	stmib	pc, {r1, r4, r5, r6, r8, r9, sl, ip, pc}^	; <UNPREDICTABLE>
    4e94:	8c6ac076 	stclhi	0, cr12, [sl], #-472	; 0xfffffe28
    4e98:	45bb2ece 	ldrmi	r2, [fp, #3790]!	; 0xece
    4e9c:	ec773a72 	ldcl	10, cr3, [r7], #-456	; 0xfffffe38
    4ea0:	6ffc9253 	svcvs	0x00fc9253
    4ea4:	9024451a 	eorls	r4, r4, sl, lsl r5
    4ea8:	6eb71dc6 	cdpvs	13, 11, cr1, cr7, cr6, {6}
    4eac:	31844b5c 	orrcc	r4, r4, ip, asr fp
    4eb0:	75661883 	strbvc	r1, [r6, #-2179]!	; 0x883
    4eb4:	97235466 	strls	r5, [r3, -r6, ror #8]!
    4eb8:	dc68458f 	cfstr64le	mvdx4, [r8], #-572	; 0xfffffdc4
    4ebc:	9e26ab52 	mcrls	11, 1, sl, cr6, cr2, {2}
    4ec0:	b18fc1cc 	orrlt	ip, pc, ip, asr #3
    4ec4:	ece7bf8f 	stcl	15, cr11, [r7], #572	; 0x23c
    4ec8:	62ec7f27 	rscvs	r7, ip, #39, 30	; 0x9c
    4ecc:	5c70cc4d 	ldclpl	12, cr12, [r0], #-308	; 0xfffffecc
    4ed0:	46eb188f 	strbtmi	r1, [fp], pc, lsl #17
    4ed4:	8550b1fd 	ldrbhi	fp, [r0, #-509]	; 0x1fd
    4ed8:	e97464a9 	ldmdb	r4!, {r0, r3, r5, r7, sl, sp, lr}^
    4edc:	0b7bd299 	bleq	1ef9948 <ZAG+0x1eebb30>
    4ee0:	4ae2b324 	bmi	ff8b1b78 <end+0xbf7b1b78>
    4ee4:	9d2592cc 	sfmls	f1, 1, [r5, #-816]!	; 0xfffffcd0
    4ee8:	2e747743 	cdpcs	7, 7, cr7, cr4, cr3, {2}
    4eec:	fc6bc98a 	stc2l	9, cr12, [fp], #-552	; 0xfffffdd8
    4ef0:	55cc98b4 	strbpl	r9, [ip, #2228]	; 0x8b4
    4ef4:	d9d86d19 	ldmible	r8, {r0, r3, r4, r8, sl, fp, sp, lr}^
    4ef8:	8c5b9d01 	mrrchi	13, 0, r9, fp, cr1
    4efc:	22313935 	eorscs	r3, r1, #868352	; 0xd4000
    4f00:	b2138f49 	andslt	r8, r3, #292	; 0x124
    4f04:	1e404995 	mcrne	9, 2, r4, cr0, cr5, {4}
    4f08:	e4c62309 	strb	r2, [r6], #777	; 0x309
    4f0c:	56aa3971 			; <UNDEFINED> instruction: 0x56aa3971
    4f10:	ffce7e4a 			; <UNDEFINED> instruction: 0xffce7e4a
    4f14:	857e1f00 	ldrbhi	r1, [lr, #-3840]!	; 0xf00
    4f18:	e745fcf1 			; <UNDEFINED> instruction: 0xe745fcf1
    4f1c:	260d1f23 	strcs	r1, [sp], -r3, lsr #30
    4f20:	db10c72a 	blle	436bd0 <ZAG+0x428db8>
    4f24:	65820808 	strvs	r0, [r2, #2056]	; 0x808
    4f28:	d8298da0 	stmdale	r9!, {r5, r7, r8, sl, fp, pc}
    4f2c:	e83d7606 	ldmda	sp!, {r1, r2, r9, sl, ip, sp, lr}
    4f30:	6b7f7a1a 	blvs	1fe37a0 <ZAG+0x1fd5988>
    4f34:	2ad5621a 	bcs	ff55d7a4 <end+0xbf45d7a4>
    4f38:	67cb25b5 			; <UNDEFINED> instruction: 0x67cb25b5
    4f3c:	31af8224 			; <UNDEFINED> instruction: 0x31af8224
    4f40:	e4a06908 	strt	r6, [r0], #2312	; 0x908
    4f44:	43e58e81 	mvnmi	r8, #2064	; 0x810
    4f48:	bee37776 	mcrlt	7, 7, r7, cr3, cr6, {3}
    4f4c:	02fb2ee4 	rscseq	r2, fp, #228, 28	; 0xe40
    4f50:	980540cc 	stmdals	r5, {r2, r3, r6, r7, lr}
    4f54:	c1f14291 			; <UNDEFINED> instruction: 0xc1f14291
    4f58:	ffef1f98 			; <UNDEFINED> instruction: 0xffef1f98
    4f5c:	a655bf00 	ldrbge	fp, [r5], -r0, lsl #30
    4f60:	4517cbec 	ldrmi	ip, [r7, #-3052]	; 0xbec
    4f64:	851cd5a6 	ldrhi	sp, [ip, #-1446]	; 0x5a6
    4f68:	7eeada98 	mcrvc	10, 7, sp, cr10, cr8, {4}
    4f6c:	eec48cd3 	mcr	12, 6, r8, cr4, cr3, {6}
    4f70:	1b49023d 	blne	124586c <ZAG+0x1237a54>
    4f74:	2ffa4126 	svccs	0x00fa4126
    4f78:	24119f88 	ldrcs	r9, [r1], #-3976	; 0xf88
    4f7c:	34ed6e98 	strbtcc	r6, [sp], #3736	; 0xe98
    4f80:	c8ade28a 	stmiagt	sp!, {r1, r3, r7, r9, sp, lr, pc}
    4f84:	65e357e6 	strbvs	r5, [r3, #2022]!	; 0x7e6
    4f88:	c8a64fa7 	stmiagt	r6!, {r0, r1, r2, r5, r7, r8, r9, sl, fp, lr}
    4f8c:	5bfc46dc 	blpl	fff16b04 <end+0xbfe16b04>
    4f90:	4221e190 	eormi	lr, r1, #144, 2	; 0x24
    4f94:	fb08cc8c 	blx	2381ce <ZAG+0x22a3b6>
    4f98:	568e94ab 	strpl	r9, [lr], fp, lsr #9
    4f9c:	8b32b9e5 	blhi	cb3738 <ZAG+0xca5920>
    4fa0:	6be85d91 	blvs	ffa1c5ec <end+0xbf91c5ec>
    4fa4:	820c6547 	andhi	r6, ip, #297795584	; 0x11c00000
    4fa8:	64fac861 	ldrbtvs	ip, [sl], #2145	; 0x861
    4fac:	957c51e1 	ldrbls	r5, [ip, #-481]!	; 0x1e1
    4fb0:	766ce894 			; <UNDEFINED> instruction: 0x766ce894
    4fb4:	33e399b5 	mvncc	r9, #2965504	; 0x2d4000
    4fb8:	0043e2a3 	subeq	lr, r3, r3, lsr #5
    4fbc:	1e89bcd3 	mcrne	12, 4, fp, cr9, cr3, {6}
    4fc0:	54a2362c 	strtpl	r3, [r2], #1580	; 0x62c
    4fc4:	7a85601f 	bvc	fe15d048 <end+0xbe05d048>
    4fc8:	90b24a6c 	adcsls	r4, r2, ip, ror #20
    4fcc:	a42e1e43 	strtge	r1, [lr], #-3651	; 0xe43
    4fd0:	9b8eacea 	blls	fe3b0380 <end+0xbe2b0380>
    4fd4:	85a1e3cc 	strhi	lr, [r1, #972]!	; 0x3cc
    4fd8:	bba09471 	bllt	fe82a1a4 <end+0xbe72a1a4>
    4fdc:	65be782d 	ldrvs	r7, [lr, #2093]!	; 0x82d
    4fe0:	13012d86 	movwne	r2, #7558	; 0x1d86
    4fe4:	fd13d94b 	ldc2	9, cr13, [r3, #-300]	; 0xfffffed4
    4fe8:	8e6a7b59 	vmovhi.8	d10[6], r7
    4fec:	c70e99c1 	strgt	r9, [lr, -r1, asr #19]
    4ff0:	397ddc68 	ldmdbcc	sp!, {r3, r5, r6, sl, fp, ip, lr, pc}^
    4ff4:	f5e29202 			; <UNDEFINED> instruction: 0xf5e29202
    4ff8:	b834f36a 	ldmdalt	r4!, {r1, r3, r5, r6, r8, r9, ip, sp, lr, pc}
    4ffc:	54014cf3 	strpl	r4, [r1], #-3315	; 0xcf3
    5000:	9de82048 	stclls	0, cr2, [r8, #288]!	; 0x120
    5004:	880700f9 	stmdahi	r7, {r0, r3, r4, r5, r6, r7}
    5008:	12899138 	addne	r9, r9, #56, 2
    500c:	5e08e00e 	cdppl	0, 0, cr14, cr8, cr14, {0}
    5010:	167676ad 	ldrbtne	r7, [r6], -sp, lsr #13
    5014:	5e2a6c95 	mcrpl	12, 1, r6, cr10, cr5, {4}
    5018:	0c307256 	lfmeq	f7, 4, [r0], #-344	; 0xfffffea8
    501c:	5100a04f 	tstpl	r0, pc, asr #32
    5020:	7d900491 	cfldrsvc	mvf0, [r0, #580]	; 0x244
    5024:	127af581 	rsbsne	pc, sl, #541065216	; 0x20400000
    5028:	a220180c 	eorge	r1, r0, #12, 16	; 0xc0000
    502c:	a9aca1fa 	stmibge	ip!, {r1, r3, r4, r5, r6, r7, r8, sp, pc}
    5030:	2bd5d3d8 	blcs	ff579f98 <end+0xbf479f98>
    5034:	e69ccdd7 			; <UNDEFINED> instruction: 0xe69ccdd7
    5038:	9193295b 	orrsls	r2, r3, fp, asr r9
    503c:	e9d0ec34 	ldmib	r0, {r2, r4, r5, sl, fp, sp, lr, pc}^
    5040:	6c90a7d7 	ldcvs	7, cr10, [r0], {215}	; 0xd7
    5044:	361b67f4 			; <UNDEFINED> instruction: 0x361b67f4
    5048:	2083baf0 	strdcs	fp, [r3], r0
    504c:	307b5629 	rsbscc	r5, fp, r9, lsr #12
    5050:	b811cc44 	ldmdalt	r1, {r2, r6, sl, fp, lr, pc}
    5054:	acbcc447 	cfldrsge	mvf12, [ip], #284	; 0x11c
    5058:	b742efea 	strblt	lr, [r2, -sl, ror #31]
    505c:	24656bb0 	strbtcs	r6, [r5], #-2992	; 0xbb0
    5060:	0d0d1882 	stceq	8, cr1, [sp, #-520]	; 0xfffffdf8
    5064:	8f840f82 	svchi	0x00840f82
    5068:	b1f5d9c9 	mvnslt	sp, r9, asr #19
    506c:	c0044a3e 	andgt	r4, r4, lr, lsr sl
    5070:	b3d3c233 	bicslt	ip, r3, #805306371	; 0x30000003
    5074:	905ca367 	subsls	sl, ip, r7, ror #6
    5078:	f9f249c8 			; <UNDEFINED> instruction: 0xf9f249c8
    507c:	5660a216 			; <UNDEFINED> instruction: 0x5660a216
    5080:	875189bc 			; <UNDEFINED> instruction: 0x875189bc
    5084:	896c39b5 	stmdbhi	ip!, {r0, r2, r4, r5, r7, r8, fp, ip, sp}^
    5088:	a963a79f 	stmdbge	r3!, {r0, r1, r2, r3, r4, r7, r8, r9, sl, sp, pc}^
    508c:	3717b68e 	ldrcc	fp, [r7, -lr, lsl #13]
    5090:	9b55c789 	blls	1576ebc <ZAG+0x15690a4>
    5094:	7c010f35 	stcvc	15, cr0, [r1], {53}	; 0x35
    5098:	e18c6acf 	orr	r6, ip, pc, asr #21
    509c:	7ef5ac90 	mrcvc	12, 7, sl, cr5, cr0, {4}
    50a0:	c0c6b144 	sbcgt	fp, r6, r4, asr #2
    50a4:	9878dd29 	ldmdals	r8!, {r0, r3, r5, r8, sl, fp, ip, lr, pc}^
    50a8:	061c32da 			; <UNDEFINED> instruction: 0x061c32da
    50ac:	543e36de 	ldrtpl	r3, [lr], #-1758	; 0x6de
    50b0:	8aaa37ab 	bhi	fea92f64 <end+0xbe992f64>
    50b4:	237a2406 	cmncs	sl, #100663296	; 0x6000000
    50b8:	fe8300ff 	mcr2	0, 4, r0, cr3, cr15, {7}
    50bc:	b351f5e0 	cmplt	r1, #224, 10	; 0x38000000
    50c0:	5a3ef5aa 	bpl	fc2770 <ZAG+0xfb4958>
    50c4:	31b20c75 			; <UNDEFINED> instruction: 0x31b20c75
    50c8:	977ce41f 			; <UNDEFINED> instruction: 0x977ce41f
    50cc:	1f9415fd 	svcne	0x009415fd
    50d0:	67bf0fea 	ldrvs	r0, [pc, sl, ror #31]!
    50d4:	c34b1a5b 	movtgt	r1, #47707	; 0xba5b
    50d8:	20867cfb 	strdcs	r7, [r6], fp
    50dc:	6cd8f832 	ldclvs	8, cr15, [r8], {50}	; 0x32
    50e0:	ffc7df37 			; <UNDEFINED> instruction: 0xffc7df37
    50e4:	fffc1f00 			; <UNDEFINED> instruction: 0xfffc1f00
    50e8:	ebeaf500 	bl	ffac24f0 <end+0xbf9c24f0>
    50ec:	dc2a35d9 	cfstr32le	mvfx3, [sl], #-868	; 0xfffffc9c
    50f0:	8c2962d8 	sfmhi	f6, 4, [r9], #-864	; 0xfffffca0
    50f4:	a8abca95 	stmiage	fp!, {r0, r2, r4, r7, r9, fp, lr, pc}
    50f8:	a162540a 	cmnge	r2, sl, lsl #8
    50fc:	4ce2428b 	sfmmi	f4, 2, [r2], #556	; 0x22c
    5100:	cd6c4062 	stclgt	0, cr4, [ip, #-392]!	; 0xfffffe78
    5104:	04c08247 	strbeq	r8, [r0], #583	; 0x247
    5108:	d8524ecd 	ldmdale	r2, {r0, r2, r3, r6, r7, r9, sl, fp, lr}^
    510c:	33a68fe9 			; <UNDEFINED> instruction: 0x33a68fe9
    5110:	9d762947 	ldclls	9, cr2, [r6, #-284]!	; 0xfffffee4
    5114:	6a816562 	bvs	fe05e6a4 <end+0xbdf5e6a4>
    5118:	19a9e257 	stmibne	r9!, {r0, r1, r2, r4, r6, r9, sp, lr, pc}
    511c:	003b6525 	eorseq	r6, fp, r5, lsr #10
    5120:	8000ff4b 	andhi	pc, r0, fp, asr #30
    5124:	fc366c3c 	ldc2	12, cr6, [r6], #-240	; 0xffffff10
    5128:	16e0cf9f 	usatne	ip, #0, pc, lsl #31	; <UNPREDICTABLE>
    512c:	168f5f4e 	strne	r5, [pc], lr, asr #30
    5130:	10d66a74 	sbcsne	r6, r6, r4, ror sl
    5134:	2649a3c6 	strbcs	sl, [r9], -r6, asr #7
    5138:	0b335101 	bleq	cd9544 <ZAG+0xccb72c>
    513c:	67ee27f9 			; <UNDEFINED> instruction: 0x67ee27f9
    5140:	1cd9dbd7 	fldmiaxne	r9, {d29-d135}	;@ Deprecated
    5144:	d991fa83 	ldmible	r1, {r0, r1, r7, r9, fp, ip, sp, lr, pc}
    5148:	5d5cdbe9 	vldrpl	d29, [ip, #-932]	; 0xfffffc5c
    514c:	822600ff 	eorhi	r0, r6, #255	; 0xff
    5150:	afbc669d 	svcge	0x00bc669d
    5154:	57853393 			; <UNDEFINED> instruction: 0x57853393
    5158:	858ba5a4 	strhi	sl, [fp, #1444]	; 0x5a4
    515c:	66960ca2 	ldrvs	r0, [r6], r2, lsr #25
    5160:	1a8c8a24 	bne	fe3279f8 <end+0xbe2279f8>
    5164:	38fc014a 	ldmcc	ip!, {r1, r3, r6, r8}^
    5168:	d0c9ca0c 	sbcle	ip, r9, ip, lsl #20
    516c:	1730a5ba 			; <UNDEFINED> instruction: 0x1730a5ba
    5170:	41eee690 			; <UNDEFINED> instruction: 0x41eee690
    5174:	9425c78b 	strtls	ip, [r5], #-1931	; 0x78b
    5178:	de685c12 	mcrle	12, 3, r5, cr8, cr2, {0}
    517c:	4f65cc4e 	svcmi	0x0065cc4e
    5180:	ace0e239 	sfmge	f6, 3, [r0], #228	; 0xe4
    5184:	122127e9 	eorne	r2, r1, #61079552	; 0x3a40000
    5188:	c8b2f888 	ldmgt	r2!, {r3, r7, fp, ip, sp, lr, pc}
    518c:	a0902b0b 	addsge	r2, r0, fp, lsl #22
    5190:	e1bf4131 			; <UNDEFINED> instruction: 0xe1bf4131
    5194:	2970f92d 	ldmdbcs	r0!, {r0, r2, r3, r5, r8, fp, ip, sp, lr, pc}^
    5198:	8c1a335b 	ldchi	3, cr3, [sl], {91}	; 0x5b
    519c:	6010080c 	andsvs	r0, r0, ip, lsl #16
    51a0:	a12c0fce 	smlawtge	ip, lr, pc, r0	; <UNPREDICTABLE>
    51a4:	81213296 			; <UNDEFINED> instruction: 0x81213296
    51a8:	7719a652 			; <UNDEFINED> instruction: 0x7719a652
    51ac:	00ffa923 	rscseq	sl, pc, r3, lsr #18
    51b0:	f770da68 			; <UNDEFINED> instruction: 0xf770da68
    51b4:	1e3b85bc 	mrcne	5, 1, r8, cr11, cr12, {5}
    51b8:	ab57b53e 	blge	15f26b8 <ZAG+0x15e48a0>
    51bc:	30911d59 	addscc	r1, r1, r9, asr sp
    51c0:	1bd46840 	blne	ff51f2c8 <end+0xbf41f2c8>
    51c4:	069c5583 	ldreq	r5, [ip], r3, lsl #11
    51c8:	2a9343f0 	bcs	fe4d6190 <end+0xbe3d6190>
    51cc:	9229b82a 	eorls	fp, r9, #2752512	; 0x2a0000
    51d0:	c76a2a1f 			; <UNDEFINED> instruction: 0xc76a2a1f
    51d4:	489ff5c4 	ldmmi	pc, {r2, r6, r7, r8, sl, ip, sp, lr, pc}	; <UNPREDICTABLE>
    51d8:	0a6ef4e3 	beq	1bc256c <ZAG+0x1bb4754>
    51dc:	f13165d3 			; <UNDEFINED> instruction: 0xf13165d3
    51e0:	0de795b4 	cfstr64eq	mvdx9, [r7, #720]!	; 0x2d0
    51e4:	723ba68d 	eorsvc	sl, fp, #147849216	; 0x8d00000
    51e8:	c546b042 	strbgt	fp, [r6, #-66]	; 0x42
    51ec:	21fc6251 	mvnscs	r6, r1, asr r2
    51f0:	4655a36d 	ldrbmi	sl, [r5], -sp, ror #6
    51f4:	112c3760 	teqne	ip, r0, ror #14
    51f8:	ce0be0a4 	cdpgt	0, 0, cr14, cr11, cr4, {5}
    51fc:	b94f3fae 	stmdblt	pc, {r1, r2, r3, r5, r7, r8, r9, sl, fp, ip, sp}^	; <UNPREDICTABLE>
    5200:	95567943 	ldrbls	r7, [r6, #-2371]	; 0x943
    5204:	20886f3a 	addcs	r6, r8, sl, lsr pc
    5208:	2c112006 	ldccs	0, cr2, [r1], {6}
    520c:	82200956 	eorhi	r0, r0, #1409024	; 0x158000
    5210:	4d62c0d4 	stclmi	0, cr12, [r2, #-848]!	; 0xfffffcb0
    5214:	09c25245 	stmibeq	r2, {r0, r2, r6, r9, ip, lr}^
    5218:	3ab0497a 	bcc	fec17808 <end+0xbeb17808>
    521c:	f26db722 	vabd.s32	d27, d13, d18
    5220:	a0ea2e15 	rscge	r2, sl, r5, lsl lr
    5224:	f208d0a6 	vhadd.s8	d13, d24, d22
    5228:	1bb1043b 	blne	fec4631c <end+0xbeb4631c>
    522c:	2481ec2d 	strcs	lr, [r1], #3117	; 0xc2d
    5230:	814e0a96 			; <UNDEFINED> instruction: 0x814e0a96
    5234:	73215965 	teqvc	r1, #1654784	; 0x194000
    5238:	3fbdb8cf 	svccc	0x00bdb8cf
    523c:	ae422553 	mcrge	5, 2, r2, cr2, cr3, {2}
    5240:	ac22f642 	stcge	6, cr15, [r2], #-264	; 0xfffffef8
    5244:	63482c77 	movtvs	r2, #35959	; 0x8c77
    5248:	68a4b7b2 	stmiavs	r4!, {r1, r4, r5, r7, r8, r9, sl, ip, sp, pc}
    524c:	778e28be 			; <UNDEFINED> instruction: 0x778e28be
    5250:	0a8c998d 	beq	fe32b88c <end+0xbe22b88c>
    5254:	50f69c23 	rscspl	r9, r6, r3, lsr #24
    5258:	55943234 	ldrpl	r3, [r4, #564]	; 0x234
    525c:	48b280ee 	ldmmi	r2!, {r1, r2, r3, r5, r6, r7, pc}
    5260:	b9d555dc 	ldmiblt	r5, {r2, r3, r4, r6, r7, r8, sl, ip, lr}^
    5264:	b8e4d61e 	stmialt	r4!, {r1, r2, r3, r4, r9, sl, ip, lr, pc}^
    5268:	eaaf3dde 	b	febd49e8 <end+0xbead49e8>
    526c:	c8527850 	ldmdagt	r2, {r4, r6, fp, ip, sp, lr}^
    5270:	351b52ca 	ldrcc	r5, [fp, #-714]	; 0x2ca
    5274:	349f28fb 	ldrcc	r2, [pc], #2299	; 527c <jpegdata+0x2ecc>
    5278:	c83a3861 	ldmdagt	sl!, {r0, r5, r6, fp, ip, sp}
    527c:	c3820e62 	orrgt	r0, r2, #1568	; 0x620
    5280:	257c7711 	ldrbcs	r7, [ip, #-1809]!	; 0x711
    5284:	a9348dd5 	ldmdbge	r4!, {r0, r2, r4, r6, r7, r8, sl, fp, pc}
    5288:	d80c3072 	stmdale	ip, {r1, r4, r5, r6, ip, sp}
    528c:	7d00a01c 	stcvc	0, cr10, [r0, #-112]	; 0xffffff90
    5290:	48653283 	stmdami	r5!, {r0, r1, r7, r9, ip, sp}^
    5294:	0cd143de 	ldcleq	3, cr4, [r1], {222}	; 0xde
    5298:	1549a00f 	strbne	sl, [r9, #-15]
    529c:	a1e7ed2c 	mvnge	lr, ip, lsr #26
    52a0:	7b964835 	blvc	fe59737c <end+0xbe49737c>
    52a4:	13f21c16 	mvnsne	r1, #5632	; 0x1600
    52a8:	bec82c06 	cdplt	12, 12, cr2, cr8, cr6, {0}
    52ac:	ffb1f101 			; <UNDEFINED> instruction: 0xffb1f101
    52b0:	00fffd00 	rscseq	pc, pc, r0, lsl #26
    52b4:	67d75cbf 			; <UNDEFINED> instruction: 0x67d75cbf
    52b8:	a5bd5fcd 	ldrge	r5, [sp, #4045]!	; 0xfcd
    52bc:	9e213a4b 	vnmulls.f32	s6, s2, s22
    52c0:	4952dea1 	ldmdbmi	r2, {r0, r5, r7, r9, sl, fp, ip, lr, pc}^
    52c4:	09ea4003 	stmibeq	sl!, {r0, r1, lr}^
    52c8:	103900ff 	ldrshtne	r0, [r9], -pc
    52cc:	bdd3b74e 	ldcllt	7, cr11, [r3, #312]	; 0x138
    52d0:	b76413d7 			; <UNDEFINED> instruction: 0xb76413d7
    52d4:	aa547529 	bge	1522780 <ZAG+0x1514968>
    52d8:	0030d620 	eorseq	sp, r0, r0, lsr #12
    52dc:	81dc6727 	bicshi	r6, ip, r7, lsr #14
    52e0:	3f6650fe 	svccc	0x006650fe
    52e4:	7f7d4c1d 	svcvc	0x007d4c1d
    52e8:	35a765f6 	strcc	r6, [r7, #1526]!	; 0x5f6
    52ec:	c21aaa96 	andsgt	sl, sl, #614400	; 0x96000
    52f0:	a841632c 	stmdage	r1, {r2, r3, r5, r8, r9, sp, lr}^
    52f4:	f834b713 			; <UNDEFINED> instruction: 0xf834b713
    52f8:	30e295ca 	rsccc	r9, r2, sl, asr #11
    52fc:	a47d4fe4 	ldrbtge	r4, [sp], #-4068	; 0xfe4
    5300:	02541d79 	subseq	r1, r4, #7744	; 0x1e40
    5304:	0c313bd3 	ldceq	11, cr3, [r1], #-844	; 0xfffffcb4
    5308:	a99a5fcc 	ldmibge	sl, {r2, r3, r6, r7, r8, r9, sl, fp, ip, lr}
    530c:	5d991c5e 	ldcpl	12, cr1, [r9, #376]	; 0x178
    5310:	a700ff6c 	strge	pc, [r0, -ip, ror #30]
    5314:	8857d11d 	ldmdahi	r7, {r0, r2, r3, r4, r8, ip, lr, pc}^
    5318:	6ef8ade6 	cdpvs	13, 15, cr10, cr8, cr6, {7}
    531c:	d4e06fe7 	strbtle	r6, [r0], #4071	; 0xfe7
    5320:	8a25773a 	bhi	963010 <ZAG+0x9551f8>
    5324:	39010193 	stmdbcc	r1, {r0, r1, r4, r7, r8}
    5328:	ae648a32 	mcrge	10, 3, r8, cr4, cr2, {1}
    532c:	22031124 	andcs	r1, r3, #36, 2
    5330:	e2b181c4 	adcs	r8, r1, #196, 2	; 0x31
    5334:	72c41d87 	sbcvc	r1, r4, #8640	; 0x21c0
    5338:	907a0917 	rsbsls	r0, sl, r7, lsl r9
    533c:	d686a929 	strle	sl, [r6], r9, lsr #18
    5340:	31e5e32b 	mvncc	lr, fp, lsr #6
    5344:	1b301900 	blne	c0b74c <ZAG+0xbfd934>
    5348:	e8131829 	ldmda	r3, {r0, r3, r5, fp, ip}
    534c:	774c0bc1 	strbvc	r0, [ip, -r1, asr #23]
    5350:	633a324f 	teqvs	sl, #-268435452	; 0xf0000004
    5354:	4fae6243 	svcmi	0x00ae6243
    5358:	e551ec59 	ldrb	lr, [r1, #-3161]	; 0xc59
    535c:	c7642805 	strbgt	r2, [r4, -r5, lsl #16]!
    5360:	c647d0cc 	strbgt	sp, [r7], -ip, asr #1
    5364:	d1865b39 	orrle	r5, r6, r9, lsr fp
    5368:	2854ecb4 	ldmdacs	r4, {r2, r4, r5, r7, sl, fp, sp, lr, pc}^
    536c:	97249907 	strls	r9, [r4, -r7, lsl #18]!
    5370:	ddf22054 	ldclle	0, cr2, [r2, #336]!	; 0x150
    5374:	f16cd757 			; <UNDEFINED> instruction: 0xf16cd757
    5378:	4f0fc75c 	svcmi	0x000fc75c
    537c:	14dba991 	ldrbne	sl, [fp], #2449	; 0x991
    5380:	4077672b 	rsbsmi	r6, r7, fp, lsr #14
    5384:	74557406 	ldrbvc	r7, [r5], #-1030	; 0x406
    5388:	8195a50a 	orrshi	sl, r5, sl, lsl #10
    538c:	5460e093 	strbtpl	lr, [r0], #-147	; 0x93
    5390:	dc99a15c 	ldfled	f2, [r9], {92}	; 0x5c
    5394:	1d19597d 	ldcne	9, cr5, [r9, #-500]	; 0xfffffe0c
    5398:	2da82d51 	stccs	13, cr2, [r8, #324]!	; 0x144
    539c:	9cb625b5 	cfldr32ls	mvfx2, [r6], #724	; 0x2d4
    53a0:	5c884299 	sfmpl	f4, 4, [r8], {153}	; 0x99
    53a4:	50a70094 	umlalpl	r0, r7, r4, r0
    53a8:	f9409f0b 			; <UNDEFINED> instruction: 0xf9409f0b
    53ac:	41c01279 	bicmi	r1, r0, r9, ror r2
    53b0:	7ed04bcb 	vfnmavc.f64	d20, d16, d11
    53b4:	5ad55168 	bpl	ff55995c <end+0xbf45995c>
    53b8:	fd6ae177 	stc2l	1, cr14, [sl, #-476]!	; 0xfffffe24
    53bc:	5cec753d 	cfstr64pl	mvdx7, [ip], #244	; 0xf4
    53c0:	140e4998 	strne	r4, [lr], #-2456	; 0x998
    53c4:	aeca73b4 	mcrge	3, 6, r7, cr10, cr4, {5}
    53c8:	5e988088 	cdppl	0, 9, cr8, cr8, cr8, {4}
    53cc:	9b8ff503 	blls	fe4027e0 <end+0xbe3027e0>
    53d0:	9491656c 	ldrls	r6, [r1], #1388	; 0x56c
    53d4:	55cc2603 	strbpl	r2, [ip, #1539]	; 0x603
    53d8:	ab460f58 	blge	1189140 <ZAG+0x117b328>
    53dc:	d2407b61 	suble	r7, r0, #99328	; 0x18400
    53e0:	6319a8e4 	tstvs	r9, #228, 16	; 0xe40000
    53e4:	e91892e2 	ldmdb	r8, {r1, r5, r6, r7, r9, ip, pc}
    53e8:	62ac6057 	adcvs	r6, ip, #87	; 0x57
    53ec:	c6642432 			; <UNDEFINED> instruction: 0xc6642432
    53f0:	3654e437 			; <UNDEFINED> instruction: 0x3654e437
    53f4:	c3cf7d20 	bicgt	r7, pc, #32, 26	; 0x800
    53f8:	f2f06b7f 			; <UNDEFINED> instruction: 0xf2f06b7f
    53fc:	642ced96 	strtvs	lr, [ip], #-3478	; 0xd96
    5400:	0019d353 	andseq	sp, r9, r3, asr r3
    5404:	960e257d 			; <UNDEFINED> instruction: 0x960e257d
    5408:	63c5664c 	bicvs	r6, r5, #76, 12	; 0x4c00000
    540c:	40aa6228 	adcmi	r6, sl, r8, lsr #4
    5410:	b3e716e8 	mvnlt	r1, #232, 12	; 0xe800000
    5414:	edd4798d 	ldcl	9, cr7, [r4, #564]	; 0x234
    5418:	e3c8986d 	bic	r9, r8, #7143424	; 0x6d0000
    541c:	1a706268 	bne	1c1ddc4 <ZAG+0x1c0ffac>
    5420:	6ef6ec6e 	cdpvs	12, 15, cr14, cr6, cr14, {3}
    5424:	cb6af69c 	blgt	1ac2e9c <ZAG+0x1ab5084>
    5428:	71b48a57 			; <UNDEFINED> instruction: 0x71b48a57
    542c:	daedae24 	ble	ffb70cc4 <end+0xbfa70cc4>
    5430:	12599656 	subsne	r9, r9, #90177536	; 0x5600000
    5434:	e2155246 	ands	r5, r5, #1610612740	; 0x60000004
    5438:	0769458e 	strbeq	r4, [r9, -lr, lsl #11]!
    543c:	9664db01 	strbtls	sp, [r4], -r1, lsl #22
    5440:	c43de238 	ldrtgt	lr, [sp], #-568	; 0x238
    5444:	376f9cf6 			; <UNDEFINED> instruction: 0x376f9cf6
    5448:	53248e4b 	teqpl	r4, #1200	; 0x4b0
    544c:	4d2b866b 	stcmi	6, cr8, [fp, #-428]!	; 0xfffffe54
    5450:	e32d8560 	teq	sp, #96, 10	; 0x18000000
    5454:	7c503be3 	mrrcvc	11, 14, r3, r0, cr3
    5458:	07908194 			; <UNDEFINED> instruction: 0x07908194
    545c:	c5070030 	strgt	r0, [r7, #-48]	; 0x30
    5460:	0bd79c64 	bleq	ff5ec5f8 <end+0xbf4ec5f8>
    5464:	b8925f77 	ldmlt	r2, {r0, r1, r2, r4, r5, r6, r8, r9, sl, fp, ip, lr}
    5468:	9772b416 			; <UNDEFINED> instruction: 0x9772b416
    546c:	6f41a41e 	svcvs	0x0041a41e
    5470:	3283d8b6 	addcc	sp, r3, #11927552	; 0xb60000
    5474:	024c9018 	subeq	r9, ip, #24
    5478:	0db5e1a4 	ldfeqd	f6, [r5, #656]!	; 0x290
    547c:	00ff8f9e 	smlalseq	r8, pc, lr, pc	; <UNPREDICTABLE>
    5480:	ca8ae6a7 	bgt	fe2bef24 <end+0xbe1bef24>
    5484:	a65e8ad7 			; <UNDEFINED> instruction: 0xa65e8ad7
    5488:	00ff9b6b 	rscseq	r9, pc, fp, ror #22
    548c:	71c8bd1e 	bicvc	fp, r8, lr, lsl sp
    5490:	dd4e7f92 	stclle	15, cr7, [lr, #-584]	; 0xfffffdb8
    5494:	e5526a89 	ldrb	r6, [r2, #-2697]	; 0xa89
    5498:	530b9bc3 	movwpl	r9, #48067	; 0xbbc3
    549c:	f722eb42 			; <UNDEFINED> instruction: 0xf722eb42
    54a0:	8df12466 	cfldrdhi	mvd2, [r1, #408]!	; 0x198
    54a4:	12b17851 	adcsne	r7, r1, #5308416	; 0x510000
    54a8:	0924ac4a 	stmdbeq	r4!, {r1, r3, r6, sl, fp, sp, pc}
    54ac:	23d7ed5c 	bicscs	lr, r7, #92, 26	; 0x1700
    54b0:	1f2f77c5 	svcne	0x002f77c5
    54b4:	0594d6db 	ldreq	sp, [r4, #1755]	; 0x6db
    54b8:	6a0a975a 	bvs	2ab228 <ZAG+0x29d410>
    54bc:	49488c38 	stmdbmi	r8, {r3, r4, r5, sl, fp, pc}^
    54c0:	66920a70 			; <UNDEFINED> instruction: 0x66920a70
    54c4:	6567d342 	strbvs	sp, [r7, #-834]!	; 0x342
    54c8:	4088c865 	addmi	ip, r8, r5, ror #16
    54cc:	6f1b1803 	svcvs	0x001b1803
    54d0:	6cbf75da 	cfldr32vs	mvfx7, [pc], #872	; 5840 <jpegdata+0x3490>
    54d4:	848bd95d 	strhi	sp, [fp], #2397	; 0x95d
    54d8:	8b7e5f95 	blhi	1f9d334 <ZAG+0x1f8f51c>
    54dc:	61802012 	orrvs	r2, r0, r2, lsl r0
    54e0:	1910a5be 	ldmdbne	r0, {r1, r2, r3, r4, r5, r7, r8, sl, sp, pc}
    54e4:	b0c0104b 	sbclt	r1, r0, fp, asr #32
    54e8:	74e35c33 	strbtvc	r5, [r3], #3123	; 0xc33
    54ec:	32ba45f7 	adcscc	r4, sl, #1035993088	; 0x3dc00000
    54f0:	466f1c99 			; <UNDEFINED> instruction: 0x466f1c99
    54f4:	969ab831 			; <UNDEFINED> instruction: 0x969ab831
    54f8:	cb9d3c4d 	blgt	fe754634 <end+0xbe654634>
    54fc:	17b965b9 			; <UNDEFINED> instruction: 0x17b965b9
    5500:	fb78e57a 	blx	1e3eaf2 <ZAG+0x1e30cda>
    5504:	4c5b563b 	mrrcmi	6, 3, r5, fp, cr11
    5508:	9685565a 	pkhtbls	r5, r5, sl, asr #12
    550c:	1b211529 	blne	84a9b8 <ZAG+0x83cba0>
    5510:	56126897 			; <UNDEFINED> instruction: 0x56126897
    5514:	497e5946 	ldmdbmi	lr!, {r1, r2, r6, r8, fp, ip, lr}^
    5518:	35f6ce2f 	ldrbcc	ip, [r6, #3631]!	; 0xe2f
    551c:	515870ef 	cmppl	r8, pc, ror #1
    5520:	b4369027 	ldrtlt	r9, [r6], #-39	; 0x27
    5524:	1712941d 			; <UNDEFINED> instruction: 0x1712941d
    5528:	146ffe2c 	strbtne	pc, [pc], #-3628	; 5530 <jpegdata+0x3180>	; <UNPREDICTABLE>
    552c:	1f4f8604 	svcne	0x004f8604
    5530:	b64a2220 	strblt	r2, [sl], -r0, lsr #4
    5534:	2fd46d60 	svccs	0x00d46d60
    5538:	127ef844 	rsbsne	pc, lr, #68, 16	; 0x440000
    553c:	9f4fa5bd 	svcls	0x004fa5bd
    5540:	89c5b690 	stmibhi	r5, {r4, r7, r9, sl, ip, sp, pc}^
    5544:	656280a6 	strbvs	r8, [r2, #-166]!	; 0xa6
    5548:	4624414c 	strtmi	r4, [r4], -ip, asr #2
    554c:	b1b34298 			; <UNDEFINED> instruction: 0xb1b34298
    5550:	e6842580 	str	r2, [r4], r0, lsl #11
    5554:	94ad750a 	strtls	r7, [sp], #1290	; 0x50a
    5558:	073ecdcf 	ldreq	ip, [lr, -pc, asr #27]!
    555c:	da15cb4d 	ble	578298 <ZAG+0x56a480>
    5560:	0396f0d5 	orrseq	pc, r6, #213	; 0xd5
    5564:	59ed8a5c 	stmibpl	sp!, {r2, r3, r4, r6, r9, fp, pc}^
    5568:	d822b1e0 	stmdale	r2!, {r5, r6, r7, r8, ip, sp, pc}
    556c:	8a784c96 	bhi	1e187cc <ZAG+0x1e0a9b4>
    5570:	b42d2339 	strtlt	r2, [sp], #-825	; 0x339
    5574:	94303964 	ldrtls	r3, [r0], #-2404	; 0x964
    5578:	df332761 	svcle	0x00332761
    557c:	13451053 	movtne	r1, #20563	; 0x5053
    5580:	d80e5509 	stmdale	lr, {r0, r3, r8, sl, ip, lr}
    5584:	1eeeecb1 	mcrne	12, 7, lr, cr14, cr1, {5}
    5588:	d6248fee 	strtle	r8, [r4], -lr, ror #31
    558c:	b3953cf7 	orrslt	r3, r5, #63232	; 0xf700
    5590:	721725bb 	andsvc	r2, r7, #784334848	; 0x2ec00000
    5594:	f9450653 			; <UNDEFINED> instruction: 0xf9450653
    5598:	d9f84609 	ldmible	r8!, {r0, r3, r9, sl, lr}^
    559c:	514353d8 	ldrdpl	r5, [r3, #-56]	; 0xffffffc8
    55a0:	95c1403d 	strbls	r4, [r1, #61]	; 0x3d
    55a4:	984ec899 	stmdals	lr, {r0, r3, r4, r7, fp, lr, pc}^
    55a8:	abe602c6 	blge	ff9860c8 <end+0xbf8860c8>
    55ac:	423a6538 	eorsmi	r6, sl, #56, 10	; 0xe000000
    55b0:	7c0c2a08 	stcvc	10, cr2, [ip], {8}
    55b4:	991b4da3 	ldmdbls	fp, {r0, r1, r5, r7, r8, sl, fp, lr}
    55b8:	25561004 	ldrbcs	r1, [r6, #-4]
    55bc:	3a1c8b21 	bcc	728248 <ZAG+0x71a430>
    55c0:	5db8d31b 	ldcpl	3, cr13, [r8, #108]!	; 0x6c
    55c4:	3ff3a065 	svccc	0x00f3a065
    55c8:	c99c69a9 	ldmibgt	ip, {r0, r3, r5, r7, r8, fp, sp, lr}
    55cc:	fcadf4a6 	stc2	4, cr15, [sp], #664	; 0x298
    55d0:	e9e5718a 	stmib	r5!, {r1, r3, r7, r8, ip, sp, lr}^
    55d4:	24f78e87 	ldrbtcs	r8, [r7], #3719	; 0xe87
    55d8:	45965702 	ldrmi	r5, [r6, #1794]	; 0x702
    55dc:	2f29d20a 	svccs	0x0029d20a
    55e0:	eebc1d2a 	cdp	13, 11, cr1, cr12, cr10, {1}
    55e4:	5056069b 			; <UNDEFINED> instruction: 0x5056069b
    55e8:	513f6157 	teqpl	pc, r7, asr r1	; <UNPREDICTABLE>
    55ec:	d88b7a3b 	stmle	fp, {r0, r1, r3, r4, r5, r9, fp, ip, sp, lr}
    55f0:	16c77cf2 			; <UNDEFINED> instruction: 0x16c77cf2
    55f4:	ecd67a0d 	vldmia	r6, {s15-s27}
    55f8:	d14e4a3e 	cmple	lr, lr, lsr sl
    55fc:	5aa55641 	bpl	fe95af08 <end+0xbe85af08>
    5600:	0795d254 			; <UNDEFINED> instruction: 0x0795d254
    5604:	4d01106c 	stcmi	0, cr1, [r1, #-432]	; 0xfffffe50
    5608:	4ed3c549 	cdpmi	5, 13, cr12, cr3, cr9, {2}
    560c:	216600ff 	strdcs	r0, [r6, #-15]!
    5610:	b72d5f8a 	strlt	r5, [sp, -sl, lsl #31]!
    5614:	d5f66c25 	ldrble	r6, [r6, #3109]!	; 0xc25
    5618:	4810f240 	ldmdami	r0, {r6, r9, ip, sp, lr, pc}
    561c:	baf6493f 	blt	ffd97b20 <end+0xbfc97b20>
    5620:	249ab69f 	ldrcs	fp, [sl], #1695	; 0x69f
    5624:	ba833f48 	blt	fe0d534c <end+0xbdfd534c>
    5628:	a4ad2967 	strtge	r2, [sp], #2407	; 0x967
    562c:	d698c6ea 	ldrle	ip, [r8], sl, ror #13
    5630:	544c1c98 	strbpl	r1, [ip], #-3224	; 0xc98
    5634:	0796a0c6 	ldreq	sl, [r6, r6, asr #1]
    5638:	d08a9efe 	strdle	r9, [sl], lr
    563c:	68104b88 	ldmdavs	r0, {r3, r7, r8, r9, fp, lr}
    5640:	48e58b63 	stmiami	r5!, {r0, r1, r5, r6, r8, r9, fp, pc}^
    5644:	86b8cdae 	ldrthi	ip, [r8], lr, lsr #27
    5648:	909d5979 	addsls	r5, sp, r9, ror r9
    564c:	c068a31d 	rsbgt	sl, r8, sp, lsl r3
    5650:	c6e27656 	usatgt	r7, #2, r6, asr #12
    5654:	8667ee38 			; <UNDEFINED> instruction: 0x8667ee38
    5658:	d67a9bef 	ldrbtle	r9, [sl], -pc, ror #23
    565c:	a43a83e2 	ldrtge	r8, [sl], #-994	; 0x3e2
    5660:	20aaa848 	adccs	sl, sl, r8, asr #16
    5664:	211540b6 	ldrhcs	r4, [r5, -r6]
    5668:	f900c8d8 			; <UNDEFINED> instruction: 0xf900c8d8
    566c:	1f98480c 	svcne	0x0098480c
    5670:	e3ba1a93 			; <UNDEFINED> instruction: 0xe3ba1a93
    5674:	462ff0eb 	strtmi	pc, [pc], -fp, ror #1
    5678:	98c5d5aa 	stmials	r5, {r1, r3, r5, r7, r8, sl, ip, lr, pc}^
    567c:	95982019 	ldrls	r2, [r8, #25]
    5680:	08b61e33 	ldmeq	r6!, {r0, r1, r4, r5, r9, sl, fp, ip}
    5684:	53d641c4 	bicspl	r4, r6, #196, 2	; 0x31
    5688:	d9d43730 	ldmible	r4, {r4, r5, r8, r9, sl, ip, sp}^
    568c:	9826b5a8 	stmdals	r6!, {r3, r5, r7, r8, sl, ip, sp, pc}
    5690:	3f17f5c7 	svccc	0x0017f5c7
    5694:	6cf9f3a2 	ldclvs	3, cr15, [r9], #648	; 0x288
    5698:	83571d7d 	cmphi	r7, #8000	; 0x1f40
    569c:	63aed67a 			; <UNDEFINED> instruction: 0x63aed67a
    56a0:	45332513 	ldrmi	r2, [r3, #-1299]!	; 0x513
    56a4:	d82d8c08 	stmdale	sp!, {r3, sl, fp, pc}
    56a8:	8e64291e 	mcrhi	9, 3, r2, cr4, cr14, {0}
    56ac:	34a29415 	strtcc	r9, [r2], #1045	; 0x415
    56b0:	8346234f 	movthi	r2, #25423	; 0x634f
    56b4:	017fa86f 	cmneq	pc, pc, ror #16
    56b8:	beb9417d 	mrclt	1, 5, r4, cr9, cr13, {3}
    56bc:	663be6da 			; <UNDEFINED> instruction: 0x663be6da
    56c0:	19c1fef0 	stmibne	r1, {r4, r5, r6, r7, r9, sl, fp, ip, sp, lr, pc}^
    56c4:	70044ba9 	andvc	r4, r4, r9, lsr #23
    56c8:	14f1b7a0 	ldrbtne	fp, [r1], #1952	; 0x7a0
    56cc:	12545221 	subsne	r5, r4, #268435458	; 0x10000002
    56d0:	310b960f 	tstcc	fp, pc, lsl #12
    56d4:	12802c2d 	addne	r2, r0, #11520	; 0x2d00
    56d8:	e4b1797a 	ldrt	r7, [r1], #2426	; 0x97a
    56dc:	115ab9ec 	cmpne	sl, ip, ror #19
    56e0:	19684070 	stmdbne	r8!, {r4, r5, r6, lr}^
    56e4:	120f2429 	andne	r2, pc, #687865856	; 0x29000000
    56e8:	1a75804c 	bne	1d65820 <ZAG+0x1d57a08>
    56ec:	0ca81393 	stceq	3, cr1, [r8], #588	; 0x24c
    56f0:	726f494f 	rsbvc	r4, pc, #1294336	; 0x13c000
    56f4:	3f4d32ba 	svccc	0x004d32ba
    56f8:	de4d35a0 	cdple	5, 4, cr3, cr13, cr0, {5}
    56fc:	11b2e49f 			; <UNDEFINED> instruction: 0x11b2e49f
    5700:	020cb467 	andeq	fp, ip, #1728053248	; 0x67000000
    5704:	1377daec 	cmnne	r7, #236, 20	; 0xec000
    5708:	192e4d23 	stmdbne	lr!, {r0, r1, r5, r8, sl, fp, lr}
    570c:	9915bda5 	ldmdbls	r5, {r0, r2, r5, r7, r8, sl, fp, ip, sp, pc}
    5710:	6552706d 	ldrbvs	r7, [r2, #-109]	; 0x6d
    5714:	180942a4 	stmdane	r9, {r2, r5, r7, r9, lr}
    5718:	a4ca76ba 	strbge	r7, [sl], #1722	; 0x6ba
    571c:	2391c569 	orrscs	ip, r1, #440401920	; 0x1a400000
    5720:	5776bad8 			; <UNDEFINED> instruction: 0x5776bad8
    5724:	fd3dcd2f 	ldc2	13, cr12, [sp, #-188]!	; 0xffffff44
    5728:	2efa1b3b 	vmovcs.u8	r1, d10[5]
    572c:	a831b343 	ldmdage	r1!, {r0, r1, r6, r8, r9, ip, sp, pc}
    5730:	1dfec1c1 	ldfnep	f4, [lr, #772]!	; 0x304
    5734:	e8838c3f 	stm	r3, {r0, r1, r2, r3, r4, r5, sl, fp, pc}
    5738:	4b8a1034 	blmi	fe289810 <end+0xbe189810>
    573c:	2ed5374c 	cdpcs	7, 13, cr3, cr5, cr12, {2}
    5740:	725ea854 	subsvc	sl, lr, #84, 16	; 0x540000
    5744:	9e6dc9d6 	mcrls	9, 3, ip, cr13, cr6, {6}
    5748:	5089bbbd 			; <UNDEFINED> instruction: 0x5089bbbd
    574c:	f5832006 			; <UNDEFINED> instruction: 0xf5832006
    5750:	e23e4236 	eors	r4, lr, #1610612739	; 0x60000003
    5754:	ed236241 	sfm	f6, 4, [r3, #-260]!	; 0xfffffefc
    5758:	8f2000ea 	svchi	0x002000ea
    575c:	9ad0667b 	bls	ff41f150 <end+0xbf31f150>
    5760:	0bf44c2f 	bleq	ffd18824 <end+0xbfc18824>
    5764:	bab0ac05 	blt	fec30780 <end+0xbeb30780>
    5768:	d6da531f 			; <UNDEFINED> instruction: 0xd6da531f
    576c:	094bbeb4 	stmdbeq	fp, {r2, r4, r5, r7, r9, sl, fp, ip, sp, pc}^
    5770:	721a99f1 	andsvc	r9, sl, #3948544	; 0x3c4000
    5774:	bbdbc85a 	bllt	ff6f78e4 <end+0xbf5f78e4>
    5778:	90c83a4a 	sbcls	r3, r8, sl, asr #20
    577c:	1a3054d9 	bne	c1aae8 <ZAG+0xc0ccd0>
    5780:	725eef28 	subsvc	lr, lr, #40, 30	; 0xa0
    5784:	aa9123b6 	bge	fe44e664 <end+0xbe34e664>
    5788:	7e950d4d 	cdpvc	13, 9, cr0, cr5, cr13, {2}
    578c:	4652b97d 			; <UNDEFINED> instruction: 0x4652b97d
    5790:	3beee5ae 	blcc	ffbbee50 <end+0xbfabee50>
    5794:	01c7e564 	biceq	lr, r7, r4, ror #10
    5798:	9bfd14c8 	blls	fff4aac0 <end+0xbfe4aac0>
    579c:	60bb9ad3 	ldrsbtvs	r9, [fp], r3
    57a0:	ab4eaec0 	blge	13b12a8 <ZAG+0x13a3490>
    57a4:	88eec32a 	stmiahi	lr!, {r1, r3, r5, r8, r9, lr, pc}^
    57a8:	4426c142 	strtmi	ip, [r6], #-322	; 0x142
    57ac:	f1848e4c 			; <UNDEFINED> instruction: 0xf1848e4c
    57b0:	620b3716 	andvs	r3, fp, #5767168	; 0x580000
    57b4:	8585f6f7 	strhi	pc, [r5, #1783]	; 0x6f7
    57b8:	8840c569 	stmdahi	r0, {r0, r3, r5, r6, r8, sl, lr, pc}^
    57bc:	20834a60 	addcs	r4, r3, r0, ror #20
    57c0:	bc9f898d 	ldclt	9, cr8, [pc], {141}	; 0x8d
    57c4:	d3ed2702 	mvnle	r2, #524288	; 0x80000
    57c8:	7d43fd57 	stclvc	13, cr15, [r3, #-348]	; 0xfffffea4
    57cc:	bde96bc1 	stcllt	11, cr6, [r9, #772]!	; 0x304
    57d0:	fdf4e5b2 	ldc2l	5, cr14, [r4, #712]!	; 0x2c8
    57d4:	f1a6030d 			; <UNDEFINED> instruction: 0xf1a6030d
    57d8:	d4223f7a 	strtle	r3, [r2], #-3962	; 0xf7a
    57dc:	f6b264aa 			; <UNDEFINED> instruction: 0xf6b264aa
    57e0:	96dcf133 			; <UNDEFINED> instruction: 0x96dcf133
    57e4:	4d19b7bb 	ldcmi	7, cr11, [r9, #-748]	; 0xfffffd14
    57e8:	8627f55a 			; <UNDEFINED> instruction: 0x8627f55a
    57ec:	47decd22 	ldrbmi	ip, [lr, r2, lsr #26]
    57f0:	7017c9ed 	andsvc	ip, r7, sp, ror #19
    57f4:	4ede55ac 	cdpmi	5, 13, cr5, cr14, cr12, {5}
    57f8:	888907dc 	stmhi	r9, {r2, r3, r4, r6, r7, r8, r9, sl}
    57fc:	736c00ff 	cmnvc	ip, #255	; 0xff
    5800:	517067dc 	ldrsbpl	r6, [r0, #-124]!	; 0xffffff84
    5804:	53c76fa9 	bicpl	r6, r7, #676	; 0x2a4
    5808:	4c254a74 	stcmi	10, cr4, [r5], #-464	; 0xfffffe30
    580c:	80247b1d 	eorhi	r7, r4, sp, lsl fp
    5810:	18f1b9b8 	ldmne	r1!, {r3, r4, r5, r7, r8, fp, ip, sp, pc}^
    5814:	b0503ac6 	subslt	r3, r0, r6, asr #21
    5818:	84ae6380 	strthi	r6, [lr], #896	; 0x380
    581c:	d775bcf2 			; <UNDEFINED> instruction: 0xd775bcf2
    5820:	e552eb1a 	ldrb	lr, [r2, #-2842]	; 0xb1a
    5824:	adcf8b95 	vstrge	d24, [pc, #596]	; 5a80 <jpegdata+0x36d0>
    5828:	641200fa 	ldrvs	r0, [r2], #-250	; 0xfa
    582c:	b9dfef0d 	ldmiblt	pc, {r0, r2, r3, r8, r9, sl, fp, sp, lr, pc}^	; <UNPREDICTABLE>
    5830:	99facedc 	ldmibls	sl!, {r2, r3, r4, r6, r7, r9, sl, fp, lr, pc}^
    5834:	f2c37e33 	vmov.i64	d23, #0x0000ffff0000ffff
    5838:	baa5937a 	blt	fe96a628 <end+0xbe86a628>
    583c:	eb9c6e62 	bl	fe7211cc <end+0xbe6211cc>
    5840:	260c79db 			; <UNDEFINED> instruction: 0x260c79db
    5844:	49993a4a 	ldmibmi	r9, {r1, r3, r6, r9, fp, ip, sp}
    5848:	f5e21971 			; <UNDEFINED> instruction: 0xf5e21971
    584c:	b134c9ea 	teqlt	r4, sl, ror #19
    5850:	a722ae7d 			; <UNDEFINED> instruction: 0xa722ae7d
    5854:	90c18d20 	sbcls	r8, r1, r0, lsr #26
    5858:	c219d976 	andsgt	sp, r9, #1933312	; 0x1d8000
    585c:	3bc61df2 	blcc	ff18d02c <end+0xbf08d02c>
    5860:	fdb74229 	ldc2	2, cr4, [r7, #164]!	; 0xa4
    5864:	ca6ba142 	bgt	1aedd74 <ZAG+0x1adff5c>
    5868:	6a31275c 	bvs	c4f5e0 <ZAG+0xc417c8>
    586c:	a00b51ab 	andge	r5, fp, fp, lsr #3
    5870:	5368f274 	msrpl	SPSR_f, #116, 4	; 0x40000007
    5874:	249864aa 	ldrcs	r6, [r8], #1194	; 0x4aa
    5878:	85940f12 	ldrhi	r0, [r4, #3858]	; 0xf12
    587c:	49142526 	ldmdbmi	r4, {r1, r2, r5, r8, sl, sp}
    5880:	613bd50c 	teqvs	fp, ip, lsl #10
    5884:	eca7dbea 	vstmia	r7!, {d13-<overflow reg d65>}
    5888:	340c25ae 	strcc	r2, [ip], #-1454	; 0x5ae
    588c:	1f498034 	svcne	0x00498034
    5890:	11a98150 			; <UNDEFINED> instruction: 0x11a98150
    5894:	d9038900 	stmdble	r3, {r8, fp, pc}
    5898:	6eedb1eb 	urdvs<illegal precision>z	f3, #3.0
    589c:	1ea953a6 	cdpne	3, 10, cr5, cr9, cr6, {5}
    58a0:	8bdef5cc 	blhi	ff7c2fd8 <end+0xbf6c2fd8>
    58a4:	ee4cfcc5 	cdp	12, 4, cr15, cr12, cr5, {6}
    58a8:	12dff25d 	sbcsne	pc, pc, #-805306363	; 0xd0000005
    58ac:	44426e1c 	strbmi	r6, [r2], #-3612	; 0xe1c
    58b0:	3fab5294 	svccc	0x00ab5294
    58b4:	8d65dec7 	stclhi	14, cr13, [r5, #-796]!	; 0xfffffce4
    58b8:	3f7042dd 	svccc	0x007042dd
    58bc:	80fc6826 	rscshi	r6, ip, r6, lsr #16
    58c0:	bb918c65 	bllt	fe468a5c <end+0xbe368a5c>
    58c4:	ec3e0e02 	ldc	14, cr0, [lr], #-8
    58c8:	bc337e6b 	ldclt	14, cr7, [r3], #-428	; 0xfffffe54
    58cc:	921bf92c 	andsls	pc, fp, #44, 18	; 0xb0000
    58d0:	4bc25369 	blmi	ff09a67c <end+0xbef9a67c>
    58d4:	5c2623a8 	stcpl	3, cr2, [r6], #-672	; 0xfffffd60
    58d8:	670648f4 			; <UNDEFINED> instruction: 0x670648f4
    58dc:	e06c18c1 	rsb	r1, ip, r1, asr #17
    58e0:	af233040 	svcge	0x00233040
    58e4:	ef35125c 	svc	0x0035125c
    58e8:	10d05611 	sbcsne	r5, r0, r1, lsl r6
    58ec:	f1de6849 			; <UNDEFINED> instruction: 0xf1de6849
    58f0:	91988c53 	orrsls	r8, r8, r3, asr ip
    58f4:	fe87c9eb 	cdp2	9, 8, cr12, cr7, cr11, {7}
    58f8:	b3f5ad61 	mvnslt	sl, #6208	; 0x1840
    58fc:	38fd33ed 	ldmcc	sp!, {r0, r2, r3, r5, r6, r7, r8, r9, ip, sp}^
    5900:	745db7f5 	ldrbvc	fp, [sp], #-2037	; 0x7f5
    5904:	a08e39b4 			; <UNDEFINED> instruction: 0xa08e39b4
    5908:	cde8ac67 	stclgt	12, cr10, [r8, #412]!	; 0x19c
    590c:	a0075a13 	andge	r5, r7, r3, lsl sl
    5910:	5832b563 	ldmdapl	r2!, {r0, r1, r5, r6, r8, sl, ip, sp, pc}
    5914:	c8252ab6 	stmdagt	r5!, {r1, r2, r4, r5, r7, r9, fp, sp}
    5918:	22783dec 	rsbscs	r3, r8, #236, 26	; 0x3b00
    591c:	dc23b52f 	cfstr32le	mvfx11, [r3], #-188	; 0xffffff44
    5920:	61dad916 	bicsvs	sp, sl, r6, lsl r9
    5924:	760369f5 			; <UNDEFINED> instruction: 0x760369f5
    5928:	b6309b5f 			; <UNDEFINED> instruction: 0xb6309b5f
    592c:	74aded25 	strtvc	lr, [sp], #3365	; 0xd25
    5930:	a6aa846b 	strtge	r8, [sl], fp, ror #8
    5934:	22b06c9a 	adcscs	r6, r0, #39424	; 0x9a00
    5938:	66328906 	ldrtvs	r8, [r2], -r6, lsl #18
    593c:	9f86c400 	svcls	0x0086c400
    5940:	f46006c1 	vld1.64	{d16-d18}, [r0], r1
    5944:	d82af4a4 	stmdale	sl!, {r2, r5, r7, sl, ip, sp, lr, pc}
    5948:	21bbfdd2 			; <UNDEFINED> instruction: 0x21bbfdd2
    594c:	a9e86a15 	stmibge	r8!, {r0, r2, r4, r9, fp, sp, lr}^
    5950:	1925e907 	stmdbne	r5!, {r0, r1, r2, r8, fp, sp, lr, pc}
    5954:	82a4fe08 	adchi	pc, r4, #8, 28	; 0x80
    5958:	1044dc08 	subne	sp, r4, r8, lsl #24
    595c:	bdd4560f 	ldcllt	6, cr5, [r4, #60]	; 0x3c
    5960:	8e38d21e 	mrchi	2, 1, sp, cr8, cr14, {0}
    5964:	dd346181 	ldfles	f6, [r4, #-516]!	; 0xfffffdfc
    5968:	42164d0d 	andsmi	r4, r6, #832	; 0x340
    596c:	35ce1df6 	strbcc	r1, [lr, #3574]	; 0xdf6
    5970:	30090b2b 	andcc	r0, r9, fp, lsr #22
    5974:	cd2b46bf 	stcgt	6, cr4, [fp, #-764]!	; 0xfffffd04
    5978:	81b77702 			; <UNDEFINED> instruction: 0x81b77702
    597c:	5a41925b 	bpl	106a2f0 <ZAG+0x105c4d8>
    5980:	58a25944 	stmiapl	r2!, {r2, r6, r8, fp, ip, lr}
    5984:	4142a495 			; <UNDEFINED> instruction: 0x4142a495
    5988:	3bea533f 	blcc	ffa9a68c <end+0xbf99a68c>
    598c:	07bc16dc 	sbfxeq	r1, ip, #13, #29
    5990:	b1796611 	cmnlt	r9, r1, lsl r6
    5994:	2657770b 	ldrbcs	r7, [r7], -fp, lsl #14
    5998:	2ecd8e42 	cdpcs	14, 12, cr8, cr13, cr2, {2}
    599c:	014964d2 	ldrdeq	r6, [r9, #-66]	; 0xffffffbe
    59a0:	21ce4e90 	stlexbcs	r4, r0, [lr]
    59a4:	821cd448 	andshi	sp, ip, #72, 8	; 0x48000000
    59a8:	77131f9a 			; <UNDEFINED> instruction: 0x77131f9a
    59ac:	6df54e7f 	ldclvs	14, cr4, [r5, #508]!	; 0x1fc
    59b0:	aaf03385 	bge	ffc127cc <end+0xbfb127cc>
    59b4:	541096a8 	ldrpl	r9, [r0], #-1704	; 0x6a8
    59b8:	62f0638a 	rscsvs	r6, r0, #671088642	; 0x28000002
    59bc:	924a9058 	subls	r9, sl, #88	; 0x58
    59c0:	6fe803c4 	svcvs	0x00e803c4
    59c4:	46ddf3a9 	ldrbmi	pc, [sp], r9, lsr #7	; <UNPREDICTABLE>
    59c8:	c300ffb3 	movwgt	pc, #4019	; 0xfb3	; <UNPREDICTABLE>
    59cc:	9913273a 	ldmdbls	r3, {r1, r3, r4, r5, r8, r9, sl, sp}
    59d0:	d4504b93 	ldrble	r4, [r0], #-2963	; 0xb93
    59d4:	fb8f6efa 	blx	fe3e15c6 <end+0xbe2e15c6>
    59d8:	dac9f81a 	ble	ff283a48 <end+0xbf183a48>
    59dc:	f0b26554 			; <UNDEFINED> instruction: 0xf0b26554
    59e0:	d3bc904c 			; <UNDEFINED> instruction: 0xd3bc904c
    59e4:	74add226 	strtvc	sp, [sp], #550	; 0x226
    59e8:	92283622 	eorls	r3, r8, #35651584	; 0x2200000
    59ec:	ab829129 	blge	fe0a9e98 <end+0xbdfa9e98>
    59f0:	02baba11 	adcseq	fp, sl, #69632	; 0x11000
    59f4:	a3bb36fd 			; <UNDEFINED> instruction: 0xa3bb36fd
    59f8:	4a737b79 	bmi	1ce47e4 <ZAG+0x1cd69cc>
    59fc:	25d59abc 	ldrbcs	r9, [r5, #2748]	; 0xabc
    5a00:	0329e8d8 	teqeq	r9, #216, 16	; 0xd80000
    5a04:	2c7210f1 	ldclcs	0, cr1, [r2], #-964	; 0xfffffc3c
    5a08:	00ea91e4 	rsceq	r9, sl, r4, ror #3
    5a0c:	9b6774fc 	blls	19e2e04 <ZAG+0x19d4fec>
    5a10:	6461abbe 	strbtvs	sl, [r1], #-3006	; 0xbbe
    5a14:	542414f7 	strtpl	r1, [r4], #-1271	; 0x4f7
    5a18:	096c04d0 	stmdbeq	ip!, {r4, r6, r7, sl}^
    5a1c:	5f074922 	svcpl	0x00074922
    5a20:	04830468 	streq	r0, [r3], #1128	; 0x468
    5a24:	283d89c0 	ldmdacs	sp!, {r6, r7, r8, fp, pc}
    5a28:	1fee35fa 	svcne	0x00ee35fa
    5a2c:	dbd3755f 	blle	ff4e2fb0 <end+0xbf3e2fb0>
    5a30:	f6db5fc6 			; <UNDEFINED> instruction: 0xf6db5fc6
    5a34:	2e76de4a 	cdpcs	14, 7, cr13, cr6, cr10, {2}
    5a38:	47bdd6a4 	ldrmi	sp, [sp, r4, lsr #13]!
    5a3c:	4b3d6952 	blmi	f5ff8c <ZAG+0xf52174>
    5a40:	b171653e 	cmnlt	r1, lr, lsr r5
    5a44:	b014a3d0 			; <UNDEFINED> instruction: 0xb014a3d0
    5a48:	0f28735a 	svceq	0x0028735a
    5a4c:	04c7d21c 	strbeq	sp, [r7], #540	; 0x21c
    5a50:	a4104b22 	ldrge	r4, [r0], #-2850	; 0xb22
    5a54:	b2f86549 	rscslt	r6, r8, #306184192	; 0x12400000
    5a58:	ad2871b4 	stfges	f7, [r8, #-720]!	; 0xfffffd30
    5a5c:	a08e0e1b 	addge	r0, lr, fp, lsl lr
    5a60:	2850d569 	ldmdacs	r0, {r0, r3, r5, r6, r8, sl, ip, lr, pc}^
    5a64:	68244090 	stmdavs	r4!, {r4, r7, lr}
    5a68:	3f82c1ce 	svccc	0x0082c1ce
    5a6c:	f88320b8 			; <UNDEFINED> instruction: 0xf88320b8
    5a70:	22d48320 	sbcscs	r8, r4, #32, 6	; 0x80000000
    5a74:	d490e1fa 	ldrle	lr, [r0], #506	; 0x1fa
    5a78:	ed31bbba 	vldmdb	r1!, {d11-<overflow reg d39>}
    5a7c:	c8e7c7d8 	stmiagt	r7!, {r3, r4, r6, r7, r8, r9, sl, lr, pc}^
    5a80:	37ee0398 			; <UNDEFINED> instruction: 0x37ee0398
    5a84:	a8bafda1 	ldmge	sl!, {r0, r5, r7, r8, sl, fp, ip, sp, lr, pc}
    5a88:	29b7da32 	ldmibcs	r7!, {r1, r4, r5, r9, fp, ip, lr, pc}
    5a8c:	e7b34caa 	ldr	r4, [r3, sl, lsr #25]!
    5a90:	9f164ba6 	svcls	0x00164ba6
    5a94:	3d16c99c 	ldccc	9, cr12, [r6, #-624]	; 0xfffffd90
    5a98:	6c38357e 	cfldr32vs	mvfx3, [r8], #-504	; 0xfffffe08
    5a9c:	3cf3ea48 	vldmiacc	r3!, {s29-s100}
    5aa0:	55fc1270 	ldrbpl	r1, [ip, #624]!	; 0x270
    5aa4:	2e4732cf 	cdpcs	2, 4, cr3, cr7, cr15, {6}
    5aa8:	3b339845 	blcc	cebbc4 <ZAG+0xcdddac>
    5aac:	d2344b90 	eorsle	r4, r4, #144, 22	; 0x24000
    5ab0:	2a54b4a2 	bcs	1532d40 <ZAG+0x1524f28>
    5ab4:	7ffdef0f 	svcvc	0x00fdef0f
    5ab8:	b999ebe1 	ldmiblt	r9, {r0, r5, r6, r7, r8, r9, fp, sp, lr, pc}
    5abc:	2fbf5a4e 	svccs	0x00bf5a4e
    5ac0:	33ddeb5d 	bicscc	lr, sp, #95232	; 0x17400
    5ac4:	b420fd37 	strtlt	pc, [r0], #-3383	; 0xd37
    5ac8:	7a001a85 	bvc	c4e4 <jpegdata+0xa134>
    5acc:	a80114f4 	stmdage	r1, {r2, r4, r5, r6, r7, sl, ip}
    5ad0:	83fa0498 	mvnshi	r0, #152, 8	; 0x98000000
    5ad4:	c25ad2d8 	subsgt	sp, sl, #216, 4	; 0x8000000d
    5ad8:	d1cd81f6 	strdle	r8, [sp, #22]
    5adc:	baed60cc 	blt	ffb5de14 <end+0xbfa5de14>
    5ae0:	7822445c 	stmdavc	r2!, {r2, r3, r4, r6, sl, lr}
    5ae4:	9c688fe5 	stclls	15, cr8, [r8], #-916	; 0xfffffc6c
    5ae8:	40c43b16 	sbcmi	r3, r4, r6, lsl fp
    5aec:	0a15ba6f 	beq	5744b0 <ZAG+0x566698>
    5af0:	3f483c77 	svccc	0x00483c77
    5af4:	3e868a8d 	vdivcc.f32	s16, s13, s26
    5af8:	a5a8989e 	strge	r9, [r8, #2206]!	; 0x89e
    5afc:	63af7558 			; <UNDEFINED> instruction: 0x63af7558
    5b00:	ae8c577f 	mcrge	7, 4, r5, cr12, cr15, {3}
    5b04:	e4ad3697 	strt	r3, [sp], #1687	; 0x697
    5b08:	7734823d 			; <UNDEFINED> instruction: 0x7734823d
    5b0c:	11c1deeb 	bicne	sp, r1, fp, ror #29
    5b10:	60eb33f8 	strdvs	r3, [fp], #56	; 0x38	; <UNPREDICTABLE>
    5b14:	13adae1e 			; <UNDEFINED> instruction: 0x13adae1e
    5b18:	7debebaa 	stclvc	11, cr14, [fp, #680]!	; 0x2a8
    5b1c:	55ce8c29 	strbpl	r8, [lr, #3113]	; 0xc29
    5b20:	845c115e 	ldrbhi	r1, [ip], #-350	; 0x15e
    5b24:	7b728f39 	blvc	1ca9810 <ZAG+0x1c9b9f8>
    5b28:	4d57096e 	ldclmi	9, cr0, [r7, #-440]	; 0xfffffe48
    5b2c:	60f11bc8 	rscsvs	r1, r1, r8, asr #23
    5b30:	1ddbbecb 	ldclne	14, cr11, [fp, #812]	; 0x32c
    5b34:	a50f1eb7 	strge	r1, [pc, #-3767]	; 4c85 <jpegdata+0x28d5>
    5b38:	b96988da 	stmdblt	r9!, {r1, r3, r4, r6, r7, fp, pc}^
    5b3c:	a3ebf653 	mvnge	pc, #87031808	; 0x5300000
    5b40:	e4d4ebb8 	ldrb	lr, [r4], #3000	; 0xbb8
    5b44:	53dd296d 	bicspl	r2, sp, #1785856	; 0x1b4000
    5b48:	0ffdc3f4 	svceq	0x00fdc3f4
    5b4c:	460f3da2 	strmi	r3, [pc], -r2, lsr #27
    5b50:	f5fdc644 			; <UNDEFINED> instruction: 0xf5fdc644
    5b54:	5db7f422 	cfldrspl	mvf15, [r7, #136]!	; 0x88
    5b58:	f9f6195d 			; <UNDEFINED> instruction: 0xf9f6195d
    5b5c:	ced04a59 	mrcgt	10, 6, r4, cr0, cr9, {2}
    5b60:	523fdd21 	eorspl	sp, pc, #2112	; 0x840
    5b64:	e7564794 			; <UNDEFINED> instruction: 0xe7564794
    5b68:	9fda1f1e 	svcls	0x00da1f1e
    5b6c:	2b7ec771 	blcs	1fb7938 <ZAG+0x1fa9b20>
    5b70:	c09090b8 	ldrhgt	r9, [r0], r8
    5b74:	15cfe5af 	strbne	lr, [pc, #1455]	; 612b <jpegdata+0x3d7b>
    5b78:	f0c8a7f5 			; <UNDEFINED> instruction: 0xf0c8a7f5
    5b7c:	59034deb 	stmdbpl	r3, {r0, r1, r3, r5, r6, r7, r8, sl, fp, lr}
    5b80:	d64e04d2 			; <UNDEFINED> instruction: 0xd64e04d2
    5b84:	3e492001 	cdpcc	0, 4, cr2, cr9, cr1, {0}
    5b88:	32894032 	addcc	r4, r9, #50	; 0x32
    5b8c:	ed139f69 	ldc	15, cr9, [r3, #-420]	; 0xfffffe5c
    5b90:	a52e6f70 	strge	r6, [lr, #-3952]!	; 0xf70
    5b94:	d5cfbf1d 	strble	fp, [pc, #3869]	; 6ab9 <jpegdata+0x4709>
    5b98:	eb2e927b 	bl	baa58c <ZAG+0xb9c774>
    5b9c:	c6a2d1e2 	strtgt	sp, [r2], r2, ror #3
    5ba0:	43008815 	movwmi	r8, #2069	; 0x815
    5ba4:	1a0fdceb 	bne	3fcf58 <ZAG+0x3ef140>
    5ba8:	d9f4509f 	ldmible	r4!, {r0, r1, r2, r3, r4, r7, ip, lr}^
    5bac:	7d995e88 	ldcvc	14, cr5, [r9, #544]	; 0x220
    5bb0:	32e3c25d 	rsccc	ip, r3, #-805306363	; 0xd0000005
    5bb4:	b564a976 	strblt	sl, [r4, #-2422]!	; 0x976
    5bb8:	55aa9d08 	strpl	r9, [sl, #3336]!	; 0xd08
    5bbc:	911a2d40 	tstls	sl, r0, asr #26
    5bc0:	664177c8 	strbvs	r7, [r1], -r8, asr #15
    5bc4:	7ddd7fac 	ldclvc	15, cr7, [sp, #688]	; 0x2b0
    5bc8:	7c5e15f8 	cfldr64vc	mvdx1, [lr], {248}	; 0xf8
    5bcc:	618fc8b8 			; <UNDEFINED> instruction: 0x618fc8b8
    5bd0:	34802c77 	strcc	r2, [r0], #3191	; 0xc77
    5bd4:	0b2d8a61 	bleq	b68560 <ZAG+0xb5a748>
    5bd8:	e4ab8b4b 	strt	r8, [fp], #2891	; 0xb4b
    5bdc:	ca4749ab 	bgt	11d8290 <ZAG+0x11ca478>
    5be0:	8991fa3e 	ldmibhi	r1, {r1, r2, r3, r4, r5, r9, fp, ip, sp, lr, pc}
    5be4:	03772c1a 	cmneq	r7, #6656	; 0x1a00
    5be8:	f471c1de 			; <UNDEFINED> instruction: 0xf471c1de
    5bec:	f52052d4 			; <UNDEFINED> instruction: 0xf52052d4
    5bf0:	427faf77 	rsbsmi	sl, pc, #476	; 0x1dc
    5bf4:	5bb88ccb 	blpl	fee28f28 <end+0xbed28f28>
    5bf8:	088b02c6 	stmeq	fp, {r1, r2, r6, r7, r9}
    5bfc:	ac4c9f69 	mcrrge	15, 6, r9, ip, cr9
    5c00:	96330aba 			; <UNDEFINED> instruction: 0x96330aba
    5c04:	7e219598 	mcrvc	5, 1, r9, cr1, cr8, {4}
    5c08:	1d75e2cf 	lfmne	f6, 3, [r5, #-828]!	; 0xfffffcc4
    5c0c:	7a34d4d8 	bvc	d3af74 <ZAG+0xd2d15c>
    5c10:	75ce9573 	strbvc	r9, [lr, #1395]	; 0x573
    5c14:	c5272942 	strgt	r2, [r7, #-2370]!	; 0x942
    5c18:	16e262bb 			; <UNDEFINED> instruction: 0x16e262bb
    5c1c:	33901829 	orrscc	r1, r0, #2686976	; 0x290000
    5c20:	6c3e760a 	ldcvs	6, cr7, [lr], #-40	; 0xffffffd8
    5c24:	264f1621 	strbcs	r1, [pc], -r1, lsr #12
    5c28:	c3632441 	cmngt	r3, #1090519040	; 0x41000000
    5c2c:	06110c31 			; <UNDEFINED> instruction: 0x06110c31
    5c30:	50e577fc 	strdpl	r7, [r5], #124	; 0x7c	; <UNPREDICTABLE>
    5c34:	12ee366a 	rscne	r3, lr, #111149056	; 0x6a00000
    5c38:	a33eb1e2 	teqge	lr, #-2147483592	; 0x80000038
    5c3c:	a893c4cb 	ldmge	r3, {r0, r1, r3, r6, r7, sl, lr, pc}
    5c40:	3e5e5e9f 	mrccc	14, 2, r5, cr14, cr15, {4}
    5c44:	5ddb8f86 	ldclpl	15, cr8, [fp, #536]	; 0x218
    5c48:	4ffef847 	svcmi	0x00fef847
    5c4c:	fbf9b09f 	blx	ffe71ed2 <end+0xbfd71ed2>
    5c50:	ca218a77 	bgt	868634 <ZAG+0x85a81c>
    5c54:	9fe941be 	svcls	0x00e941be
    5c58:	87539a96 			; <UNDEFINED> instruction: 0x87539a96
    5c5c:	050e8356 	streq	r8, [lr, #-854]	; 0x356
    5c60:	96e5f223 	strbtls	pc, [r5], r3, lsr #4	; <UNPREDICTABLE>
    5c64:	cdcb198a 	stclgt	9, cr1, [fp, #552]	; 0x228
    5c68:	a374148c 	cmnge	r4, #140, 8	; 0x8c000000
    5c6c:	acfee84d 	ldclge	8, cr14, [lr], #308	; 0x134
    5c70:	d9c0e6e1 	stmible	r0, {r0, r5, r6, r7, r9, sl, sp, lr, pc}^
    5c74:	9f0518d5 	svcls	0x000518d5
    5c78:	a126a41f 	teqge	r6, pc, lsl r4
    5c7c:	87dee34a 	ldrbhi	lr, [lr, sl, asr #6]
    5c80:	ff0d97b4 			; <UNDEFINED> instruction: 0xff0d97b4
    5c84:	820c9b00 	andhi	r9, ip, #0, 22
    5c88:	22a0c843 	adccs	ip, r0, #4390912	; 0x430000
    5c8c:	16c443c0 	strbne	r4, [r4], r0, asr #7
    5c90:	2388d968 	orrcs	sp, r8, #104, 18	; 0x1a0000
    5c94:	7113c09e 			; <UNDEFINED> instruction: 0x7113c09e
    5c98:	5a85f169 	bpl	fe182244 <end+0xbe082244>
    5c9c:	07229a81 	streq	r9, [r2, -r1, lsl #21]!
    5ca0:	733f73db 	teqvc	pc, #1811939331	; 0x6c000003
    5ca4:	fed7eb00 	cdp2	11, 13, cr14, cr7, cr0, {0}
    5ca8:	ff6d5cdd 			; <UNDEFINED> instruction: 0xff6d5cdd
    5cac:	7f6e5100 	svcvc	0x006e5100
    5cb0:	acaef57a 	cfstr32ge	mvfx15, [lr], #488	; 0x1e8
    5cb4:	d4dcda5e 	ldrble	sp, [ip], #2654	; 0xa5e
    5cb8:	2554f20d 	ldrbcs	pc, [r4, #-525]	; 0x20d	; <UNPREDICTABLE>
    5cbc:	42150c43 	andsmi	r0, r5, #17152	; 0x4300
    5cc0:	32b90a41 	adcscc	r0, r9, #266240	; 0x41000
    5cc4:	cc0c107f 	stcgt	0, cr1, [ip], {127}	; 0x7f
    5cc8:	9701f347 	strls	pc, [r1, -r7, asr #6]
    5ccc:	a3f3da40 	mvnsge	sp, #64, 20	; 0x40000
    5cd0:	efc8d28b 	svc	0x00c8d28b
    5cd4:	a375adb5 	cmnge	r5, #11584	; 0x2d40
    5cd8:	113ad9f3 			; <UNDEFINED> instruction: 0x113ad9f3
    5cdc:	0bd66247 	bleq	ff59e600 <end+0xbf49e600>
    5ce0:	219bdc4e 	orrscs	sp, fp, lr, asr #24
    5ce4:	15198692 	ldrne	r8, [r9, #-1682]	; 0x692
    5ce8:	23782659 	cmncs	r8, #93323264	; 0x5900000
    5cec:	9551b480 	ldrbls	fp, [r1, #-1152]	; 0x480
    5cf0:	7e243292 	mcrvc	2, 1, r3, cr4, cr2, {4}
    5cf4:	9548c62a 	strbls	ip, [r8, #-1578]	; 0x62a
    5cf8:	56637949 	strbtpl	r7, [r3], -r9, asr #18
    5cfc:	ae54da3d 	mrcge	10, 2, sp, cr4, cr13, {1}
    5d00:	645a796c 	ldrbvs	r7, [sl], #-2412	; 0x96c
    5d04:	a9732305 	ldmdbge	r3!, {r0, r2, r8, r9, sp}^
    5d08:	89d30a68 	ldmibhi	r3, {r3, r5, r6, r9, fp}^
    5d0c:	3a31b0c4 	bcc	c72024 <ZAG+0xc6420c>
    5d10:	754acb58 	strbvc	ip, [sl, #-2904]	; 0xb58
    5d14:	77c5bdea 	strbvc	fp, [r5, sl, ror #27]
    5d18:	57c91f87 	strbpl	r1, [r9, r7, lsl #31]
    5d1c:	c7ea564a 	strbgt	r5, [sl, sl, asr #12]!
    5d20:	08304820 	ldmdaeq	r0!, {r5, fp, lr}
    5d24:	626d2920 	rsbvs	r2, sp, #32, 18	; 0x80000
    5d28:	a0063249 	andge	r3, r6, r9, asr #4
    5d2c:	f442d719 	vst1.8	{d29}, [r2 :64], r9
    5d30:	c08c913a 	addgt	r9, ip, sl, lsr r1
    5d34:	ca696ee7 	bgt	1a618d8 <ZAG+0x1a53ac0>
    5d38:	db559c19 	blle	156cda4 <ZAG+0x155ef8c>
    5d3c:	49d1eeee 	ldmibmi	r1, {r1, r2, r3, r5, r6, r7, r9, sl, fp, sp, lr, pc}^
    5d40:	55e76d11 	strbpl	r6, [r7, #3345]!	; 0xd11
    5d44:	17e52369 	strbne	r2, [r5, r9, ror #6]!
    5d48:	3080a530 	addcc	sl, r0, r0, lsr r5
    5d4c:	e4954ac8 	ldr	r4, [r5], #2760	; 0xac8
    5d50:	7e401ebb 	mcrvc	14, 2, r1, cr0, cr11, {5}
    5d54:	5bea593d 	blpl	ffa9c250 <end+0xbf99c250>
    5d58:	2a5772da 	bcs	15e28c8 <ZAG+0x15d4ab0>
    5d5c:	fe90ea2e 	cdp2	10, 9, cr14, cr0, cr14, {1}
    5d60:	01843cc5 	orreq	r3, r4, r5, asr #25
    5d64:	24804024 	strcs	r4, [r0], #36	; 0x24
    5d68:	24c09cf8 	strbcs	r9, [r0], #3320	; 0xcf8
    5d6c:	059491a9 	ldreq	r9, [r4, #425]	; 0x1a9
    5d70:	2eee073d 	mcrcs	7, 7, r0, cr14, cr13, {1}
    5d74:	cf7be0d0 	svcgt	0x007be0d0
    5d78:	caabb793 	bgt	feaf3bcc <end+0xbe9f3bcc>
    5d7c:	d4743e5c 	ldrbtle	r3, [r4], #-3676	; 0xe5c
    5d80:	14ea1045 	strbtne	r1, [sl], #69	; 0x45
    5d84:	00219b8c 	eoreq	r9, r1, ip, lsl #23
    5d88:	562a9113 			; <UNDEFINED> instruction: 0x562a9113
    5d8c:	050447a1 	streq	r4, [r4, #-1953]	; 0x7a1
    5d90:	5f0f101b 	svcpl	0x000f101b
    5d94:	9a69cd59 	bls	1a79300 <ZAG+0x1a6b4e8>
    5d98:	d02ee0c8 	eorle	lr, lr, r8, asr #1
    5d9c:	f53a36c6 			; <UNDEFINED> instruction: 0xf53a36c6
    5da0:	648de7e8 	strvs	lr, [sp], #2024	; 0x7e8
    5da4:	0365e416 	cmneq	r5, #369098752	; 0x16000000
    5da8:	3b3a92ee 	blcc	eaa968 <ZAG+0xe9cb50>
    5dac:	630c2e27 	movwvs	r2, #52775	; 0xce27
    5db0:	76ead76d 	strbtvc	sp, [sl], sp, ror #14
    5db4:	fc089ee4 	stc2	14, cr9, [r8], {228}	; 0xe4
    5db8:	28255ee5 	stmdacs	r5!, {r0, r2, r5, r6, r7, r9, sl, fp, ip, lr}
    5dbc:	329b6b57 	addscc	r6, fp, #89088	; 0x15c00
    5dc0:	2f00a90b 	svccs	0x0000a90b
    5dc4:	041503a5 	ldreq	r0, [r5], #-933	; 0x3a5
    5dc8:	881c1931 	ldmdahi	ip, {r0, r4, r5, r8, fp, ip}
    5dcc:	44fd8324 	ldrbtmi	r8, [sp], #804	; 0x324
    5dd0:	5a71b283 	bpl	1c727e4 <ZAG+0x1c649cc>
    5dd4:	fc709b7e 	ldc2l	11, cr9, [r0], #-504	; 0xfffffe08
    5dd8:	e7bc3257 	sbfx	r3, r7, #4, #29
    5ddc:	945a2b0d 	ldrbls	r2, [sl], #-2829	; 0xb0d
    5de0:	1490a728 	ldrne	sl, [r0], #1832	; 0x728
    5de4:	10c2f880 	sbcne	pc, r2, r0, lsl #17
    5de8:	50e40b61 	rscpl	r0, r4, r1, ror #22
    5dec:	97c49296 	bfils	r9, r6, (invalid: 5:4)
    5df0:	33419a21 	movtcc	r9, #6689	; 0x1a21
    5df4:	ec69a1d1 	stfp	f2, [r9], #-836	; 0xfffffcbc
    5df8:	76d144c4 	ldrbvc	r4, [r1], r4, asr #9
    5dfc:	66c5c76c 	strbvs	ip, [r5], ip, ror #14
    5e00:	0e630c45 	cdpeq	12, 6, cr0, cr3, cr5, {2}
    5e04:	76845855 	pkhtbvc	r5, r4, r5, asr #16
    5e08:	96a3e655 	ssatls	lr, #4, r5, asr #12
    5e0c:	08fe80dc 	ldmeq	lr!, {r2, r3, r4, r6, r7, pc}^
    5e10:	960141f0 			; <UNDEFINED> instruction: 0x960141f0
    5e14:	421e979b 	andsmi	r9, lr, #40632320	; 0x26c0000
    5e18:	26eef708 	strbtcs	pc, [lr], r8, lsl #14	; <UNPREDICTABLE>
    5e1c:	4820d101 	stmdami	r0!, {r0, r8, ip, lr, pc}
    5e20:	00ffb8df 	ldrsbteq	fp, [pc], #143
    5e24:	ea150842 	b	547f34 <ZAG+0x53a11c>
    5e28:	88435c4e 	stmdahi	r3, {r1, r2, r3, r6, sl, fp, ip, lr}^
    5e2c:	4cdcef61 	ldclmi	15, cr14, [ip], {97}	; 0x61
    5e30:	c840a203 	stmdagt	r0, {r0, r1, r9, sp, pc}^
    5e34:	d31fd86f 	tstle	pc, #7274496	; 0x6f0000
    5e38:	df381044 	svcle	0x00381044
    5e3c:	e9a09537 	stmib	r0!, {r0, r1, r2, r4, r5, r8, sl, ip, pc}
    5e40:	52541c6e 	subspl	r1, r4, #28160	; 0x6e00
    5e44:	5a9d2165 	bpl	fe74e3e0 <end+0xbe64e3e0>
    5e48:	3460c3b2 	strbtcc	ip, [r0], #-946	; 0x3b2
    5e4c:	1165634c 	cmnne	r5, ip, asr #6
    5e50:	51a3fc4c 			; <UNDEFINED> instruction: 0x51a3fc4c
    5e54:	6521db16 	strvs	sp, [r1, #-2838]!	; 0xb16
    5e58:	b3ba4302 			; <UNDEFINED> instruction: 0xb3ba4302
    5e5c:	7a24e10e 	bvc	93e29c <ZAG+0x930484>
    5e60:	35c6ab50 	strbcc	sl, [r6, #2896]	; 0xb50
    5e64:	339e2b7b 	orrscc	r2, lr, #125952	; 0x1ec00
    5e68:	a5f3a791 	ldrbge	sl, [r3, #1937]!	; 0x791
    5e6c:	e305da72 	movw	sp, #23154	; 0x5a72
    5e70:	992c0316 	stmdbls	ip!, {r1, r2, r4, r8, r9}
    5e74:	cb0c8add 	blgt	3289f0 <ZAG+0x31abd8>
    5e78:	f8675a15 			; <UNDEFINED> instruction: 0xf8675a15
    5e7c:	a969556a 	stmdbge	r9!, {r1, r3, r5, r6, r8, sl, ip, lr}^
    5e80:	5711b1c0 	ldrpl	fp, [r1, -r0, asr #3]
    5e84:	54a901e4 	strtpl	r0, [r9], #484	; 0x1e4
    5e88:	907699a1 	rsbsls	r9, r6, r1, lsr #19
    5e8c:	11402532 	cmpne	r0, r2, lsr r5
    5e90:	0980c50c 	stmibeq	r0, {r2, r3, r8, sl, lr, pc}
    5e94:	182a0e06 	stmdane	sl!, {r1, r2, r9, sl, fp}
    5e98:	88a1e483 	stmiahi	r1!, {r0, r1, r7, sl, sp, lr, pc}
    5e9c:	d32fd563 	teqle	pc, #415236096	; 0x18c00000
    5ea0:	abc7b60e 	blge	ff1f36e0 <end+0xbf0f36e0>
    5ea4:	e93065ae 	ldmdb	r0!, {r1, r2, r3, r5, r7, r8, sl, sp, lr}
    5ea8:	41566c4a 	cmpmi	r6, sl, asr #24
    5eac:	cc3e4c54 	ldcgt	12, cr4, [lr], #-336	; 0xfffffeb0
    5eb0:	c04a2ce9 	subgt	r2, sl, r9, ror #25
    5eb4:	17408e16 	smlaldne	r8, r0, r6, lr
    5eb8:	94a12ec8 	strtls	r2, [r1], #3784	; 0xec8
    5ebc:	c486fd8f 	strgt	pc, [r6], #3471	; 0xd8f
    5ec0:	d3f9dbf9 	mvnsle	sp, #254976	; 0x3e400
    5ec4:	77a71dde 	sbfxvc	r1, lr, #27, #8
    5ec8:	6fcf7efa 	svcvs	0x00cf7efa
    5ecc:	532b746d 	teqpl	fp, #1828716544	; 0x6d000000
    5ed0:	062e40a8 	strteq	r4, [lr], -r8, lsr #1
    5ed4:	e0595905 	subs	r5, r9, r5, lsl #18
    5ed8:	e2e81c00 	rsc	r1, r8, #0, 24
    5edc:	abb39fc0 	blge	fecedde4 <end+0xbebedde4>
    5ee0:	591003a1 	ldmdbpl	r0, {r0, r5, r7, r8, r9}
    5ee4:	9dd6ee4a 	ldclls	14, cr14, [r6, #296]	; 0x128
    5ee8:	776ff15b 			; <UNDEFINED> instruction: 0x776ff15b
    5eec:	92538349 	subsls	r8, r3, #603979777	; 0x24000001
    5ef0:	0c0ebeb2 	stceq	14, cr11, [lr], {178}	; 0xb2
    5ef4:	0037126c 	eorseq	r1, r7, ip, ror #4
    5ef8:	c65023a9 	ldrbgt	r2, [r0], -r9, lsr #7
    5efc:	4e4f4006 	cdpmi	0, 4, cr4, cr15, cr6, {0}
    5f00:	9647117a 			; <UNDEFINED> instruction: 0x9647117a
    5f04:	353b2eae 	ldrcc	r2, [fp, #-3758]!	; 0xeae
    5f08:	98dc35eb 	ldmls	ip, {r0, r1, r3, r5, r6, r7, r8, sl, ip, sp}^
    5f0c:	9288a0d8 	addls	sl, r8, #216	; 0xd8
    5f10:	6f871014 	svcvs	0x00871014
    5f14:	fff913e0 			; <UNDEFINED> instruction: 0xfff913e0
    5f18:	f9f53f00 			; <UNDEFINED> instruction: 0xf9f53f00
    5f1c:	4ba5b1d4 	blmi	fe972674 <end+0xbe872674>
    5f20:	5c2fa294 	sfmpl	f2, 1, [pc], #-592	; 5cd8 <jpegdata+0x3928>
    5f24:	1929d59a 	stmdbne	r9!, {r1, r3, r4, r7, r8, sl, ip, lr, pc}
    5f28:	21090153 	tstcs	r9, r3, asr r1
    5f2c:	44620a41 	strbtmi	r0, [r2], #-2625	; 0xa41
    5f30:	decf3e06 	cdple	14, 12, cr3, cr15, cr6, {0}
    5f34:	7bb4af7d 	blvc	fed31d30 <end+0xbec31d30>
    5f38:	ea3895ca 	b	e2b668 <ZAG+0xe1d850>
    5f3c:	a540d1a6 	strbge	sp, [r0, #-422]	; 0x1a6
    5f40:	12f2a04e 	rscsne	sl, r2, #78	; 0x4e
    5f44:	1624015e 			; <UNDEFINED> instruction: 0x1624015e
    5f48:	7a20f713 	bvc	843b9c <ZAG+0x835d84>
    5f4c:	fafb681f 	blx	ffedffd0 <end+0xbfddffd0>
    5f50:	ad5c6a53 	vldrge	s13, [ip, #-332]	; 0xfffffeb4
    5f54:	fbe99f2e 	blx	ffa6dc16 <end+0xbf96dc16>
    5f58:	82d6ebf6 	sbcshi	lr, r6, #251904	; 0x3d800
    5f5c:	d234329c 	eorsle	r3, r4, #156, 4	; 0xc0000009
    5f60:	71258256 	teqvc	r5, r6, asr r2
    5f64:	99c34902 	stmibls	r3, {r1, r8, fp, lr}^
    5f68:	a0ca5952 	sbcge	r5, sl, r2, asr r9
    5f6c:	05053bdc 	streq	r3, [r5, #-3036]	; 0xbdc
    5f70:	52840001 	addpl	r0, r4, #1
    5f74:	c67adf41 	ldrbtgt	sp, [sl], -r1, asr #30
    5f78:	33f5f3da 	mvnscc	pc, #1744830467	; 0x68000003
    5f7c:	e4bdb797 	ldrt	fp, [sp], #1943	; 0x797
    5f80:	3f9d5259 	svccc	0x009d5259
    5f84:	4cc59d8a 	stclmi	13, cr9, [r5], {138}	; 0x8a
    5f88:	a6263690 			; <UNDEFINED> instruction: 0xa6263690
    5f8c:	3585d80a 	strcc	sp, [r5, #2058]	; 0x80a
    5f90:	4cc92a09 	vstmiami	r9, {s5-s13}
    5f94:	18402d3b 	stmdane	r0, {r0, r1, r3, r4, r5, r8, sl, fp, sp}^
    5f98:	4feba806 	svcmi	0x00eba806
    5f9c:	00b74d49 	adcseq	r4, r7, r9, asr #26
    5fa0:	52b58e1f 	adcspl	r8, r5, #496	; 0x1f0
    5fa4:	444b1271 	strbmi	r1, [fp], #-625	; 0x271
    5fa8:	00993de2 	addseq	r3, r9, r2, ror #27
    5fac:	26ea0348 	strbtcs	r0, [sl], r8, asr #6
    5fb0:	04639948 	strbteq	r9, [r3], #-2376	; 0x948
    5fb4:	34a42f74 	strtcc	r2, [r4], #3956	; 0xf74
    5fb8:	e3c895e6 	bic	r9, r8, #964689920	; 0x39800000
    5fbc:	4a7ccde1 	bmi	1f39748 <ZAG+0x1f2b930>
    5fc0:	9d622dd5 	stclls	13, cr2, [r2, #-852]!	; 0xfffffcac
    5fc4:	9ad1d31e 	bls	ff47ac44 <end+0xbf37ac44>
    5fc8:	b048c27e 	sublt	ip, r8, lr, ror r2
    5fcc:	954885a4 	strbls	r8, [r8, #-1444]	; 0x5a4
    5fd0:	3527b999 	strcc	fp, [r7, #-2457]!	; 0x999
    5fd4:	44023fe6 	strmi	r3, [r2], #-4070	; 0xfe6
    5fd8:	62a33e70 	adcvs	r3, r3, #112, 28	; 0x700
    5fdc:	a8dfdefb 	ldmge	pc, {r0, r1, r3, r4, r5, r6, r7, r9, sl, fp, ip, lr, pc}^	; <UNPREDICTABLE>
    5fe0:	fe5ec3dd 	mrc2	3, 2, ip, cr14, cr13, {6}
    5fe4:	5ec307bf 	mcrpl	7, 6, r0, cr3, cr15, {5}
    5fe8:	ba5bab9b 	blt	16f0e5c <ZAG+0x16e3044>
    5fec:	49039a62 	stmdbmi	r3, {r1, r5, r6, r9, fp, ip, pc}
    5ff0:	23944345 	orrscs	r4, r4, #335544321	; 0x14000001
    5ff4:	974ca57a 	smlsldxls	sl, ip, sl, r5
    5ff8:	80b155a8 	adcshi	r5, r1, r8, lsr #11
    5ffc:	a8800a57 	stmge	r0, {r0, r1, r2, r4, r6, r9, fp}
    6000:	dc0d8c57 	stcle	12, cr8, [sp], {87}	; 0x57
    6004:	7cbbe52d 	cfldr32vc	mvfx14, [fp], #180	; 0xb4
    6008:	62ce6735 	sbcvs	r6, lr, #13893632	; 0xd40000
    600c:	402c9871 	eormi	r9, ip, r1, ror r8
    6010:	1e833a3e 	mcrne	10, 4, r3, cr3, cr14, {1}
    6014:	13a4723f 			; <UNDEFINED> instruction: 0x13a4723f
    6018:	c7733db3 			; <UNDEFINED> instruction: 0xc7733db3
    601c:	2ceacf85 	stclcs	15, cr12, [sl], #532	; 0x214
    6020:	94aaa13e 	strtls	sl, [sl], #318	; 0x13e
    6024:	9341c0e3 	movtls	ip, #4323	; 0x10e3
    6028:	598eda9c 	stmibpl	lr, {r2, r3, r4, r7, r9, fp, ip, lr, pc}
    602c:	6575170f 	ldrbvs	r1, [r5, #-1807]!	; 0x70f
    6030:	84282350 	strthi	r2, [r8], #-848	; 0x350
    6034:	17102c94 			; <UNDEFINED> instruction: 0x17102c94
    6038:	c32e7f62 	teqgt	lr, #392	; 0x188
    603c:	a871df89 	ldmdage	r1!, {r0, r3, r7, r8, r9, sl, fp, ip, lr, pc}^
    6040:	f66bf7fc 			; <UNDEFINED> instruction: 0xf66bf7fc
    6044:	dfc32fcf 	svcle	0x00c32fcf
    6048:	833cb856 	teqhi	ip, #5636096	; 0x560000
    604c:	55a2a0d8 	strpl	sl, [r2, #216]!	; 0xd8
    6050:	2c159465 	cfldrscs	mvf9, [r5], {101}	; 0x65
    6054:	51a9a8c6 			; <UNDEFINED> instruction: 0x51a9a8c6
    6058:	a8463814 	stmdage	r6, {r2, r4, fp, ip, sp}^
    605c:	044d6fcb 	strbeq	r6, [sp], #-4043	; 0xfcb
    6060:	9a9b4e63 	bls	fe6d99f4 <end+0xbe5d99f4>
    6064:	224e01eb 	subcs	r0, lr, #-1073741766	; 0xc000003a
    6068:	343269f4 	ldrtcc	r6, [r2], #-2548	; 0x9f4
    606c:	f88f40e4 			; <UNDEFINED> instruction: 0xf88f40e4
    6070:	d300ff7e 	movwle	pc, #3966	; 0xf7e	; <UNPREDICTABLE>
    6074:	620dfdfe 	andvs	pc, sp, #16256	; 0x3f80
    6078:	9a9c257a 	bls	fe70f668 <end+0xbe60f668>
    607c:	96bdd4b3 			; <UNDEFINED> instruction: 0x96bdd4b3
    6080:	23019d8e 	movwcs	r9, #7566	; 0x1d8e
    6084:	9e8d214a 	rmflsem	f2, f5, #2.0
    6088:	88df6460 	ldmhi	pc, {r5, r6, sl, sp, lr}^	; <UNPREDICTABLE>
    608c:	3780047e 			; <UNDEFINED> instruction: 0x3780047e
    6090:	70dfc15f 	sbcsvc	ip, pc, pc, asr r1	; <UNPREDICTABLE>
    6094:	c00f1b36 	andgt	r1, pc, r6, lsr fp	; <UNPREDICTABLE>
    6098:	ae7ff2a9 	cdpge	2, 7, cr15, cr15, cr9, {5}
    609c:	5863adfd 	stmdapl	r3!, {r0, r2, r3, r4, r5, r6, r7, r8, sl, fp, sp, pc}^
    60a0:	7b3cf15e 	blvc	f42620 <ZAG+0xf34808>
    60a4:	2920b9d7 	stmdbcs	r0!, {r0, r1, r2, r4, r6, r7, r8, fp, ip, sp, pc}
    60a8:	4608c577 			; <UNDEFINED> instruction: 0x4608c577
    60ac:	c82723fe 	stmdagt	r7!, {r1, r2, r3, r4, r5, r6, r7, r8, r9, sp}
    60b0:	7385477e 	orrvc	r4, r5, #33030144	; 0x1f80000
    60b4:	08a64018 	stmiaeq	r6!, {r3, r4, lr}
    60b8:	b3101b25 	tstlt	r0, #37888	; 0x9400
    60bc:	9cfe52b7 	lfmls	f5, 2, [lr], #732	; 0x2dc
    60c0:	d727abe4 	strle	sl, [r7, -r4, ror #23]!
    60c4:	7ffe6bd8 	svcvc	0x00fe6bd8
    60c8:	27dbd2ef 	ldrbcs	sp, [fp, pc, ror #5]
    60cc:	2c978a15 	vldmiacs	r7, {s16-s36}
    60d0:	4b246241 	blmi	91e9dc <ZAG+0x910bc4>
    60d4:	a265cf55 	rsbge	ip, r5, #340	; 0x154
    60d8:	27795501 	ldrbcs	r5, [r9, -r1, lsl #10]!
    60dc:	c75762d7 	smmlsgt	r7, r7, r2, r6
    60e0:	fb86e5f1 	blx	fe1bf8ae <end+0xbe0bf8ae>
    60e4:	df493e9f 	svcle	0x00493e9f
    60e8:	add04fd7 	ldclge	15, cr4, [r0, #860]	; 0x35c
    60ec:	2e31defb 	mrccs	14, 1, sp, cr1, cr11, {7}
    60f0:	2bc97738 	blcs	ff263dd8 <end+0xbf163dd8>
    60f4:	666675a9 	strbtvs	r7, [r6], -r9, lsr #11
    60f8:	ce8a0a04 	vdivgt.f32	s0, s20, s8
    60fc:	43a5b9ac 			; <UNDEFINED> instruction: 0x43a5b9ac
    6100:	b2c232f5 	sbclt	r3, r2, #1342177295	; 0x5000000f
    6104:	2c608ae2 	stclcs	10, cr8, [r0], #-904	; 0xfffffc78
    6108:	514ba620 	cmppl	fp, r0, lsr #12
    610c:	c752c934 	smmlargt	r2, r4, r9, ip
    6110:	9e00ffc4 	cdpls	15, 0, cr15, cr0, cr4, {6}
    6114:	dc7fd4bf 	cfldrdle	mvd13, [pc], #-764	; 5e20 <jpegdata+0x3a70>
    6118:	b6d1357e 			; <UNDEFINED> instruction: 0xb6d1357e
    611c:	7e6a536b 	cdpvc	3, 6, cr5, cr10, cr11, {3}
    6120:	8dcc69a0 	stclhi	9, cr6, [ip, #640]	; 0x280
    6124:	b45a656c 	ldrblt	r6, [sl], #-1388	; 0x56c
    6128:	79d3b430 	ldmibvc	r3, {r4, r5, sl, ip, sp, pc}^
    612c:	7813aca3 	ldmdavc	r3, {r0, r1, r5, r7, sl, fp, sp, pc}
    6130:	839207e2 	orrshi	r0, r2, #59244544	; 0x3880000
    6134:	2154fec8 	cmpcs	r4, r8, asr #29
    6138:	710388db 	ldrdvc	r8, [r3, -fp]
    613c:	a8c723f8 	stmiage	r7, {r3, r4, r5, r6, r7, r8, r9, sp}^
    6140:	1dda1b17 	vldrne	d17, [sl, #92]	; 0x5c
    6144:	cd7dfaa1 	vldmdbgt	sp!, {s31-s191}
    6148:	2fe4d4da 	svccs	0x00e4d4da
    614c:	7227bf2a 	eorvc	fp, r7, #42, 30	; 0xa8
    6150:	a052a740 	subsge	sl, r2, r0, asr #14
    6154:	3caac1a8 	stfccd	f4, [sl], #672	; 0x2a0
    6158:	ae9842a5 	cdpge	2, 9, cr4, cr8, cr5, {5}
    615c:	8a7d3919 	bhi	1f545c8 <ZAG+0x1f467b0>
    6160:	aba450ad 	blge	fe91a41c <end+0xbe81a41c>
    6164:	ef60f713 	svc	0x0060f713
    6168:	1ea2b46e 	cdpne	4, 10, cr11, cr2, cr14, {3}
    616c:	7f1fbd1d 	svcvc	0x001fbd1d
    6170:	dea907de 	mcrle	7, 5, r0, cr9, cr14, {6}
    6174:	203b40a6 	eorscs	r4, fp, r6, lsr #1
    6178:	6e5204c1 	cdpvs	4, 5, cr0, cr2, cr1, {6}
    617c:	d47164a4 	ldrbtle	r6, [r1], #-1188	; 0x4a4
    6180:	ba544f97 	blt	1519fe4 <ZAG+0x150c1cc>
    6184:	006b2cf8 	strdeq	r2, [fp], #-200	; 0xffffff38	; <UNPREDICTABLE>
    6188:	4556432b 	ldrbmi	r4, [r6, #-811]	; 0x32b
    618c:	cc20b751 	stcgt	7, cr11, [r0], #-324	; 0xfffffebc
    6190:	91b04991 	lslsls	r4, r1	; <illegal shifter operand>
    6194:	c4b6cd7e 	ldrtgt	ip, [r6], #3454	; 0xd7e
    6198:	33d801ee 	bicscc	r0, r8, #-2147483589	; 0x8000003b
    619c:	0eb6c801 	cdpeq	8, 11, cr12, cr6, cr1, {0}
    61a0:	dbbbedc2 	blle	fef018b0 <end+0xbee018b0>
    61a4:	5acf77e1 	bpl	ff3e4130 <end+0xbf2e4130>
    61a8:	a8c47683 	stmiage	r4, {r0, r1, r7, r9, sl, ip, sp, lr}^
    61ac:	a22a2277 	eorge	r2, sl, #1879048199	; 0x70000007
    61b0:	863f8d1f 			; <UNDEFINED> instruction: 0x863f8d1f
    61b4:	d464a91d 	strbtle	sl, [r4], #-2333	; 0x91d
    61b8:	d0140382 	andsle	r0, r4, r2, lsl #7
    61bc:	294d2fc9 	stmdbcs	sp, {r0, r3, r6, r7, r8, r9, sl, fp, sp}^
    61c0:	433501b0 	teqmi	r5, #176, 2	; 0x2c
    61c4:	2daa515a 	stfcss	f5, [sl, #360]!	; 0x168
    61c8:	6021906e 	eorvs	r9, r1, lr, rrx
    61cc:	87017755 	smlsdhi	r1, r5, r7, r7
    61d0:	82c431d2 	sbchi	r3, r4, #-2147483596	; 0x80000034
    61d4:	81ba0218 			; <UNDEFINED> instruction: 0x81ba0218
    61d8:	04e4f4e5 	strbteq	pc, [r4], #1253	; 0x4e5	; <UNPREDICTABLE>
    61dc:	7e3526f4 	mrcvc	6, 1, r2, cr5, cr4, {7}
    61e0:	e9a8356f 	stmib	r8!, {r0, r1, r2, r3, r5, r6, r8, sl, ip, sp}
    61e4:	d45cc358 	ldrble	ip, [ip], #-856	; 0x358
    61e8:	b38d4d12 	orrlt	r4, sp, #1152	; 0x480
    61ec:	ecf432c1 	lfm	f3, 2, [r4], #772	; 0x304
    61f0:	ee1ccdc8 	cdp	13, 1, cr12, cr12, cr8, {6}
    61f4:	ef8315a5 	svc	0x008315a5
    61f8:	8e4826bf 	mcrhi	6, 2, r2, cr8, cr15, {5}
    61fc:	c14e5dce 	smlalbtgt	r5, lr, lr, sp
    6200:	062904b7 			; <UNDEFINED> instruction: 0x062904b7
    6204:	871cde65 	ldrhi	sp, [ip, -r5, ror #28]
    6208:	59cc4619 	stmibpl	ip, {r0, r3, r4, r9, sl, lr}^
    620c:	b6d35bd9 			; <UNDEFINED> instruction: 0xb6d35bd9
    6210:	5070614a 	rsbspl	r6, r0, sl, asr #2
    6214:	65fc5855 	ldrbvs	r5, [ip, #2133]!	; 0x855
    6218:	95c0969c 	strbls	r9, [r0, #1692]	; 0x69c
    621c:	58795438 	ldmdapl	r9!, {r3, r4, r5, sl, ip, lr}^
    6220:	6016032e 	andsvs	r0, r6, lr, lsr #6
    6224:	9a02ebc5 	bls	c1140 <ZAG+0xb3328>
    6228:	69254f3c 	stmdbvs	r5!, {r2, r3, r4, r5, r8, r9, sl, fp, lr}
    622c:	ad25cb7f 	fstmdbxge	r5!, {d12-d74}	;@ Deprecated
    6230:	68f410bd 	ldmvs	r4!, {r0, r2, r3, r4, r5, r7, ip}^
    6234:	0eb81c82 	cdpeq	12, 11, cr1, cr8, cr2, {4}
    6238:	380b4985 	stmdacc	fp, {r0, r2, r7, r8, fp, lr}
    623c:	30d3cc90 	smullscc	ip, r3, r0, ip
    6240:	cd1518ae 	ldcgt	8, cr1, [r5, #-696]	; 0xfffffd48
    6244:	1ca6c199 	stfned	f4, [r6], #612	; 0x264
    6248:	3d58c730 	ldclcc	7, cr12, [r8, #-192]	; 0xffffff40
    624c:	dc6775ba 	cfstr64le	mvdx7, [r7], #-744	; 0xfffffd18
    6250:	39f35757 	ldmibcc	r3!, {r0, r1, r2, r4, r6, r8, r9, sl, ip, lr}^
    6254:	8fa419eb 	svchi	0x00a419eb
    6258:	2c85902b 	stccs	0, cr9, [r5], {43}	; 0x2b
    625c:	1a2e9b5f 	bne	bacfe0 <ZAG+0xb9f1c8>
    6260:	0cc92cac 	stcleq	12, cr2, [r9], {172}	; 0xac
    6264:	af659375 	svcge	0x00659375
    6268:	12cd5011 	sbcne	r5, sp, #17
    626c:	dc88db85 	fstmiaxle	r8, {d13-d78}	;@ Deprecated
    6270:	e4ce1d23 	strb	r1, [lr], #3363	; 0xd23
    6274:	d42fcd09 	strtle	ip, [pc], #-3337	; 627c <jpegdata+0x3ecc>
    6278:	514b1b3b 	cmppl	fp, fp, lsr fp
    627c:	cc5cf652 	mrrcgt	6, 5, pc, ip, cr2	; <UNPREDICTABLE>
    6280:	ec93310c 	ldfs	f3, [r3], {12}
    6284:	1fba12ec 	svcne	0x00ba12ec
    6288:	3e12f991 	mrccc	9, 0, APSR_nzcv, cr2, cr1, {4}
    628c:	f67637e4 			; <UNDEFINED> instruction: 0xf67637e4
    6290:	bd94822d 	lfmlt	f0, 1, [r4, #180]	; 0xb4
    6294:	b4cafaed 	strblt	pc, [sl], #2797	; 0xaed	; <UNPREDICTABLE>
    6298:	b34c4ddb 	movtlt	r4, #52699	; 0xcddb
    629c:	d41e481c 	ldrle	r4, [lr], #-2076	; 0x81c
    62a0:	f34f2599 	vqrshl.u8	d18, d9, d31
    62a4:	c8fdd44e 	ldmgt	sp!, {r1, r2, r3, r6, sl, ip, lr, pc}^
    62a8:	a52b1560 	strge	r1, [fp, #-1376]!	; 0x560
    62ac:	add79ffa 	ldclge	15, cr9, [r7, #1000]	; 0x3e8
    62b0:	66dcd475 			; <UNDEFINED> instruction: 0x66dcd475
    62b4:	b365c1ba 	cmnlt	r5, #-2147483602	; 0x8000002e
    62b8:	768c75b7 			; <UNDEFINED> instruction: 0x768c75b7
    62bc:	9a39dc56 	bls	e7d41c <ZAG+0xe6f604>
    62c0:	6a6d24f1 	bvs	1b4f68c <ZAG+0x1b41874>
    62c4:	5355de68 	cmppl	r5, #104, 28	; 0x680
    62c8:	6009712b 	andvs	r7, r9, fp, lsr #2
    62cc:	1096d9aa 	addsne	sp, r6, sl, lsr #19
    62d0:	16da73b2 			; <UNDEFINED> instruction: 0x16da73b2
    62d4:	50da81ec 	sbcspl	r8, sl, ip, ror #3
    62d8:	7b738982 	blvc	1ce88e8 <ZAG+0x1cdaad0>
    62dc:	5a6171c6 	bpl	18629fc <ZAG+0x1854be4>
    62e0:	0605a0e6 	streq	sl, [r5], -r6, ror #1
    62e4:	014c4e32 	cmpeq	ip, r2, lsr lr
    62e8:	b765b283 	strblt	fp, [r5, -r3, lsl #5]!
    62ec:	b2932488 	addslt	r2, r3, #136, 8	; 0x88000000
    62f0:	a59e2401 	ldrge	r2, [lr, #1025]	; 0x401
    62f4:	736e7fdc 	cmnvc	lr, #220, 30	; 0x370
    62f8:	ad36c57c 	cfldr32ge	mvfx12, [r6, #-496]!	; 0xfffffe10
    62fc:	99c66e6b 	stmibls	r6, {r0, r1, r3, r5, r6, r9, sl, fp, sp, lr}^
    6300:	53c2c8f2 	bicpl	ip, r2, #15859712	; 0xf20000
    6304:	36d34830 			; <UNDEFINED> instruction: 0x36d34830
    6308:	20324828 	eorscs	r4, r2, r8, lsr #16
    630c:	20501e19 	subscs	r1, r0, r9, lsl lr
    6310:	36b4b618 	ssatcc	fp, #21, r8, lsl #12
    6314:	4b8fea8a 	blmi	fe400d44 <end+0xbe300d44>
    6318:	8dd3fbfa 	vldrhi	d31, [r3, #1000]	; 0x3e8
    631c:	3531a657 	ldrcc	sl, [r1, #-1623]!	; 0x657
    6320:	8a1ad1a2 	bhi	6ba9b0 <ZAG+0x6acb98>
    6324:	6f3538c5 	svcvs	0x003538c5
    6328:	e48ba14f 	str	sl, [fp], #335	; 0x14f
    632c:	d8e27461 	stmiale	r2!, {r0, r5, r6, sl, ip, sp, lr}^
    6330:	2bf98535 	blcs	ffe6780c <end+0xbfd6780c>
    6334:	04bff342 	ldrteq	pc, [pc], #834	; 633c <jpegdata+0x3f8c>	; <UNPREDICTABLE>
    6338:	0aabbd13 	beq	feaf578c <end+0xbe9f578c>
    633c:	2ab080d0 	bcs	fec26684 <end+0xbeb26684>
    6340:	e4a1c510 	strt	ip, [r1], #1296	; 0x510
    6344:	f7c6691a 			; <UNDEFINED> instruction: 0xf7c6691a
    6348:	0f776d2f 	svceq	0x00776d2f
    634c:	e59d5e23 	ldr	r5, [sp, #3619]	; 0xe23
    6350:	9cc030ad 	stclls	0, cr3, [r0], {173}	; 0xad
    6354:	c837945d 	ldmdagt	r7!, {r0, r2, r3, r4, r6, sl, ip, pc}
    6358:	259618aa 	ldrcs	r1, [r6, #2218]	; 0x8aa
    635c:	28026090 	stmdacs	r2, {r4, r7, sp, lr}
    6360:	bed6473e 	mrclt	7, 6, r4, cr6, cr14, {1}
    6364:	715d6edd 	ldrsbvc	r6, [sp, #-237]	; 0xffffff13
    6368:	6d1ba77c 	ldcvs	7, cr10, [fp, #-496]	; 0xfffffe10
    636c:	62d5a84d 	sbcsvs	sl, r5, #5046272	; 0x4d0000
    6370:	1809ea3e 	stmdane	r9, {r1, r2, r3, r4, r5, r9, fp, sp, lr, pc}
    6374:	03004492 	movweq	r4, #1170	; 0x492
    6378:	43639219 	cmnmi	r3, #-1879048191	; 0x90000001
    637c:	ff3bfdfe 			; <UNDEFINED> instruction: 0xff3bfdfe
    6380:	a953d400 	ldmdbge	r3, {sl, ip, lr, pc}^
    6384:	3bb73793 	blcc	fedd41d8 <end+0xbecd41d8>
    6388:	e2413b5a 	sub	r3, r1, #92160	; 0x16800
    638c:	a9abd86e 	stmibge	fp!, {r1, r2, r3, r5, r6, fp, ip, lr, pc}
    6390:	bb870db3 	bllt	fe1c9a64 <end+0xbe0c9a64>
    6394:	45273d3e 	strmi	r3, [r7, #-3390]!	; 0xd3e
    6398:	fe28ba82 	vselge.f32	s22, s17, s4
    639c:	3a126de4 	bcc	4a1b34 <ZAG+0x493d1c>
    63a0:	f85a92c6 			; <UNDEFINED> instruction: 0xf85a92c6
    63a4:	2bdcf6f0 	blcs	ff743f6c <end+0xbf643f6c>
    63a8:	61955759 	orrsvs	r5, r5, r9, asr r7
    63ac:	4389ee47 	orrmi	lr, r9, #1136	; 0x470
    63b0:	249e0bb5 	ldrcs	r0, [lr], #2997	; 0xbb5
    63b4:	bdc72950 	stcllt	9, cr2, [r7, #320]	; 0x140
    63b8:	464e852f 	strbmi	r8, [lr], -pc, lsr #10
    63bc:	a5521518 	ldrbge	r1, [r2, #-1304]	; 0x518
    63c0:	c501c55b 	strgt	ip, [r1, #-1371]	; 0x55b
    63c4:	4ad90244 	bmi	ff646cdc <end+0xbf546cdc>
    63c8:	152a6084 	strne	r6, [sl, #-132]!	; 0x84
    63cc:	97d06369 	ldrbls	r6, [r0, r9, ror #6]
    63d0:	0837bab6 	ldmdaeq	r7!, {r1, r2, r4, r5, r7, r9, fp, ip, sp, pc}
    63d4:	46454c97 			; <UNDEFINED> instruction: 0x46454c97
    63d8:	0806791f 	stmdaeq	r6, {r0, r1, r2, r3, r4, r8, fp, ip, sp, lr}
    63dc:	49a2a96f 	stmibmi	r2!, {r0, r1, r2, r3, r5, r6, r8, fp, sp, pc}
    63e0:	1203e2f5 	andne	lr, r3, #1342177295	; 0x5000000f
    63e4:	6318020e 	tstvs	r8, #-536870912	; 0xe0000000
    63e8:	d4879dd4 	strle	r9, [r7], #3540	; 0xdd4
    63ec:	b57ae5de 	ldrblt	lr, [sl, #-1502]!	; 0x5de
    63f0:	5596fcd0 	ldrpl	pc, [r6, #3280]	; 0xcd0
    63f4:	1d3d18b2 	ldcne	8, cr1, [sp, #-712]!	; 0xfffffd38
    63f8:	e2d63a15 	sbcs	r3, r6, #86016	; 0x15000
    63fc:	f0aca269 			; <UNDEFINED> instruction: 0xf0aca269
    6400:	5d496fe6 	stclpl	15, cr6, [r9, #-920]	; 0xfffffc68
    6404:	8351295e 	cmphi	r1, #1540096	; 0x178000
    6408:	d2721d13 	rsbsle	r1, r2, #1216	; 0x4c0
    640c:	11b0802c 	lsrsne	r8, ip, #32
    6410:	807b3c3a 	rsbshi	r3, fp, sl, lsr ip
    6414:	ca31b1ab 	bgt	c72ac8 <ZAG+0xc64cb0>
    6418:	c3959db6 	orrsgt	r9, r5, #11648	; 0x2d80
    641c:	ad402973 	stclge	9, cr2, [r0, #-460]	; 0xfffffe34
    6420:	908ac54a 	addls	ip, sl, sl, asr #10
    6424:	cc253524 	cfstr32gt	mvfx3, [r5], #-144	; 0xffffff70
    6428:	67f65386 	ldrbvs	r5, [r6, r6, lsl #7]!
    642c:	e6314801 	ldrt	r4, [r1], -r1, lsl #16
    6430:	7de49d0a 	stclvc	13, cr9, [r4, #40]!	; 0x28
    6434:	770e593d 	smladxvc	lr, sp, r9, r5
    6438:	48c1b697 	stmiami	r1, {r0, r1, r2, r4, r7, r9, sl, ip, sp, pc}^
    643c:	03ab3246 			; <UNDEFINED> instruction: 0x03ab3246
    6440:	c17898cd 	cmngt	r8, sp, asr #17
    6444:	91c90292 			; <UNDEFINED> instruction: 0x91c90292
    6448:	408f203a 	addmi	r2, pc, sl, lsr r0	; <UNPREDICTABLE>
    644c:	0ed38d75 	mrceq	13, 6, r8, cr3, cr5, {3}
    6450:	8cce6b91 	fstmiaxhi	lr, {d22-d93}	;@ Deprecated
    6454:	06f5bcf4 			; <UNDEFINED> instruction: 0x06f5bcf4
    6458:	3b968cb5 	blcc	fe5a9734 <end+0xbe4a9734>
    645c:	d52ee55d 	strle	lr, [lr, #-1373]!	; 0x55d
    6460:	270d1c8a 	strcs	r1, [sp, -sl, lsl #25]
    6464:	eae9f85b 	b	ffa845d8 <end+0xbf9845d8>
    6468:	d3fb95bc 	mvnsle	r9, #188, 10	; 0x2f000000
    646c:	1172eede 	ldrsbne	lr, [r2, #-238]!	; 0xffffff12
    6470:	d3148b34 	tstle	r4, #52, 22	; 0xd000
    6474:	2422df3c 	strtcs	sp, [r2], #-3900	; 0xf3c
    6478:	c539ca50 	ldrgt	ip, [r9, #-2640]!	; 0xa50
    647c:	935300bf 	cmpls	r3, #191	; 0xbf
    6480:	e3eef8e6 	mvn	pc, #15073280	; 0xe60000
    6484:	540947e5 	strpl	r4, [r9], #-2021	; 0x7e5
    6488:	62a85aab 	adcvs	r5, r8, #700416	; 0xab000
    648c:	3c1cbc5d 	ldccc	12, cr11, [ip], {93}	; 0x5d
    6490:	d79e223e 			; <UNDEFINED> instruction: 0xd79e223e
    6494:	1595a520 	ldrne	sl, [r5, #1312]	; 0x520
    6498:	0926364d 	stmdbeq	r6!, {r0, r2, r3, r6, r9, sl, ip, sp}
    649c:	bc2ea321 	stclt	3, cr10, [lr], #-132	; 0xffffff7c
    64a0:	a7bcf15b 	sbfxge	pc, fp, #2, #29
    64a4:	3f5f8c1a 	svccc	0x005f8c1a
    64a8:	9a06b89c 	bls	1b4720 <ZAG+0x1a6908>
    64ac:	131000ff 	tstne	r0, #255	; 0xff
    64b0:	b92b3120 	stmdblt	fp!, {r5, r8, ip, sp}
    64b4:	61c80463 	bicvs	r0, r8, r3, ror #8
    64b8:	8e89003a 	mcrhi	0, 4, r0, cr9, cr10, {1}
    64bc:	f232bdaf 	vsub.f<illegal width 64>	d11, d18, d31
    64c0:	883f1dfc 	ldmdahi	pc!, {r2, r3, r4, r5, r6, r7, r8, sl, fp, ip}	; <UNPREDICTABLE>
    64c4:	ceb466cb 	cdpgt	6, 11, cr6, cr4, cr11, {6}
    64c8:	231c5323 	tstcs	ip, #-1946157056	; 0x8c000000
    64cc:	ee8295cd 	cdp	5, 8, cr9, cr2, cr13, {6}
    64d0:	0f3ca252 	svceq	0x003ca252
    64d4:	5b2c7835 	blpl	b245b0 <ZAG+0xb16798>
    64d8:	56760743 	ldrbtpl	r0, [r6], -r3, asr #14
    64dc:	4dd58c44 	ldclmi	12, cr8, [r5, #272]	; 0x110
    64e0:	da2b7398 	ble	ae3348 <ZAG+0xad5530>
    64e4:	3b711267 	blcc	1c4ae88 <ZAG+0x1c3d070>
    64e8:	72c02d81 	sbcvc	r2, r0, #8256	; 0x2040
    64ec:	e1831fc8 	orr	r1, r3, r8, asr #31
    64f0:	e56a3fdd 	strb	r3, [sl, #-4061]!	; 0xfdd
    64f4:	676a7789 	strbvs	r7, [sl, -r9, lsl #15]!
    64f8:	d64e952c 	strble	r9, [lr], -ip, lsr #10
    64fc:	5401ae0b 	strpl	sl, [r1], #-3595	; 0xe0b
    6500:	40361002 	eorsmi	r1, r6, r2
    6504:	2120a8bc 			; <UNDEFINED> instruction: 0x2120a8bc
    6508:	bd1a550a 	cfldr32lt	mvfx5, [sl, #-40]	; 0xffffffd8
    650c:	5ab5f8af 	bpl	fed847d0 <end+0xbec847d0>
    6510:	40655915 	rsbmi	r5, r5, r5, lsl r9
    6514:	cac24d2b 	bgt	ff0999c8 <end+0xbef999c8>
    6518:	1ef220b3 	mrcne	0, 7, r2, cr2, cr3, {5}
    651c:	8cccc532 	cfstr64hi	mvdx12, [ip], {50}	; 0x32
    6520:	914dd8c8 	smlalbtls	sp, sp, r8, r8	; <UNPREDICTABLE>
    6524:	37ea7d26 	strbcc	r7, [sl, r6, lsr #26]!
    6528:	ad13f052 	ldcge	0, cr15, [r3, #-328]	; 0xfffffeb8
    652c:	5dc721b9 	stfple	f2, [r7, #740]	; 0x2e4
    6530:	4c29aba3 	stcmi	11, cr10, [r9], #-652	; 0xfffffd74
    6534:	c22d446a 	eorgt	r4, sp, #1778384896	; 0x6a000000
    6538:	8b40ecf5 	blhi	1041914 <ZAG+0x1033afc>
    653c:	4a49f360 	bmi	12832c4 <ZAG+0x12754ac>
    6540:	84db68b0 	ldrbhi	r6, [fp], #2224	; 0x8b0
    6544:	12ab327b 	adcne	r3, fp, #-1342177273	; 0xb0000007
    6548:	8ea1e2bd 	mcrhi	2, 5, lr, cr1, cr13, {5}
    654c:	c67d7dee 	ldrbtgt	r7, [sp], -lr, ror #27
    6550:	c7239ff6 			; <UNDEFINED> instruction: 0xc7239ff6
    6554:	d49b35de 	ldrle	r3, [fp], #1502	; 0x5de
    6558:	4c92d0ca 	ldcmi	0, cr13, [r2], {202}	; 0xca
    655c:	0384b381 	orreq	fp, r4, #67108866	; 0x4000002
    6560:	6648cc81 	strbvs	ip, [r8], -r1, lsl #25
    6564:	4b4a64f4 	blmi	129f93c <ZAG+0x1291b24>
    6568:	dbb9240d 	blle	fee4f5a4 <end+0xbed4f5a4>
    656c:	482b3aa3 	stmdami	fp!, {r0, r1, r5, r7, r9, fp, ip, sp}
    6570:	323a402a 	eorscc	r4, sl, #42	; 0x2a
    6574:	eec73e36 	mcr	14, 6, r3, cr7, cr6, {1}
    6578:	ee37063f 	mrc	6, 1, r0, cr7, cr15, {1}
    657c:	9bbf213a 	blls	fefcea6c <end+0xbeecea6c>
    6580:	035775c6 	cmpeq	r7, #830472192	; 0x31800000
    6584:	637e6c42 	cmnvs	lr, #16896	; 0x4200
    6588:	50bdd54e 	adcspl	sp, sp, lr, asr #10
    658c:	aa17dff7 	bge	5fe570 <ZAG+0x5f0758>
    6590:	5c6c86a1 	stclpl	6, cr8, [ip], #-644	; 0xfffffd7c
    6594:	047cb492 	ldrbteq	fp, [ip], #-1170	; 0x492
    6598:	c9685657 	stmdbgt	r8!, {r0, r1, r2, r4, r6, r9, sl, ip, lr}^
    659c:	114af935 	cmpne	sl, r5, lsr r9
    65a0:	5dfc06dd 	ldclpl	6, cr0, [ip, #884]!	; 0x374
    65a4:	839315f8 	orrshi	r1, r3, #248, 10	; 0x3e000000
    65a8:	b5dfbe20 	ldrblt	fp, [pc, #3616]	; 73d0 <jpegdata+0x5020>
    65ac:	9d5b3be4 	vldrls	d19, [fp, #-912]	; 0xfffffc70
    65b0:	9a6f6d4a 	bls	1be1ae0 <ZAG+0x1bd3cc8>
    65b4:	c88160d4 	stmgt	r1, {r2, r4, r6, r7, sp, lr}
    65b8:	b67d8931 			; <UNDEFINED> instruction: 0xb67d8931
    65bc:	a5e20089 	strbge	r0, [r2, #137]!	; 0x89
    65c0:	3760eda0 	strbcc	lr, [r0, -r0, lsr #27]!
    65c4:	e50843a0 	str	r4, [r8, #-928]	; 0x3a0
    65c8:	8d3daaad 	vldmdbhi	sp!, {s20-s192}
    65cc:	950c287a 	strls	r2, [ip, #-2170]	; 0x87a
    65d0:	1bb38f31 	blne	fecea29c <end+0xbebea29c>
    65d4:	08627e8d 	stmdaeq	r2!, {r0, r2, r3, r7, r9, sl, fp, ip, sp, lr}^
    65d8:	601d83fb 			; <UNDEFINED> instruction: 0x601d83fb
    65dc:	e9f6787b 	ldmib	r6!, {r0, r1, r3, r4, r5, r6, fp, ip, sp, lr}^
    65e0:	235fa16b 	cmpcs	pc, #-1073741798	; 0xc000001a
    65e4:	5fa64cf5 	svcpl	0x00a64cf5
    65e8:	e72ecb58 			; <UNDEFINED> instruction: 0xe72ecb58
    65ec:	44bb9e19 	ldrtmi	r9, [fp], #3609	; 0xe19
    65f0:	30fe980a 	rscscc	r9, lr, sl, lsl #16
    65f4:	2b685ec7 	blcs	1a1e118 <ZAG+0x1a10300>
    65f8:	b41a3937 	ldrlt	r3, [sl], #-2359	; 0x937
    65fc:	47d70acd 	ldrbmi	r0, [r7, sp, asr #21]
    6600:	147a27fb 	ldrbtne	r2, [sl], #-2043	; 0x7fb
    6604:	b00e358e 	andlt	r3, lr, lr, lsl #11
    6608:	3927174a 	stmdbcc	r7!, {r1, r3, r6, r8, r9, sl, ip}
    660c:	25af7cdd 	strcs	r7, [pc, #3293]!	; 72f1 <jpegdata+0x4f41>
    6610:	1aeb8bc6 	bne	ffae9530 <end+0xbf9e9530>
    6614:	1ab38562 	bne	fece7ba4 <end+0xbebe7ba4>
    6618:	0d415994 	stcleq	9, cr5, [r1, #-592]	; 0xfffffdb0
    661c:	c50e3893 	strgt	r3, [lr, #-2195]	; 0x893
    6620:	813c5081 	teqhi	ip, r1, lsl #1
    6624:	0e64c030 	mcreq	0, 3, ip, cr4, cr0, {1}
    6628:	4ac8b064 	bmi	ff2327c0 <end+0xbf1327c0>
    662c:	670b9795 			; <UNDEFINED> instruction: 0x670b9795
    6630:	d7f6e742 	ldrble	lr, [r6, r2, asr #14]!
    6634:	18556a0c 	ldmdane	r5, {r2, r3, r9, fp, sp, lr}^
    6638:	0a583b38 	beq	1615320 <ZAG+0x1607508>
    663c:	74064160 	strvc	r4, [r6], #-352	; 0x160
    6640:	244e9040 	strbcs	r9, [lr], #-64	; 0x40
    6644:	e9018240 	stmdb	r1, {r6, r9, pc}
    6648:	eb70ab91 	bl	1c31494 <ZAG+0x1c2367c>
    664c:	58e7c1e6 	stmiapl	r7!, {r1, r2, r5, r6, r7, r8, lr, pc}^
    6650:	575b8289 	ldrbpl	r8, [fp, -r9, lsl #5]
    6654:	3c080556 	cfstr32cc	mvfx0, [r8], {86}	; 0x56
    6658:	433e6437 	teqmi	lr, #922746880	; 0x37000000
    665c:	db15dc29 	blle	57d708 <ZAG+0x56f8f0>
    6660:	00ffc97d 	rscseq	ip, pc, sp, ror r9	; <UNPREDICTABLE>
    6664:	a79f4dbf 			; <UNDEFINED> instruction: 0xa79f4dbf
    6668:	c421d7fc 	strtgt	sp, [r1], #-2044	; 0x7fc
    666c:	dbedd65e 	blle	ffb7bfec <end+0xbfa7bfec>
    6670:	a65639fa 			; <UNDEFINED> instruction: 0xa65639fa
    6674:	c5a9f08f 	strgt	pc, [r9, #143]!	; 0x8f
    6678:	d4a85b4e 	strtle	r5, [r8], #2894	; 0xb4e
    667c:	353e85c3 	ldrcc	r8, [lr, #-1475]!	; 0x5c3
    6680:	61b3d974 			; <UNDEFINED> instruction: 0x61b3d974
    6684:	2348a40a 	movtcs	sl, #33802	; 0x840a
    6688:	27ea1fa9 	strbcs	r1, [sl, r9, lsr #31]!
    668c:	daca6103 	ble	ff29eaa0 <end+0xbf19eaa0>
    6690:	2a1bee52 	bcs	701fe0 <ZAG+0x6f41c8>
    6694:	e9a852d8 	stmib	r8!, {r3, r4, r6, r7, r9, ip, lr}
    6698:	8cc8b0f3 	stclhi	0, cr11, [r8], {243}	; 0xf3
    669c:	146a4d75 	strbtne	r4, [sl], #-3445	; 0xd75
    66a0:	6da93c2c 	stcvs	12, cr3, [r9, #176]!	; 0xb0
    66a4:	591e0a30 	ldmdbpl	lr, {r4, r5, r9, fp}
    66a8:	a11b8281 	tstge	fp, r1, lsl #5
    66ac:	ee59f8ba 	mrc	8, 2, APSR_nzcv, cr9, cr10, {5}
    66b0:	815d6c63 	cmphi	sp, r3, ror #24
    66b4:	8e2b91e1 	abshi<illegal precision>z	f1, f1
    66b8:	09ccc752 	stmibeq	ip, {r1, r4, r6, r8, r9, sl, lr, pc}^
    66bc:	fc066e14 	stc2	14, cr6, [r6], {20}
    66c0:	23bfdc4e 			; <UNDEFINED> instruction: 0x23bfdc4e
    66c4:	73e3eff6 	mvnvc	lr, #984	; 0x3d8
    66c8:	feb553f8 	mrc2	3, 5, r5, cr5, cr8, {7}
    66cc:	dada70b7 	ble	ff6a29b0 <end+0xbf5a29b0>
    66d0:	ddc4abf2 	vstrle	d26, [r4, #968]	; 0x3c8
    66d4:	1267532b 	rsbne	r5, r7, #-1409286144	; 0xac000000
    66d8:	7384d88e 	orrvc	sp, r4, #9306112	; 0x8e0000
    66dc:	29876220 	stmibcs	r7, {r5, r9, sp, lr}
    66e0:	90182d2f 	andsls	r2, r8, pc, lsr #26
    66e4:	52d1df0f 	sbcspl	sp, r1, #15, 30	; 0x3c
    66e8:	6d87ee79 	stcvs	14, cr14, [r7, #484]	; 0x1e4
    66ec:	2ff1dddd 	svccs	0x00f1dddd
    66f0:	d4325acc 	ldrtle	r5, [r2], #-2764	; 0xacc
    66f4:	171d665a 			; <UNDEFINED> instruction: 0x171d665a
    66f8:	82985223 	addshi	r5, r8, #805306370	; 0x30000002
    66fc:	30c66572 	sbccc	r6, r6, r2, ror r5
    6700:	47023981 	strmi	r3, [r2, -r1, lsl #19]
    6704:	63ab00ff 			; <UNDEFINED> instruction: 0x63ab00ff
    6708:	4b77f471 	blmi	1e038d4 <ZAG+0x1df5abc>
    670c:	367dd15e 			; <UNDEFINED> instruction: 0x367dd15e
    6710:	6af2e1c2 	bvs	ffcbee20 <end+0xbfbbee20>
    6714:	91047a89 	smlabbls	r4, r9, sl, r7
    6718:	90df48a5 	sbcsls	r4, pc, r5, lsr #17
    671c:	f1bbf242 			; <UNDEFINED> instruction: 0xf1bbf242
    6720:	0c48f0df 	mcrreq	0, 13, pc, r8, cr15	; <UNPREDICTABLE>
    6724:	b871db01 	ldmdalt	r1!, {r0, r8, r9, fp, ip, lr, pc}^
    6728:	fa3c123b 	blx	f0b01c <ZAG+0xefd204>
    672c:	4ac55dc9 	bmi	ff15de58 <end+0xbf05de58>
    6730:	56d79785 	ldrbpl	r9, [r7], r5, lsl #15
    6734:	afce068e 	svcge	0x00ce068e
    6738:	b6d2c61f 			; <UNDEFINED> instruction: 0xb6d2c61f
    673c:	9f09f5af 	svcls	0x0009f5af
    6740:	3f2649bc 	svccc	0x002649bc
    6744:	9ff677ca 	svcls	0x00f677ca
    6748:	8cf5d453 	cfldrdhi	mvd13, [r5], #332	; 0x14c
    674c:	240cc2d1 	strcs	ip, [ip], #-721	; 0x2d1
    6750:	b73a5689 	ldrlt	r5, [sl, -r9, lsl #13]!
    6754:	ab94d86b 	blge	fe53c908 <end+0xbe43c908>
    6758:	0663e257 			; <UNDEFINED> instruction: 0x0663e257
    675c:	9065c83d 	rsbls	ip, r5, sp, lsr r8
    6760:	c02ab19f 	mlagt	sl, pc, r1, fp	; <UNPREDICTABLE>
    6764:	23debf11 	bicscs	fp, lr, #17, 30	; 0x44
    6768:	b87d06c8 	ldmdalt	sp!, {r3, r6, r7, r9, sl}^
    676c:	97e7eab4 			; <UNDEFINED> instruction: 0x97e7eab4
    6770:	b11a742f 	tstlt	sl, pc, lsr #8
    6774:	e41e6564 	ldr	r6, [lr], #-1380	; 0x564
    6778:	a082c01d 	addge	ip, r2, sp, lsl r0
    677c:	8fd14868 	svchi	0x00d14868
    6780:	5409a20a 	strpl	sl, [r9], #-522	; 0x20a
    6784:	a755949c 			; <UNDEFINED> instruction: 0xa755949c
    6788:	32d92906 	sbcscc	r2, r9, #98304	; 0x18000
    678c:	8ea855d0 	mcrhi	5, 5, r5, cr8, cr0, {6}
    6790:	f115ac60 			; <UNDEFINED> instruction: 0xf115ac60
    6794:	7c620892 	stclvc	8, cr0, [r2], #-584	; 0xfffffdb8
    6798:	3fb12d8e 	svccc	0x00b12d8e
    679c:	0172a2c4 	cmneq	r2, r4, asr #5
    67a0:	a98b11aa 	stmibge	fp, {r1, r3, r5, r7, r8, ip}
    67a4:	1e75c87d 	mrcne	8, 3, ip, cr5, cr13, {3}
    67a8:	e99d366c 	ldmib	sp, {r2, r3, r5, r6, r9, sl, ip, sp}
    67ac:	2eab53ba 	mcrcs	3, 5, r5, cr11, cr10, {5}
    67b0:	219bd460 	orrscs	sp, fp, r0, ror #8
    67b4:	af479a8a 	svcge	0x00479a8a
    67b8:	3431f8d9 	ldrtcc	pc, [r1], #-2265	; 0x8d9	; <UNPREDICTABLE>
    67bc:	a655c930 			; <UNDEFINED> instruction: 0xa655c930
    67c0:	f292e464 	vmls.i16	d14, d2, d4[2]
    67c4:	8155dc5a 	cmphi	r5, sl, asr ip
    67c8:	e5f1e350 	ldrb	lr, [r1, #848]!	; 0x350
    67cc:	dfef6649 	svcle	0x00ef6649
    67d0:	d9f9679b 	ldmible	r9!, {r0, r1, r3, r4, r7, r8, r9, sl, sp, lr}^
    67d4:	ea537600 	b	14e3fdc <ZAG+0x14d61c4>
    67d8:	12542671 	subsne	r2, r4, #118489088	; 0x7100000
    67dc:	21a20324 			; <UNDEFINED> instruction: 0x21a20324
    67e0:	412cc394 			; <UNDEFINED> instruction: 0x412cc394
    67e4:	dbc512d4 	blle	ff14b33c <end+0xbf04b33c>
    67e8:	77bf05dc 	sbfxvc	r0, ip, #11, #32
    67ec:	6b85a3f1 	blvs	fe16f7b8 <end+0xbe06f7b8>
    67f0:	5a9d1682 	bpl	fe74c200 <end+0xbe64c200>
    67f4:	31577c6c 	cmpcc	r7, ip, ror #24
    67f8:	03ac524d 			; <UNDEFINED> instruction: 0x03ac524d
    67fc:	c090a904 	addsgt	sl, r0, r4, lsl #18
    6800:	6528512d 	strvs	r5, [r8, #-301]!	; 0x12d
    6804:	8020134c 	eorhi	r1, r0, ip, asr #6
    6808:	e464aee2 	strbt	sl, [r4], #-3810	; 0xee2
    680c:	b8bbf8d2 	ldmlt	fp!, {r1, r4, r6, r7, fp, ip, sp, lr, pc}
    6810:	2800ff7f 	stmdacs	r0, {r0, r1, r2, r3, r4, r5, r6, r8, r9, sl, fp, ip, sp, lr, pc}
    6814:	d92fd592 	stmdble	pc!, {r1, r4, r7, r8, sl, ip, lr, pc}	; <UNPREDICTABLE>
    6818:	cf2a89cb 	svcgt	0x002a89cb
    681c:	8c52b923 	mrrchi	9, 2, fp, r2, cr3
    6820:	d51843ce 	ldrle	r4, [r8, #-974]	; 0x3ce
    6824:	46a9c07e 	sxtabmi	ip, r9, lr
    6828:	fa41103b 	blx	104a91c <ZAG+0x103cb04>
    682c:	c6f6ecec 	ldrbtgt	lr, [r6], ip, ror #25
    6830:	3453dba2 	ldrbcc	sp, [r3], #-2978	; 0xba2
    6834:	3900ffe5 	stmdbcc	r0, {r0, r2, r5, r6, r7, r8, r9, sl, fp, ip, sp, lr, pc}
    6838:	3f3b3b18 	svccc	0x003b3b18
    683c:	3dee5f7f 	stclcc	15, cr5, [lr, #508]!	; 0x1fc
    6840:	7392a913 	orrsvc	sl, r2, #311296	; 0x4c000
    6844:	396eacd4 	stmdbcc	lr!, {r2, r4, r6, r7, sl, fp, sp, pc}^
    6848:	e177eafb 	ldrsh	lr, [r7, #-171]!	; 0xffffff55
    684c:	22ce426d 	sbccs	r4, lr, #-805306362	; 0xd0000006
    6850:	5540878a 	strbpl	r8, [r0, #-1930]	; 0x78a
    6854:	5010537c 	andspl	r5, r0, ip, ror r3
    6858:	6201f082 	andvs	pc, r1, #130	; 0x82
    685c:	4342ad14 	movtmi	sl, #11540	; 0x2d14
    6860:	196c49d3 	stmdbne	ip!, {r0, r1, r4, r6, r7, r8, fp, lr}^
    6864:	d9a40b5a 	stmible	r4!, {r1, r3, r4, r6, r8, r9, fp}
    6868:	d0994b3d 	addsle	r4, r9, sp, lsr fp
    686c:	56cb9fcb 	strbpl	r9, [fp], fp, asr #31
    6870:	0fd55fc6 	svceq	0x00d55fc6
    6874:	8fc7c738 	svchi	0x00c7c738
    6878:	500ccd80 	andpl	ip, ip, r0, lsl #27
    687c:	72a315c5 	adcvc	r1, r3, #826277888	; 0x31400000
    6880:	ca206627 	bgt	820124 <ZAG+0x81230c>
    6884:	30e9f5c8 	rsccc	pc, r9, r8, asr #11
    6888:	16776893 			; <UNDEFINED> instruction: 0x16776893
    688c:	18dc0848 	ldmne	ip, {r3, r6, fp}^
    6890:	abaeb581 	blge	febb3e9c <end+0xbeab3e9c>
    6894:	5241bc52 	subpl	fp, r1, #20992	; 0x5200
    6898:	705f2335 	subsvc	r2, pc, r5, lsr r3	; <UNPREDICTABLE>
    689c:	42fcf777 	rscsmi	pc, ip, #31195136	; 0x1dc0000
    68a0:	00ff3efe 	ldrshteq	r3, [pc], #238
    68a4:	471ca96e 	ldrmi	sl, [ip, -lr, ror #18]
    68a8:	9f5cf16b 	svcls	0x005cf16b
    68ac:	8bbd5c6a 	blhi	fef5da5c <end+0xbee5da5c>
    68b0:	c4c69f3f 	strbgt	r9, [r6], #3903	; 0xf3f
    68b4:	10ba4abc 	ldrhtne	r4, [sl], ip
    68b8:	02a9aa80 	adceq	sl, r9, #128, 20	; 0x80000
    68bc:	0be23a1b 	bleq	ff895130 <end+0xbf795130>
    68c0:	c3242e34 	teqgt	r4, #52, 28	; 0x340
    68c4:	fee9f90d 	cdp2	9, 14, cr15, cr9, cr13, {0}
    68c8:	e96f38a4 	stmdb	pc!, {r2, r5, r7, fp, ip, sp}^	; <UNPREDICTABLE>
    68cc:	df1a79cf 	svcle	0x001a79cf
    68d0:	1ff9de13 	svcne	0x00f9de13
    68d4:	af1aa602 	svcge	0x001aa602
    68d8:	7c1e8f7b 	ldcvc	15, cr8, [lr], {123}	; 0x7b
    68dc:	96d71431 			; <UNDEFINED> instruction: 0x96d71431
    68e0:	dbb79ddb 	blle	fedee054 <end+0xbecee054>
    68e4:	bc3eb77d 	ldclt	7, cr11, [lr], #-500	; 0xfffffe0c
    68e8:	bfc566bb 	svclt	0x00c566bb
    68ec:	b7b31a3d 			; <UNDEFINED> instruction: 0xb7b31a3d
    68f0:	3bb5a5fd 	blcc	fed700ec <end+0xbec700ec>
    68f4:	2c149c79 	ldccs	12, cr9, [r4], {121}	; 0x79
    68f8:	f44460fe 	vst4.<illegal width 64>	{d22-d25}, [r4 :256], lr
    68fc:	5aae6709 	bpl	feba0528 <end+0xbeaa0528>
    6900:	bc255eaf 	stclt	14, cr5, [r5], #-700	; 0xfffffd44
    6904:	63ee8261 	mvnvs	r8, #268435462	; 0x10000006
    6908:	941c6a52 	ldrls	r6, [ip], #-2642	; 0xa52
    690c:	bb9667b7 	bllt	fe5a07f0 <end+0xbe4a07f0>
    6910:	94ac25ef 	strtls	r2, [ip], #1519	; 0x5ef
    6914:	24cb8cf6 	strbcs	r8, [fp], #3318	; 0xcf6
    6918:	c680c430 			; <UNDEFINED> instruction: 0xc680c430
    691c:	110149c6 	smlabtne	r1, r6, r9, r4
    6920:	243240c4 	ldrtcs	r4, [r2], #-196	; 0xc4
    6924:	890c0064 	stmdbhi	ip, {r2, r5, r6}
    6928:	1ee7f421 	cdpne	4, 14, cr15, cr7, cr1, {1}
    692c:	a0fd8fdb 	ldrsbtge	r8, [sp], #251	; 0xfb
    6930:	9664a310 			; <UNDEFINED> instruction: 0x9664a310
    6934:	c39041f4 	orrsgt	r4, r0, #244, 2	; 0x3d
    6938:	01eeb152 	mvneq	fp, r2, asr r1
    693c:	fa6f808c 	blx	1be6b74 <ZAG+0x1bd8d5c>
    6940:	e751bbc3 	ldrb	fp, [r1, -r3, asr #23]
    6944:	87e3d0ea 	strbhi	sp, [r3, sl, ror #1]!
    6948:	7b4c4d1f 	blvc	1319dcc <ZAG+0x130bfb4>
    694c:	94d58f9c 	ldrbls	r8, [r5], #3996	; 0xf9c
    6950:	1e2b3582 	cfsh64ne	mvdx3, mvdx11, #-62
    6954:	551634e0 	ldrpl	r3, [r6, #-1248]	; 0x4e0
    6958:	d4c3fa6f 	strble	pc, [r3], #2671	; 0xa6f	; <UNPREDICTABLE>
    695c:	ddf6285d 	ldclle	8, cr2, [r6, #372]!	; 0x174
    6960:	a4755dd4 	ldrbtge	r5, [r5], #-3540	; 0xdd4
    6964:	670deba8 	strvs	lr, [sp, -r8, lsr #23]
    6968:	c594a39f 	ldrgt	sl, [r4, #927]	; 0x39f
    696c:	c9d469e4 	ldmibgt	r4, {r2, r5, r6, r7, r8, fp, sp, lr}^
    6970:	6c63ebe2 	stclvs	11, cr14, [r3], #-904	; 0xfffffc78
    6974:	55b80dcd 	ldrpl	r0, [r8, #3533]!	; 0xdcd
    6978:	187087d5 	ldmdane	r0!, {r0, r2, r4, r6, r7, r8, r9, sl, pc}^
    697c:	2ca46a44 	vstmiacs	r4!, {s12-s79}
    6980:	59aa8eec 	stmibpl	sl!, {r2, r3, r5, r6, r7, r9, sl, fp, pc}
    6984:	881b2ab7 	ldmdahi	fp, {r0, r1, r2, r4, r5, r7, r9, fp, sp}
    6988:	fd5f9c00 	ldc2l	12, cr9, [pc, #-0]	; 6990 <jpegdata+0x45e0>
    698c:	468d4e6d 	strmi	r4, [sp], sp, ror #28
    6990:	a91500ff 	ldmdbge	r5, {r0, r1, r2, r3, r4, r5, r6, r7}
    6994:	c62c7a20 	strtgt	r7, [ip], -r0, lsr #20
    6998:	6805ab92 	stmdavs	r5, {r1, r4, r7, r8, r9, fp, sp, pc}
    699c:	96638405 	strbtls	r8, [r3], -r5, lsl #8
    69a0:	d4612551 	strbtle	r2, [r1], #-1361	; 0x551
    69a4:	02c5ac92 	sbceq	sl, r5, #37376	; 0x9200
    69a8:	f35d0a36 	vpmin.u16	d16, d13, d22
    69ac:	eedae574 	mrc	5, 6, lr, cr10, cr4, {3}
    69b0:	07a74b85 	streq	r4, [r7, r5, lsl #23]!
    69b4:	5b9c29c1 	blpl	fe7110c0 <end+0xbe6110c0>
    69b8:	86e63ac4 	strbthi	r3, [r6], r4, asr #21
    69bc:	42646c9b 	rsbmi	r6, r4, #39680	; 0x9b00
    69c0:	55170054 	ldrpl	r0, [r7, #-84]	; 0x54
    69c4:	550c986c 	strpl	r9, [ip, #-2156]	; 0x86c
    69c8:	f451a35c 			; <UNDEFINED> instruction: 0xf451a35c
    69cc:	f6a83983 			; <UNDEFINED> instruction: 0xf6a83983
    69d0:	556a76ab 	strbpl	r7, [sl, #-1707]!	; 0x6ab
    69d4:	a9849c28 	stmibge	r4, {r3, r5, sl, fp, ip, pc}
    69d8:	cd538c66 	ldclgt	12, cr8, [r3, #-408]	; 0xfffffe68
    69dc:	a5d5a0f7 	ldrbge	sl, [r5, #247]	; 0xf7
    69e0:	c5edc688 	strbgt	ip, [sp, #1672]!	; 0x688
    69e4:	5677394b 	ldrbtpl	r3, [r7], -fp, asr #18
    69e8:	b00b65db 	ldrdlt	r6, [fp], -fp
    69ec:	3103c5f2 	strdcc	ip, [r3, -r2]
    69f0:	520eee74 	andpl	lr, lr, #116, 28	; 0x740
    69f4:	663485ee 	ldrtvs	r8, [r4], -lr, ror #11
    69f8:	139456a7 	orrsne	r5, r4, #175112192	; 0xa700000
    69fc:	607ec998 			; <UNDEFINED> instruction: 0x607ec998
    6a00:	92421656 	subls	r1, r2, #90177536	; 0x5600000
    6a04:	4b1218a8 	blmi	48ccac <ZAG+0x47ee94>
    6a08:	56097029 	strpl	r7, [r9], -r9, lsr #32
    6a0c:	60712155 	rsbsvs	r2, r1, r5, asr r1
    6a10:	dd8af5a3 	cfstr32le	mvfx15, [sl, #652]	; 0x28c
    6a14:	e6b0512b 	ldrt	r5, [r0], fp, lsr #2
    6a18:	687a5429 	ldmdavs	sl!, {r0, r3, r5, sl, ip, lr}^
    6a1c:	10622d2a 	rsbne	r2, r2, sl, lsr #26
    6a20:	0ccda853 	stcleq	8, cr10, [sp], {83}	; 0x53
    6a24:	523ea58a 	eorspl	sl, lr, #578813952	; 0x22800000
    6a28:	4d9507a2 	ldcmi	7, cr0, [r5, #648]	; 0x288
    6a2c:	55c599af 	strbpl	r9, [r5, #2479]	; 0x9af
    6a30:	25660602 	strbcs	r0, [r6, #-1538]!	; 0x602
    6a34:	c95c802e 	ldmdbgt	ip, {r1, r2, r3, r5, pc}^
    6a38:	540e033d 	strpl	r0, [lr], #-829	; 0x33d
    6a3c:	c8f509b4 	ldmgt	r5!, {r2, r4, r5, r7, r8, fp}^
    6a40:	6ddd3550 	cfldr64vs	mvdx3, [sp, #320]	; 0x140
    6a44:	fd6eab2b 	stc2l	11, cr10, [lr, #-172]!	; 0xffffff54
    6a48:	a87c0eb7 	ldmdage	ip!, {r0, r1, r2, r4, r5, r7, r9, sl, fp}^
    6a4c:	05657004 	strbeq	r7, [r5, #-4]!
    6a50:	3bf2df81 	blcc	ffcbe85c <end+0xbfbbe85c>
    6a54:	7fe5226d 	svcvc	0x00e5226d
    6a58:	6b3bf952 	blvs	f04fa8 <ZAG+0xef7190>
    6a5c:	a5d9eefb 	ldrbge	lr, [r9, #3835]	; 0xefb
    6a60:	a5a8054f 	strge	r0, [r8, #1359]!	; 0x54f
    6a64:	b51aaaad 	ldrlt	sl, [sl, #-2733]	; 0xaad
    6a68:	93217d0b 	teqls	r1, #704	; 0x2c0
    6a6c:	21a984f8 	strdcs	r8, [r9, r8]!	; <UNPREDICTABLE>
    6a70:	c6976d88 	ldrgt	r6, [r7], r8, lsl #27
    6a74:	de85129b 	mcrle	2, 4, r1, cr5, cr11, {4}
    6a78:	5abc419a 	bpl	fef170e8 <end+0xbee170e8>
    6a7c:	de5aa2fe 	mrcle	2, 2, sl, cr10, cr14, {7}
    6a80:	b79dc3f1 			; <UNDEFINED> instruction: 0xb79dc3f1
    6a84:	152b24b7 	strne	r2, [fp, #-1207]!	; 0x4b7
    6a88:	53722164 	cmnpl	r2, #100, 2
    6a8c:	8b2ea19a 	blhi	baf0fc <ZAG+0xba12e4>
    6a90:	9c4c9438 	cfstrdls	mvd9, [ip], {56}	; 0x38
    6a94:	947786a2 	ldrbtls	r8, [r7], #-1698	; 0x6a2
    6a98:	f539890b 			; <UNDEFINED> instruction: 0xf539890b
    6a9c:	9374c3d9 	cmnls	r4, #1677721603	; 0x64000003
    6aa0:	52c7744f 	sbcpl	r7, r7, #1325400064	; 0x4f000000
    6aa4:	9ce8c87c 	stclls	8, cr12, [r8], #496	; 0x1f0
    6aa8:	92637c9c 	rsbls	r7, r3, #156, 24	; 0x9c00
    6aac:	9ac5b9a9 	bls	ff175158 <end+0xbf075158>
    6ab0:	fcf21739 	ldc2l	7, cr1, [r2], #228	; 0xe4
    6ab4:	46e07eb8 			; <UNDEFINED> instruction: 0x46e07eb8
    6ab8:	8b1d2fe0 	blhi	752a40 <ZAG+0x744c28>
    6abc:	387d7912 	ldmdacc	sp!, {r1, r4, r8, fp, ip, sp, lr}^
    6ac0:	4b5bb84e 	blmi	16f4c00 <ZAG+0x16e6de8>
    6ac4:	243ed4af 	ldrtcs	sp, [lr], #-1199	; 0x4af
    6ac8:	1afeefb7 	bne	fffc29ac <end+0xbfec29ac>
    6acc:	555d5988 	ldrbpl	r5, [sp, #-2440]	; 0x988
    6ad0:	816df149 	msrhi	SPSR_fsc, r9, asr #2
    6ad4:	098a00ff 	stmibeq	sl, {r0, r1, r2, r3, r4, r5, r6, r7}
    6ad8:	c1251a56 	teqgt	r5, r6, asr sl
    6adc:	8708a4c8 	strhi	sl, [r8, -r8, asr #9]
    6ae0:	e94e916a 	stmdb	lr, {r1, r3, r5, r6, r8, ip, pc}^
    6ae4:	fcd8e3ee 	ldc2l	3, cr14, [r8], {238}	; 0xee
    6ae8:	00ff5b8b 	rscseq	r5, pc, fp, lsl #23
    6aec:	ab948a87 	blge	fe529510 <end+0xbe429510>
    6af0:	410ea805 	tstmi	lr, r5, lsl #16
    6af4:	90c8ba54 	sbcls	fp, r8, r4, asr sl
    6af8:	c8a8223e 	stmiagt	r8!, {r1, r2, r3, r4, r5, r9, sp}
    6afc:	c0692149 	rsbgt	r2, r9, r9, asr #2
    6b00:	56fa5051 	usatpl	r5, #26, r1, asr #0
    6b04:	49f74754 	ldmibmi	r7!, {r2, r4, r6, r8, r9, sl, lr}^
    6b08:	f16613f5 			; <UNDEFINED> instruction: 0xf16613f5
    6b0c:	11742197 			; <UNDEFINED> instruction: 0x11742197
    6b10:	7739afd8 			; <UNDEFINED> instruction: 0x7739afd8
    6b14:	8d46bf2a 	stclhi	15, cr11, [r6, #-168]	; 0xffffff58
    6b18:	f3c076cb 	vmlsl.u<illegal width 8>	<illegal reg q11.5>, d16, d3[2]
    6b1c:	021460b8 	andseq	r6, r4, #184	; 0xb8
    6b20:	4682047f 	sxtab16mi	r0, r2, pc, ror #8	; <UNPREDICTABLE>
    6b24:	975cb6dc 	smmlsls	ip, ip, r6, fp
    6b28:	4e3ba45d 	mrcmi	4, 1, sl, cr11, cr13, {2}
    6b2c:	6b142a9d 	blvs	5115a8 <ZAG+0x503790>
    6b30:	9224af66 	eorls	sl, r4, #408	; 0x198
    6b34:	1800c820 	stmdane	r0, {r5, fp, lr, pc}
    6b38:	2398d003 	orrscs	sp, r8, #3
    6b3c:	ff41626c 			; <UNDEFINED> instruction: 0xff41626c
    6b40:	5ca0ab00 	vstmiapl	r0!, {d10-d9}
    6b44:	00ff7877 	rscseq	r7, pc, r7, ror r8	; <UNPREDICTABLE>
    6b48:	add57bf5 	vldrge	d23, [r5, #980]	; 0x3d4
    6b4c:	d4c68f52 	strble	r8, [r6], #3922	; 0xf52
    6b50:	880c00e0 	stmdahi	ip, {r5, r6, r7}
    6b54:	36269124 	strtcc	r9, [r6], -r4, lsr #2
    6b58:	f6a1837d 			; <UNDEFINED> instruction: 0xf6a1837d
    6b5c:	c6d6913f 			; <UNDEFINED> instruction: 0xc6d6913f
    6b60:	f3f4d3bd 	vrsra.u64	d29, d29, #12
    6b64:	862b23da 			; <UNDEFINED> instruction: 0x862b23da
    6b68:	462b2b9e 			; <UNDEFINED> instruction: 0x462b2b9e
    6b6c:	a3040de4 	movwge	r0, #19940	; 0x4de4
    6b70:	4482311f 	strmi	r3, [r2], #287	; 0x11f
    6b74:	c390fc46 	orrsgt	pc, r0, #17920	; 0x4600
    6b78:	2000fff8 	strdcs	pc, [r0], -r8
    6b7c:	c0900f82 	addsgt	r0, r0, r2, lsl #31
    6b80:	0ad023a9 	beq	ff40fa2c <end+0xbf30fa2c>
    6b84:	a08387d7 	ldrdge	r8, [r3], r7
    6b88:	86686d2e 	strbthi	r6, [r8], -lr, lsr #26
    6b8c:	0020cec0 	eoreq	ip, r0, r0, asr #29
    6b90:	b77ff606 	ldrblt	pc, [pc, -r6, lsl #12]!	; <UNPREDICTABLE>
    6b94:	fa7e42df 	blx	1f97718 <ZAG+0x1f89900>
    6b98:	aded1af6 	stclge	10, cr1, [sp, #984]!	; 0x3d8
    6b9c:	2ec500ff 	mcrcs	0, 6, r0, cr5, cr15, {7}
    6ba0:	60f52a3e 	rscsvs	r2, r5, lr, lsr sl
    6ba4:	27c9dcb7 			; <UNDEFINED> instruction: 0x27c9dcb7
    6ba8:	f7bf3ff0 			; <UNDEFINED> instruction: 0xf7bf3ff0
    6bac:	05f8f123 	ldrbeq	pc, [r8, #291]!	; 0x123	; <UNPREDICTABLE>
    6bb0:	8736dd1a 			; <UNDEFINED> instruction: 0x8736dd1a
    6bb4:	36ce4a15 			; <UNDEFINED> instruction: 0x36ce4a15
    6bb8:	c284f3a5 	addgt	pc, r4, #-1811939326	; 0x94000002
    6bbc:	57d21134 			; <UNDEFINED> instruction: 0x57d21134
    6bc0:	5992c48c 	ldmibpl	r2, {r2, r3, r7, sl, lr, pc}
    6bc4:	9b3cfc54 	blls	f45d1c <ZAG+0xf37f04>
    6bc8:	be8cbc01 	cdplt	12, 8, cr11, cr12, cr1, {0}
    6bcc:	e403bc1d 	str	fp, [r3], #-3101	; 0xc1d
    6bd0:	b2feb601 	rscslt	fp, lr, #1048576	; 0x100000
    6bd4:	0fbffc71 	svceq	0x00bffc71
    6bd8:	9bd3ea46 	blls	ff5014f8 <end+0xbf4014f8>
    6bdc:	5eeb2de2 	cdppl	13, 14, cr2, cr11, cr2, {7}
    6be0:	43b5ab5e 			; <UNDEFINED> instruction: 0x43b5ab5e
    6be4:	710ac34c 	tstvc	sl, ip, asr #6
    6be8:	870a2313 	smladhi	sl, r3, r3, r2
    6bec:	c834881c 	ldmdagt	r4!, {r2, r3, r4, fp, pc}
    6bf0:	d62c2792 			; <UNDEFINED> instruction: 0xd62c2792
    6bf4:	179a8ea2 	ldrne	r8, [sl, r2, lsr #29]
    6bf8:	caaafbb8 	bgt	feac5ae0 <end+0xbe9c5ae0>
    6bfc:	aae6d1bb 	bge	ff9bb2f0 <end+0xbf8bb2f0>
    6c00:	a5b6505a 	ldrge	r5, [r6, #90]!	; 0x5a
    6c04:	5a5d55aa 	bpl	175c2b4 <ZAG+0x174e49c>
    6c08:	aae2211b 	bge	ff88f07c <end+0xbf78f07c>
    6c0c:	b84a6a05 	stmdalt	sl, {r0, r2, r9, fp, sp, lr}^
    6c10:	0aa82485 	beq	fea0fe2c <end+0xbe90fe2c>
    6c14:	148a8715 	strne	r8, [sl], #1813	; 0x715
    6c18:	e1680932 	cmn	r8, r2, lsr r9
    6c1c:	8c56b760 	mrrchi	7, 6, fp, r6, cr0
    6c20:	af773236 	svcge	0x00773236
    6c24:	612d4bfc 	strdvs	r4, [sp, -ip]!
    6c28:	991197ad 	ldmdbls	r1, {r0, r2, r3, r5, r7, r8, r9, sl, ip, pc}
    6c2c:	4603f7cb 	strmi	pc, [r3], -fp, asr #15
    6c30:	0e005524 	cfsh32eq	mvfx5, mvfx0, #20
    6c34:	9b803a32 	blls	fe015504 <end+0xbdf15504>
    6c38:	77f08532 			; <UNDEFINED> instruction: 0x77f08532
    6c3c:	0b2b7d52 	bleq	ae618c <ZAG+0xad8374>
    6c40:	b98943ae 	stmiblt	r9, {r1, r2, r3, r5, r7, r8, r9, lr}
    6c44:	1907e5bc 	stmdbne	r7, {r2, r3, r4, r5, r7, r8, sl, sp, lr, pc}
    6c48:	a23a2849 	eorsge	r2, sl, #4784128	; 0x490000
    6c4c:	f1831635 			; <UNDEFINED> instruction: 0xf1831635
    6c50:	4c6d7aa0 	stclmi	10, cr7, [sp], #-640	; 0xfffffd80
    6c54:	4c853cb5 	stcmi	12, cr3, [r5], {181}	; 0xb5
    6c58:	b584a6b2 	strlt	sl, [r4, #1714]	; 0x6b2
    6c5c:	49aa6554 	stmibmi	sl!, {r2, r4, r6, r8, sl, sp, lr}
    6c60:	040f5767 	streq	r5, [pc], #-1895	; 6c68 <jpegdata+0x48b8>
    6c64:	59719ff5 	ldmdbpl	r1!, {r0, r2, r4, r5, r6, r7, r8, r9, sl, fp, ip, pc}^
    6c68:	a5b495dc 	ldrge	r9, [r4, #1500]!	; 0x5dc
    6c6c:	40ad1e70 	adcmi	r1, sp, r0, ror lr
    6c70:	7ca3ba42 	vstmiavc	r3!, {s22-s87}
    6c74:	f849c06c 			; <UNDEFINED> instruction: 0xf849c06c
    6c78:	18db74db 	ldmne	fp, {r0, r1, r3, r4, r6, r7, sl, ip, sp, lr}^
    6c7c:	91a3223e 			; <UNDEFINED> instruction: 0x91a3223e
    6c80:	0c490c89 	mcrreq	12, 8, r0, r9, cr9
    6c84:	85b3db7a 	ldrhi	sp, [r3, #2938]!	; 0xb7a
    6c88:	e3cd5dc4 	bic	r5, sp, #196, 26	; 0x3100
    6c8c:	5eceba6e 	cdppl	10, 12, cr11, cr14, cr14, {3}
    6c90:	9224bbab 	eorls	fp, r4, #175104	; 0x2ac00
    6c94:	877b98bf 			; <UNDEFINED> instruction: 0x877b98bf
    6c98:	b0e35567 	rsclt	r5, r3, r7, ror #10
    6c9c:	39601760 	stmdbcc	r0!, {r5, r6, r8, r9, sl, ip}^
    6ca0:	dc797c02 	ldclle	12, cr7, [r9], #-8
    6ca4:	00ff2af9 	ldrshteq	r2, [pc], #169
    6ca8:	3a95e2e3 	bcc	fe57f83c <end+0xbe47f83c>
    6cac:	d08475dc 	ldrdle	r7, [r4], ip
    6cb0:	8514bab4 	ldrhi	fp, [r4, #-2740]	; 0xab4
    6cb4:	69d28064 	ldmibvs	r2, {r2, r5, r6, pc}^
    6cb8:	64330499 	ldrtvs	r0, [r3], #-1177	; 0x499
    6cbc:	22da72e3 	sbcscs	r7, sl, #805306382	; 0x3000000e
    6cc0:	58889158 	stmpl	r8, {r3, r4, r6, r8, ip, pc}
    6cc4:	df9b6a50 	svcle	0x009b6a50
    6cc8:	aea8b652 	mcrge	6, 5, fp, cr8, cr2, {2}
    6ccc:	1aed9f55 	bne	ffb6ea28 <end+0xbfa6ea28>
    6cd0:	7da606ca 	stcvc	6, cr0, [r6, #808]!	; 0x328
    6cd4:	03c17d12 	biceq	r7, r1, #1152	; 0x480
    6cd8:	ad76d0f1 	ldclge	0, cr13, [r6, #-964]!	; 0xfffffc3c
    6cdc:	5017eee9 	andspl	lr, r7, r9, ror #29
    6ce0:	17498be7 	strbne	r8, [r9, -r7, ror #23]
    6ce4:	bb32b20b 	bllt	cb3518 <ZAG+0xca5700>
    6ce8:	0937eedb 	ldmdbeq	r7!, {r0, r1, r3, r4, r6, r7, r9, sl, fp, sp, lr, pc}
    6cec:	2a1e27d4 	bcs	790c44 <ZAG+0x782e2c>
    6cf0:	6cdc81a5 	ldfvsp	f0, [ip], {165}	; 0xa5
    6cf4:	ed07ecbb 	stc	12, cr14, [r7, #-748]	; 0xfffffd14
    6cf8:	6c3e7fdf 	ldcvs	15, cr7, [lr], #-892	; 0xfffffc84
    6cfc:	81fa9b1d 	mvnshi	r9, sp, lsl fp
    6d00:	0c7ff6cd 	ldcleq	6, cr15, [pc], #-820	; 69d4 <jpegdata+0x4624>
    6d04:	dcc2955a 	cfstr64le	mvdx9, [r2], {90}	; 0x5a
    6d08:	560553da 			; <UNDEFINED> instruction: 0x560553da
    6d0c:	9b062992 	blls	19135c <ZAG+0x183544>
    6d10:	bbd94035 	bllt	ff656dec <end+0xbf556dec>
    6d14:	99aa409a 	stmibls	sl!, {r1, r3, r4, r7, lr}
    6d18:	8399a560 	orrshi	sl, r9, #96, 10	; 0x18000000
    6d1c:	c5a36233 	strgt	r6, [r3, #563]!	; 0x233
    6d20:	5c722b8a 	ldclpl	11, cr2, [r2], #-552	; 0xfffffdd8
    6d24:	ba5e2be7 	blt	1791cc8 <ZAG+0x1783eb0>
    6d28:	fe7b9cf0 	mrc2	12, 3, r9, cr11, cr0, {7}
    6d2c:	546cabd2 	strbtpl	sl, [ip], #-3026	; 0xbd2
    6d30:	15d8b4a8 	ldrbne	fp, [r8, #1192]	; 0x4a8
    6d34:	2e299200 	cdpcs	2, 2, cr9, cr9, cr0, {0}
    6d38:	03903767 	orrseq	r3, r0, #27000832	; 0x19c0000
    6d3c:	96102102 	ldrls	r2, [r0], -r2, lsl #2
    6d40:	bb3c4d30 	bllt	f1a208 <ZAG+0xf0c3f0>
    6d44:	382cec79 	stmdacc	ip!, {r0, r3, r4, r5, r6, sl, fp, sp, lr, pc}
    6d48:	946221ed 	strbtls	r2, [r2], #-493	; 0x1ed
    6d4c:	6428d215 	strtvs	sp, [r8], #-533	; 0x215
    6d50:	a1345820 	teqge	r4, r0, lsr #16
    6d54:	4002abec 	andmi	sl, r2, ip, ror #23
    6d58:	c711b825 	ldrgt	fp, [r1, -r5, lsr #16]
    6d5c:	fe49957d 	mcr2	5, 2, r9, cr9, cr13, {3}
    6d60:	3e6fdb77 	vmovcc.8	d15[7], sp
    6d64:	25477605 	strbcs	r7, [r7, #-1541]	; 0x605
    6d68:	d93bb953 	ldmdble	fp!, {r0, r1, r4, r6, r8, fp, ip, sp, pc}
    6d6c:	67862b39 			; <UNDEFINED> instruction: 0x67862b39
    6d70:	989a95f8 	ldmls	sl, {r3, r4, r5, r6, r7, r8, sl, ip, pc}
    6d74:	29d554ad 	ldmibcs	r5, {r0, r2, r3, r5, r7, sl, ip, lr}^
    6d78:	5153481f 	cmppl	r3, pc, lsl r8
    6d7c:	8b596c49 	blhi	1661ea8 <ZAG+0x1654090>
    6d80:	f52bf120 			; <UNDEFINED> instruction: 0xf52bf120
    6d84:	4b4e59e4 	blmi	139d51c <ZAG+0x138f704>
    6d88:	73ceebbd 	bicvc	lr, lr, #193536	; 0x2f400
    6d8c:	69dbb15d 	ldmibvs	fp, {r0, r2, r3, r4, r6, r8, ip, sp, pc}^
    6d90:	dc199772 	ldcle	7, cr9, [r9], {114}	; 0x72
    6d94:	05355586 	ldreq	r5, [r5, #-1414]!	; 0x586
    6d98:	92d90731 	sbcsls	r0, r9, #12845056	; 0xc40000
    6d9c:	20a9ccac 	adccs	ip, r9, ip, lsr #25
    6da0:	23c33041 	biccs	r3, r3, #65	; 0x41
    6da4:	2990ab0a 	ldmibcs	r0, {r1, r3, r8, r9, fp, sp, pc}
    6da8:	2c69c7dc 	stclcs	7, cr12, [r9], #-880	; 0xfffffc90
    6dac:	5dc1a736 	stclpl	7, cr10, [r1, #216]	; 0xd8
    6db0:	a7d0b3d3 			; <UNDEFINED> instruction: 0xa7d0b3d3
    6db4:	61cd0f5b 	bicvs	r0, sp, fp, asr pc
    6db8:	e3dc645c 	bics	r6, ip, #92, 8	; 0x5c000000
    6dbc:	2629a6e6 	strtcs	sl, [r9], -r6, ror #13
    6dc0:	e27298dd 	rsbs	r9, r2, #14483456	; 0xdd0000
    6dc4:	fc36d059 	ldc2	0, cr13, [r6], #-356	; 0xfffffe9c
    6dc8:	f6cf2e8b 			; <UNDEFINED> instruction: 0xf6cf2e8b
    6dcc:	358bc52f 	strcc	ip, [fp, #1327]	; 0x52f
    6dd0:	adc70bdf 	vstrge	d16, [r7, #892]	; 0x37c
    6dd4:	1b4d77e3 	blne	1364d68 <ZAG+0x1356f50>
    6dd8:	cd51a9a7 	ldclgt	9, cr10, [r1, #-668]	; 0xfffffd64
    6ddc:	a9a4865a 	stmibge	r4!, {r1, r3, r4, r6, r9, sl, pc}
    6de0:	c1e41ba6 	mvngt	r1, r6, lsr #23
    6de4:	2ce30388 	stclcs	3, cr0, [r3], #544	; 0x220
    6de8:	55f491a9 	ldrbpl	r9, [r4, #425]!	; 0x1a9
    6dec:	863fc61f 			; <UNDEFINED> instruction: 0x863fc61f
    6df0:	ded10458 	mrcle	4, 6, r0, cr1, cr8, {2}
    6df4:	57cbc3bd 			; <UNDEFINED> instruction: 0x57cbc3bd
    6df8:	a6913b7e 			; <UNDEFINED> instruction: 0xa6913b7e
    6dfc:	ae6952ab 	cdpge	2, 6, cr5, cr9, cr11, {5}
    6e00:	60545825 	subsvs	r5, r4, r5, lsr #16
    6e04:	cf009769 	svcgt	0x00009769
    6e08:	285c88c8 	ldmdacs	ip, {r3, r6, r7, fp, pc}^
    6e0c:	d7348981 	ldrle	r8, [r4, -r1, lsl #19]!
    6e10:	0fe11025 	svceq	0x00e11025
    6e14:	86f45a5d 	usathi	r5, #20, sp, asr #20
    6e18:	0557a984 	ldrbeq	sl, [r7, #-2436]	; 0x984
    6e1c:	036bb1a6 	cmneq	fp, #-2147483607	; 0x80000029
    6e20:	989de254 	ldmls	sp, {r2, r4, r6, r9, sp, lr, pc}
    6e24:	6d3cb3eb 	ldcvs	3, cr11, [ip, #-940]!	; 0xfffffc54
    6e28:	bccc2ab0 	vstmialt	ip, {s5-s180}
    6e2c:	076f6676 			; <UNDEFINED> instruction: 0x076f6676
    6e30:	1d244972 	stcne	9, cr4, [r4, #-456]!	; 0xfffffe38
    6e34:	e158f9c7 	cmp	r8, r7, asr #19
    6e38:	9fd75e3b 	svcls	0x00d75e3b
    6e3c:	dd35fead 	ldcle	14, cr15, [r5, #-692]!	; 0xfffffd4c
    6e40:	991ffeb5 	ldmdbls	pc, {r0, r2, r4, r5, r7, r9, sl, fp, ip, sp, lr, pc}	; <UNPREDICTABLE>
    6e44:	c16c0a9b 			; <UNDEFINED> instruction: 0xc16c0a9b
    6e48:	81860133 	orrhi	r0, r6, r3, lsr r1
    6e4c:	6d142e67 	ldcvs	14, cr2, [r4, #-412]	; 0xfffffe64
    6e50:	15c08030 	strbne	r8, [r0, #48]	; 0x30
    6e54:	77ebfb2a 	strbvc	pc, [fp, sl, lsr #22]!	; <UNPREDICTABLE>
    6e58:	90bf3bba 	ldrhtls	r3, [pc], sl
    6e5c:	179e69e3 	ldrne	r6, [lr, r3, ror #19]
    6e60:	869ba8b6 			; <UNDEFINED> instruction: 0x869ba8b6
    6e64:	403d80a4 	eorsmi	r8, sp, r4, lsr #1
    6e68:	a464f8ac 	strbtge	pc, [r4], #-2220	; 0x8ac	; <UNPREDICTABLE>
    6e6c:	32810ac9 	addcc	r0, r1, #823296	; 0xc9000
    6e70:	4a609833 	bmi	182cf44 <ZAG+0x181f12c>
    6e74:	46a740ce 	strtmi	r4, [r7], lr, asr #1
    6e78:	3c793194 	ldfcce	f3, [r9], #-592	; 0xfffffdb0
    6e7c:	e29ee44d 	adds	lr, lr, #1291845632	; 0x4d000000
    6e80:	bb90bdda 	bllt	fe4365f0 <end+0xbe3365f0>
    6e84:	d39b9c39 	orrsle	r9, fp, #14592	; 0x3900
    6e88:	dfca4299 	svcle	0x00ca4299
    6e8c:	dcec9162 	stflep	f1, [ip], #392	; 0x188
    6e90:	d9295455 	stmdble	r9!, {r0, r2, r4, r6, sl, ip, lr}
    6e94:	2400ca06 	strcs	ip, [r0], #-2566	; 0xa06
    6e98:	50b0832a 	adcspl	r8, r0, sl, lsr #6
    6e9c:	2f2aede6 	svccs	0x002aede6
    6ea0:	7671f22f 	ldrbtvc	pc, [r1], -pc, lsr #4	; <UNPREDICTABLE>
    6ea4:	a0302500 	eorsge	r2, r0, r0, lsl #10
    6ea8:	88c15615 	stmiahi	r1, {r0, r2, r4, r9, sl, ip, lr}^
    6eac:	314cf968 	cmpcc	ip, r8, ror #18
    6eb0:	ac1023c3 	ldcge	3, cr2, [r0], {195}	; 0xc3
    6eb4:	d21017c6 	andsle	r1, r0, #51904512	; 0x3180000
    6eb8:	11bfd377 			; <UNDEFINED> instruction: 0x11bfd377
    6ebc:	4a881f7c 	bmi	fe20ecb4 <end+0xbe10ecb4>
    6ec0:	0ee0ad5c 	mcreq	13, 7, sl, cr0, cr12, {2}
    6ec4:	2b2922d2 	blcs	a4fa14 <ZAG+0xa41bfc>
    6ec8:	7efc8c01 	cdpvc	12, 15, cr8, cr12, cr1, {0}
    6ecc:	05a3a228 	streq	sl, [r3, #552]!	; 0x228
    6ed0:	c905aa9c 	stmdbgt	r5, {r2, r3, r4, r7, r9, fp, sp, pc}
    6ed4:	680c12d8 	stmdavs	ip, {r3, r4, r6, r7, r9, ip}
    6ed8:	36faf276 			; <UNDEFINED> instruction: 0x36faf276
    6edc:	e462ca8d 	strbt	ip, [r2], #-2701	; 0xa8d
    6ee0:	3cf83194 	ldfcce	f3, [r8], #592	; 0x250
    6ee4:	f3e5c9af 			; <UNDEFINED> instruction: 0xf3e5c9af
    6ee8:	c54c9c16 	strbgt	r9, [ip, #-3094]	; 0xc16
    6eec:	a4ce929c 	strbge	r9, [lr], #668	; 0x29c
    6ef0:	2db72430 	cfldrscs	mvf2, [r7, #192]!	; 0xc0
    6ef4:	543eb1d8 	ldrtpl	fp, [lr], #-472	; 0x1d8
    6ef8:	bd01b79d 	stclt	7, cr11, [r1, #-628]	; 0xfffffd8c
    6efc:	54365234 	ldrtpl	r5, [r6], #-564	; 0x234
    6f00:	b8e3d2ad 	stmialt	r3!, {r0, r2, r3, r5, r7, r9, ip, lr, pc}^
    6f04:	01ce0629 	biceq	r0, lr, r9, lsr #12
    6f08:	39006c45 	stmdbcc	r0, {r0, r2, r6, sl, fp, sp, lr}
    6f0c:	cf862510 	svcgt	0x00862510
    6f10:	8801918f 	stmdahi	r1, {r0, r1, r2, r3, r7, r8, ip, pc}
    6f14:	7a99fd8d 	bvc	fe686550 <end+0xbe586550>
    6f18:	73c87313 	bicvc	r7, r8, #1275068416	; 0x4c000000
    6f1c:	87253f77 			; <UNDEFINED> instruction: 0x87253f77
    6f20:	aae87807 	bge	ffa24f44 <end+0xbf924f44>
    6f24:	52033304 	andpl	r3, r3, #4, 6	; 0x10000000
    6f28:	044c5551 	strbeq	r5, [ip], #-1361	; 0x551
    6f2c:	60041127 	andvs	r1, r4, r7, lsr #2
    6f30:	58fba0b2 	ldmpl	fp!, {r1, r4, r5, r7, sp, pc}^
    6f34:	2c5d0f82 	mrrccs	15, 8, r0, sp, cr2
    6f38:	632c1935 	teqvs	ip, #868352	; 0xd4000
    6f3c:	14e2460e 	strbtne	r4, [r2], #1550	; 0x60e
    6f40:	9e14bb8a 	vnmlsls.f64	d11, d20, d10
    6f44:	9d1d8c10 	ldcls	12, cr8, [sp, #-64]	; 0xffffffc0
    6f48:	fb2e327c 	blx	b93942 <ZAG+0xb85b2a>
    6f4c:	77ddf603 	ldrbvc	pc, [sp, r3, lsl #12]	; <UNPREDICTABLE>
    6f50:	f3f76ddf 			; <UNDEFINED> instruction: 0xf3f76ddf
    6f54:	d765d2e3 	strble	sp, [r5, -r3, ror #5]!
    6f58:	e185ad6a 	orr	sl, r5, sl, ror #26
    6f5c:	2de172ad 	sfmcs	f7, 2, [r1, #692]!	; 0x2b4
    6f60:	252d9532 	strcs	r9, [sp, #-1330]!	; 0x532
    6f64:	0b7c328d 	bleq	1f139a0 <ZAG+0x1f05b88>
    6f68:	ca52092a 	bgt	1489418 <ZAG+0x147b600>
    6f6c:	c4158244 	ldrgt	r8, [r5], #-580	; 0x244
    6f70:	a34303ce 	movtge	r0, #13262	; 0x33ce
    6f74:	d7d05d36 			; <UNDEFINED> instruction: 0xd7d05d36
    6f78:	532841f6 	teqpl	r8, #-2147483587	; 0x8000003d
    6f7c:	0c89752f 	cfstr32eq	mvfx7, [r9], {47}	; 0x2f
    6f80:	aaa20014 	bge	fe886fd8 <end+0xbe786fd8>
    6f84:	e752358f 	ldrb	r3, [r2, -pc, lsl #11]
    6f88:	80c00a16 	sbchi	r0, r0, r6, lsl sl
    6f8c:	19316441 	ldmdbne	r1!, {r0, r6, sl, sp, lr}
    6f90:	60b49e9d 	umlalsvs	r9, r4, sp, lr
    6f94:	7691f8ae 	ldrvc	pc, [r1], lr, lsr #17
    6f98:	38d2f89d 	ldmcc	r2, {r0, r2, r3, r4, r7, fp, ip, sp, lr, pc}^
    6f9c:	4e42462c 	cdpmi	6, 4, cr4, cr2, cr12, {1}
    6fa0:	5de4bf59 	stclpl	15, cr11, [r4, #356]!	; 0x164
    6fa4:	3b00ec8a 	blcc	421d4 <ZAG+0x343bc>
    6fa8:	f8fbb68f 			; <UNDEFINED> instruction: 0xf8fbb68f
    6fac:	3bb66ddb 	blcc	feda2720 <end+0xbeca2720>
    6fb0:	b7d0879d 	bfilt	r8, sp, #15, #2
    6fb4:	9b1b5d1c 	blls	6de42c <ZAG+0x6d0614>
    6fb8:	2a62443e 	bcs	18980b8 <ZAG+0x188a2a0>
    6fbc:	04d95608 	ldrbeq	r5, [r9], #1544	; 0x608
    6fc0:	4ca0c7ae 	stcmi	7, cr12, [r0], #696	; 0x2b8
    6fc4:	f631034b 			; <UNDEFINED> instruction: 0xf631034b
    6fc8:	4547ee20 	strbmi	lr, [r7, #-3616]	; 0xe20
    6fcc:	8b1c56eb 	blhi	71cb80 <ZAG+0x70ed68>
    6fd0:	25b1bbd0 	ldrcs	fp, [r1, #3024]!	; 0xbd0
    6fd4:	eada999a 	b	ff6ad644 <end+0xbf5ad644>
    6fd8:	49066971 	stmdbmi	r6, {r0, r4, r5, r6, r8, fp, sp, lr}
    6fdc:	11e30320 	mvnne	r0, r0, lsr #6
    6fe0:	209099f7 			; <UNDEFINED> instruction: 0x209099f7
    6fe4:	27eedc90 			; <UNDEFINED> instruction: 0x27eedc90
    6fe8:	27a44d19 			; <UNDEFINED> instruction: 0x27a44d19
    6fec:	3b6e2611 	blcc	1b90838 <ZAG+0x1b82a20>
    6ff0:	7f96e276 	svcvc	0x0096e276
    6ff4:	2ad8508f 	bcs	ff61b238 <end+0xbf51b238>
    6ff8:	cd8c35e6 	cfstr32gt	mvfx3, [ip, #920]	; 0x398
    6ffc:	0ab13bdb 	beq	fec55f70 <end+0xbeb55f70>
    7000:	a5e001aa 	strbge	r0, [r0, #426]!	; 0x1aa
    7004:	fcf11bb6 	ldc2l	11, cr1, [r1], #728	; 0x2d8
    7008:	6b6519fa 	blvs	194d7f8 <ZAG+0x193f9e0>
    700c:	6cedf65a 	stclvs	6, cr15, [sp], #360	; 0x168
    7010:	21002eed 	smlattcs	r0, sp, lr, r2
    7014:	41c94961 	bicmi	r4, r9, r1, ror #18
    7018:	c4a062fe 	strtgt	r6, [r0], #766	; 0x2fe
    701c:	803226fb 	ldrshthi	r2, [r2], -fp
    7020:	d3a1ed63 			; <UNDEFINED> instruction: 0xd3a1ed63
    7024:	14577272 	ldrbne	r7, [r7], #-626	; 0x272
    7028:	18b50ae8 	ldmne	r5!, {r3, r5, r6, r7, r9, fp}
    702c:	0610c0d3 			; <UNDEFINED> instruction: 0x0610c0d3
    7030:	40226b40 	eormi	r6, r2, r0, asr #22
    7034:	ce640399 	mcrgt	3, 3, r0, cr4, cr9, {4}
    7038:	d78949cc 	strle	r4, [r9, ip, asr #19]
    703c:	ddb45546 	cfldr32le	mvfx5, [r4, #280]!	; 0x118
    7040:	568a2698 	pkhbtpl	r2, sl, r8, lsl #13
    7044:	79c8515b 	stmibvc	r8, {r0, r1, r3, r4, r6, r8, ip, lr}^
    7048:	7b7ba1c6 	blvc	1eef768 <ZAG+0x1ee1950>
    704c:	49d80723 	ldmibmi	r8, {r0, r1, r5, r8, r9, sl}^
    7050:	61e7e7b8 	strhvs	lr, [r7, #120]!	; 0x78
    7054:	487d39cd 	ldmdami	sp!, {r0, r2, r3, r6, r7, r8, fp, ip, sp}^
    7058:	91144824 	tstls	r4, r4, lsr #16
    705c:	060e4db3 			; <UNDEFINED> instruction: 0x060e4db3
    7060:	5ecb129f 	mcrpl	2, 6, r1, cr11, cr15, {4}
    7064:	2265e6e0 	rsbcs	lr, r5, #224, 12	; 0xe000000
    7068:	a14f4c27 	cmpge	pc, r7, lsr #24
    706c:	e28a9cb8 	add	r9, sl, #184, 24	; 0xb800
    7070:	102431cc 	eorne	r3, r4, ip, asr #3
    7074:	467a9071 			; <UNDEFINED> instruction: 0x467a9071
    7078:	e225cead 	eor	ip, r5, #2768	; 0xad0
    707c:	07702a35 			; <UNDEFINED> instruction: 0x07702a35
    7080:	8fb533b3 	svchi	0x00b533b3
    7084:	0e7b6d5f 	mrceq	13, 3, r6, cr11, cr15, {2}
    7088:	d434e614 	ldrtle	lr, [r4], #-1556	; 0x614
    708c:	bbd200cb 	bllt	ff4873c0 <end+0xbf3873c0>
    7090:	afc274cc 	svcge	0x00c274cc
    7094:	8b4d6d55 	blhi	13625f0 <ZAG+0x13547d8>
    7098:	adf7b84a 	ldclge	8, cr11, [r7, #296]!	; 0x128
    709c:	4baa9185 	blmi	feaab6b8 <end+0xbe9ab6b8>
    70a0:	96c55a6e 	strbls	r5, [r5], lr, ror #20
    70a4:	eca9322e 	sfm	f3, 4, [r9], #184	; 0xb8
    70a8:	08c35144 	stmiaeq	r3, {r2, r6, r8, ip, lr}^
    70ac:	19032b94 	stmdbne	r3, {r2, r4, r7, r8, r9, fp, sp}
    70b0:	01993aed 	orrseq	r3, r9, sp, ror #21
    70b4:	154e8489 	strbne	r8, [lr, #-1161]	; 0x489
    70b8:	c5cda58e 	strbgt	sl, [sp, #1422]	; 0x58e
    70bc:	d459543a 	ldrble	r5, [r9], #-1082	; 0x43a
    70c0:	b99268bb 	ldmiblt	r2, {r0, r1, r3, r4, r5, r7, fp, sp, lr}
    70c4:	200d1b08 	andcs	r1, sp, r8, lsl #22
    70c8:	fe065a80 	vseleq.f32	s10, s13, s0
    70cc:	907eca38 	rsbsls	ip, lr, r8, lsr sl
    70d0:	b474f140 	ldrbtlt	pc, [r4], #-320	; 0x140	; <UNPREDICTABLE>
    70d4:	da76eae7 	ble	1dc1c78 <ZAG+0x1db3e60>
    70d8:	c191af9b 			; <UNDEFINED> instruction: 0xc191af9b
    70dc:	900b33ae 	andls	r3, fp, lr, lsr #7
    70e0:	b419a9dc 	ldrlt	sl, [r9], #-2524	; 0x9dc
    70e4:	91d85ca9 	bicsls	r5, r8, r9, lsr #25
    70e8:	8cca0715 	stclhi	7, cr0, [sl], {21}
    70ec:	6baa8a14 	blvs	feaa9944 <end+0xbe9a9944>
    70f0:	84c96129 	strbhi	r6, [r9], #297	; 0x129
    70f4:	e9674de9 	stmdb	r7!, {r0, r3, r5, r6, r7, r8, sl, fp, lr}^
    70f8:	cbcfd5c3 	blgt	ff3fc80c <end+0xbf2fc80c>
    70fc:	58e9c38a 	stmiapl	r9!, {r1, r3, r7, r8, r9, lr, pc}^
    7100:	199b2d38 	ldmibne	fp, {r3, r4, r5, r8, sl, fp, sp}
    7104:	04568549 	ldrbeq	r8, [r6], #-1353	; 0x549
    7108:	a4722cba 	ldrbtge	r2, [r2], #-3258	; 0xcba
    710c:	c9d0c691 	ldmibgt	r0, {r0, r4, r7, r9, sl, lr, pc}^
    7110:	912a4934 	teqls	sl, r4, lsr r9
    7114:	94191869 	ldrls	r1, [r9], #-2153	; 0x869
    7118:	7d8be5f6 	cfstr32vc	mvfx14, [fp, #984]	; 0x3d8
    711c:	ad153ada 	vldrge	s6, [r5, #-872]	; 0xfffffc98
    7120:	ee9f966f 	cdp	6, 9, cr9, cr15, cr15, {3}
    7124:	1375624b 	cmnne	r5, #-1342177276	; 0xb0000004
    7128:	00891924 	addeq	r1, r9, r4, lsr #18
    712c:	12249089 	eorne	r9, r4, #137	; 0x89
    7130:	04f24036 	ldrbteq	r4, [r2], #54	; 0x36
    7134:	7ba974ec 	blvc	fea644ec <end+0xbe9644ec>
    7138:	62f95979 	rscsvs	r5, r9, #1982464	; 0x1e4000
    713c:	59a9416c 	stmibpl	r9!, {r2, r3, r5, r6, r8, lr}
    7140:	494d11a7 	stmdbmi	sp, {r0, r1, r2, r5, r7, r8, ip}^
    7144:	50200798 	mlapl	r0, r8, r7, r0
    7148:	2933d09c 	ldmdbcs	r3!, {r2, r3, r4, r7, ip, lr, pc}
    714c:	4c1189ca 	ldcmi	9, cr8, [r1], {202}	; 0xca
    7150:	206cd3f9 	strdcs	sp, [ip], #-57	; 0xffffffc7	; <UNPREDICTABLE>
    7154:	910ef134 	tstls	lr, r4, lsr r1
    7158:	45ccd0c9 	strbmi	sp, [ip, #201]	; 0xc9
    715c:	08d2ae92 	ldmeq	r2, {r1, r4, r7, r9, sl, fp, sp, pc}^
    7160:	99bdcaea 	ldmibls	sp!, {r1, r3, r5, r6, r7, r9, fp, lr, pc}
    7164:	588ea052 	stmpl	lr, {r1, r4, r6, sp, pc}
    7168:	e1a888e4 			; <UNDEFINED> instruction: 0xe1a888e4
    716c:	dc1e5b34 	ldcle	11, cr5, [lr], {52}	; 0x34
    7170:	2beef5a9 	blcs	ffbc481c <end+0xbfac481c>
    7174:	8b3cb16f 	blhi	f33738 <ZAG+0xf25920>
    7178:	0576b032 	ldrbeq	fp, [r6, #-50]!	; 0x32
    717c:	28eaf2ca 	stmiacs	sl!, {r1, r3, r6, r7, r9, ip, sp, lr, pc}^
    7180:	35be501b 	ldrcc	r5, [lr, #27]!
    7184:	99240303 	stmdbls	r4!, {r0, r1, r8, r9}
    7188:	3f099099 	svccc	0x00099099
    718c:	7afb00d6 	bvc	ffec74ec <end+0xbfdc74ec>
    7190:	6d752050 	ldclvs	0, cr2, [r5, #-320]!	; 0xfffffec0
    7194:	d8b4b3b2 	ldmle	r4!, {r1, r4, r5, r7, r8, r9, ip, sp, pc}
    7198:	00cd60b9 	strheq	r6, [sp], #9
    719c:	10243ec0 	eorne	r3, r4, r0, asr #29
    71a0:	d6879561 	strle	r9, [r7], r1, ror #10
    71a4:	948dbf8d 	strls	fp, [sp], #3981	; 0xf8d
    71a8:	0f08a28c 	svceq	0x0008a28c
    71ac:	2e643595 	mcrcs	5, 3, r3, cr4, cr5, {4}
    71b0:	4de95d7f 	stclmi	13, cr5, [r9, #508]!	; 0x1fc
    71b4:	7c591c7f 	mrrcvc	12, 7, r1, r9, cr15
    71b8:	6071ebe5 	rsbsvs	lr, r1, r5, ror #23
    71bc:	50cbdd38 	sbcpl	sp, fp, r8, lsr sp
    71c0:	287624a5 	ldmdacs	r6!, {r0, r2, r5, r7, sl, sp}^
    71c4:	b9451341 	stmdblt	r5, {r0, r6, r8, r9, ip}^
    71c8:	18785892 	ldmdane	r8!, {r1, r4, r7, fp, ip, lr}^
    71cc:	9ddcf6dc 	ldclls	6, cr15, [ip, #880]	; 0x370
    71d0:	5df665fb 	cfldr64pl	mvdx6, [r6, #1004]!	; 0x3ec
    71d4:	7a230481 	bvc	8c83e0 <ZAG+0x8ba5c8>
    71d8:	4a77a145 	bmi	1def6f4 <ZAG+0x1de18dc>
    71dc:	68c3878d 	stmiavs	r3, {r0, r2, r3, r7, r8, r9, sl, pc}^
    71e0:	4a8c0a17 	bmi	fe309a44 <end+0xbe209a44>
    71e4:	d4d40107 	ldrble	r0, [r4], #263	; 0x107
    71e8:	2c06648c 	cfstrscs	mvf6, [r6], {140}	; 0x8c
    71ec:	2681fda4 	strcs	pc, [r1], r4, lsr #27
    71f0:	7100ff04 	tstvc	r0, r4, lsl #30
    71f4:	c46db3d7 	strbtgt	fp, [sp], #-983	; 0x3d7
    71f8:	adc5f15f 	stfgep	f7, [r5, #380]	; 0x17c
    71fc:	fe9a2aa8 	cdp2	10, 9, cr2, cr10, cr8, {5}
    7200:	2d83d934 	stccs	9, cr13, [r3, #208]	; 0xd0
    7204:	2bbd2146 	blcs	fef4f724 <end+0xbee4f724>
    7208:	800c1864 	andhi	r1, ip, r4, ror #16
    720c:	d83b9e11 	ldmdale	fp!, {r0, r4, r9, sl, fp, ip, pc}
    7210:	eda6c332 	stc	3, cr12, [r6, #200]!	; 0xc8
    7214:	c59bd6dc 	ldrgt	sp, [fp, #1756]	; 0x6dc
    7218:	e7c8e7e0 	strb	lr, [r8, r0, ror #15]
    721c:	e3ace4ab 			; <UNDEFINED> instruction: 0xe3ace4ab
    7220:	2ecf4263 	cdpcs	2, 12, cr4, cr15, cr3, {3}
    7224:	da19581e 	ble	65d2a4 <ZAG+0x64f48c>
    7228:	943b5e37 	ldrtls	r5, [fp], #-3639	; 0xe37
    722c:	5ec8189c 	mcrpl	8, 6, r1, cr8, cr12, {4}
    7230:	8502835c 	strhi	r8, [r2, #-860]	; 0x35c
    7234:	55ecb67c 	strbpl	fp, [ip, #1660]!	; 0x67c
    7238:	2eece438 	mcrcs	4, 7, lr, cr12, cr8, {1}
    723c:	2fe1b4e1 	svccs	0x00e1b4e1
    7240:	a2d59d56 	sbcsge	r9, r5, #5504	; 0x1580
    7244:	5363cbb3 	cmnpl	r3, #183296	; 0x2cc00
    7248:	0856d2f9 	ldmdaeq	r6, {r0, r3, r4, r5, r6, r7, r9, ip, lr, pc}^
    724c:	409ce68f 	addsmi	lr, ip, pc, lsl #13
    7250:	c1cb8a1e 	bicgt	r8, fp, lr, lsl sl
    7254:	5718d821 	ldrpl	sp, [r8, -r1, lsr #16]
    7258:	c765f670 			; <UNDEFINED> instruction: 0xc765f670
    725c:	a5b1b076 	ldrge	fp, [r1, #118]!	; 0x76
    7260:	d1b2d474 			; <UNDEFINED> instruction: 0xd1b2d474
    7264:	89187c42 	ldmdbhi	r8, {r1, r6, sl, fp, ip, sp, lr}
    7268:	04b11889 	ldrteq	r1, [r1], #2185	; 0x889
    726c:	60bbf449 	adcsvs	pc, fp, r9, asr #8
    7270:	a914ed84 	ldmdbge	r4, {r2, r7, r8, sl, fp, sp, lr, pc}
    7274:	abb700ff 	blge	fedc7678 <end+0xbecc7678>
    7278:	47cc263d 			; <UNDEFINED> instruction: 0x47cc263d
    727c:	0e196736 	mrceq	7, 0, r6, cr9, cr6, {1}
    7280:	36ea854e 	strbtcc	r8, [sl], lr, asr #10
    7284:	537d8a37 	cmnpl	sp, #225280	; 0x37000
    7288:	4a5d442a 	bmi	1758338 <ZAG+0x174a520>
    728c:	1b231aec 	blne	8cde44 <ZAG+0x8c002c>
    7290:	ca5064f6 	bgt	1420670 <ZAG+0x1412858>
    7294:	97d5e5df 			; <UNDEFINED> instruction: 0x97d5e5df
    7298:	9ed00772 	mrcls	7, 6, r0, cr0, cr2, {3}
    729c:	e0eb6e87 	rsc	r6, fp, r7, lsl #29
    72a0:	ee0265f9 	mcr	5, 0, r6, cr2, cr9, {7}
    72a4:	c12835ad 	teqgt	r8, sp, lsr #11
    72a8:	10c4d482 	sbcne	sp, r4, r2, lsl #9
    72ac:	8e0cd3c3 	cdphi	3, 0, cr13, cr12, cr3, {6}
    72b0:	b1119d88 	tstlt	r1, r8, lsl #27
    72b4:	549a7bfe 	ldrpl	r7, [sl], #3070	; 0xbfe
    72b8:	ecb833fd 	ldc	3, cr3, [r8], #1012	; 0x3f4
    72bc:	26d0e09a 			; <UNDEFINED> instruction: 0x26d0e09a
    72c0:	b220b8a3 	eorlt	fp, r0, #10682368	; 0xa30000
    72c4:	25061833 	strcs	r1, [r6, #-2099]	; 0x833
    72c8:	7a4d401d 	bvc	1357344 <ZAG+0x134952c>
    72cc:	99419261 	stmdbls	r1, {r0, r5, r6, r9, ip, pc}^
    72d0:	d1389504 	teqle	r8, r4, lsl #10
    72d4:	91c72f75 	bicls	r2, r7, r5, ror pc
    72d8:	2ca7a748 	stccs	7, cr10, [r7], #288	; 0x120
    72dc:	ac48a916 	mcrrge	9, 1, sl, r8, cr6
    72e0:	8632447e 			; <UNDEFINED> instruction: 0x8632447e
    72e4:	01008105 	tsteq	r0, r5, lsl #2
    72e8:	dd8f20b0 	stcle	0, cr2, [pc, #704]	; 75b0 <jpegdata+0x5200>
    72ec:	00c1dfb9 	strheq	sp, [r1], #249	; 0xf9
    72f0:	c1f0776c 	mvnsgt	r7, ip, ror #14
    72f4:	c22ee942 	eorgt	lr, lr, #1081344	; 0x108000
    72f8:	7a65b6d6 	bvc	1974e58 <ZAG+0x1967040>
    72fc:	d3201f44 	teqle	r0, #68, 30	; 0x110
    7300:	02d440b0 	sbcseq	r4, r4, #176	; 0xb0
    7304:	c8a4fa08 	stmiagt	r4!, {r3, r9, fp, ip, sp, lr, pc}
    7308:	26830082 	strcs	r0, [r3], r2, lsl #1
    730c:	6a52aa34 	bvs	14b1be4 <ZAG+0x14a3dcc>
    7310:	5550a524 	ldrbpl	sl, [r0, #-1316]	; 0x524
    7314:	ff8868c4 			; <UNDEFINED> instruction: 0xff8868c4
    7318:	fbd85900 	blx	ff61d722 <end+0xbf51d722>
    731c:	6f3fb746 	svcvs	0x003fb746
    7320:	b78393bc 			; <UNDEFINED> instruction: 0xb78393bc
    7324:	25017e3e 	strcs	r7, [r1, #-3646]	; 0xe3e
    7328:	855bd25a 	ldrbhi	sp, [fp, #-602]	; 0x25a
    732c:	67caa2b8 			; <UNDEFINED> instruction: 0x67caa2b8
    7330:	4905b82d 	stmdbmi	r5, {r0, r2, r3, r5, fp, ip, sp, pc}
    7334:	34373312 	ldrtcc	r3, [r7], #-786	; 0x312
    7338:	6ec8cde2 	cdpvs	13, 12, cr12, cr8, cr2, {7}
    733c:	63dec64b 	bicsvs	ip, lr, #78643200	; 0x4b00000
    7340:	2b20a132 	blcs	82f810 <ZAG+0x8219f8>
    7344:	60a7d25e 	adcvs	sp, r7, lr, asr r2
    7348:	ac70d6f8 	ldclge	6, cr13, [r0], #-992	; 0xfffffc20
    734c:	7b8c9124 	blvc	fe32b7e4 <end+0xbe22b7e4>
    7350:	31800a90 			; <UNDEFINED> instruction: 0x31800a90
    7354:	000c0269 	andeq	r0, ip, r9, ror #4
    7358:	05551795 	ldrbeq	r1, [r5, #-1941]	; 0x795
    735c:	d7990037 			; <UNDEFINED> instruction: 0xd7990037
    7360:	24af5e1f 	strtcs	r5, [pc], #3615	; 7368 <jpegdata+0x4fb8>
    7364:	5da6d099 	stcpl	0, cr13, [r6, #612]!	; 0x264
    7368:	2772004c 	ldrbcs	r0, [r2, -ip, asr #32]!
    736c:	931812d4 	tstls	r8, #212, 4	; 0x4000000d
    7370:	961cc392 			; <UNDEFINED> instruction: 0x961cc392
    7374:	dea4544b 	cdple	4, 10, cr5, cr4, cr11, {2}
    7378:	645a8d54 	ldrbvs	r8, [sl], #-3412	; 0xd54
    737c:	d8d6d381 	ldmle	r6, {r0, r7, r8, r9, ip, lr, pc}^
    7380:	32e3d1ea 	rsccc	sp, r3, #-2147483590	; 0x8000003a
    7384:	36a4720d 	strtcc	r7, [r4], sp, lsl #4
    7388:	fec1221e 	mcr2	2, 6, r2, cr1, cr14, {0}
    738c:	79ab2044 	stmibvc	fp!, {r2, r6, sp}
    7390:	087437de 	ldmdaeq	r4!, {r1, r2, r3, r4, r6, r7, r8, r9, sl, ip, sp}^
    7394:	58eccaca 	stmiapl	ip!, {r1, r3, r6, r7, r9, fp, lr, pc}^
    7398:	2e622af1 	mcrcs	10, 3, r2, cr2, cr1, {7}
    739c:	418af7bc 			; <UNDEFINED> instruction: 0x418af7bc
    73a0:	f4b8afb7 			; <UNDEFINED> instruction: 0xf4b8afb7
    73a4:	6994ea5b 	ldmibvs	r4, {r0, r1, r3, r4, r6, r9, fp, sp, lr, pc}
    73a8:	30184a12 	andscc	r4, r8, r2, lsl sl
    73ac:	c3508f09 	cmpgt	r0, #9, 30	; 0x24
    73b0:	4450a66c 	ldrbmi	sl, [r0], #-1644	; 0x66c
    73b4:	4815f919 	ldmdami	r5, {r0, r3, r4, r8, fp, ip, sp, lr, pc}
    73b8:	1b4eab58 	blne	13b2120 <ZAG+0x13a4308>
    73bc:	ebbbbbad 	bl	feef6278 <end+0xbedf6278>
    73c0:	2e2e099e 	mcrcs	9, 1, r0, cr14, cr14, {4}
    73c4:	80154eed 	andshi	r4, r5, sp, ror #29
    73c8:	c0009c2b 	andgt	r9, r0, fp, lsr #24
    73cc:	21b00a12 	lslscs	r0, r2, sl
    73d0:	c8901f5b 	ldmgt	r0, {r0, r1, r3, r4, r6, r8, r9, sl, fp, ip}
    73d4:	ce4d0120 	dvfgtep	f0, f5, f0
    73d8:	594e2a47 	stmdbpl	lr, {r0, r1, r2, r6, r9, fp, sp}^
    73dc:	3f7d1a0a 	svccc	0x007d1a0a
    73e0:	b1e4cd9a 			; <UNDEFINED> instruction: 0xb1e4cd9a
    73e4:	bafa0a19 	blt	ffe89c50 <end+0xbfd89c50>
    73e8:	7c3c06ae 	ldcvc	6, cr0, [ip], #-696	; 0xfffffd48
    73ec:	89b9e436 	ldmibhi	r9!, {r1, r2, r4, r5, sl, sp, lr, pc}
    73f0:	f99a48b7 			; <UNDEFINED> instruction: 0xf99a48b7
    73f4:	c6ac1649 	strtgt	r1, [ip], r9, asr #12
    73f8:	b353d238 	cmplt	r3, #56, 4	; 0x80000003
    73fc:	35d69923 	ldrbcc	r9, [r6, #2339]	; 0x923
    7400:	8923c450 	stmdbhi	r3!, {r4, r6, sl, lr, pc}
    7404:	52c9e537 	sbcpl	lr, r9, #230686720	; 0xdc00000
    7408:	0f376939 	svceq	0x00376939
    740c:	a2d29470 	sbcsge	r9, r2, #112, 8	; 0x70000000
    7410:	b8512f1f 	ldmdalt	r1, {r0, r1, r2, r3, r4, r8, r9, sl, fp, sp}^
    7414:	18fa63cb 	ldmne	sl!, {r0, r1, r3, r6, r7, r8, r9, sp, lr}^
    7418:	7d4c4227 	sfmvc	f4, 2, [ip, #-156]	; 0xffffff64
    741c:	8e557f24 	cdphi	15, 5, cr7, cr5, cr4, {1}
    7420:	aee0b2df 	mcrge	2, 7, fp, cr0, cr15, {6}
    7424:	2eac2eaf 	cdpcs	14, 10, cr2, cr12, cr15, {5}
    7428:	5c108a94 	ldcpl	10, cr8, [r0], {148}	; 0x94
    742c:	514dc954 	cmppl	sp, r4, asr r9
    7430:	d9fe5546 	ldmible	lr!, {r1, r2, r6, r8, sl, ip, lr}^
    7434:	33a068ae 	movcc	r6, #11403264	; 0xae0000
    7438:	1f98698a 	svcne	0x0098698a
    743c:	1000b132 	andne	fp, r0, r2, lsr r1
    7440:	eb701da2 	bl	1c0ead0 <ZAG+0x1c00cb8>
    7444:	d70f1d3c 	smladxle	pc, ip, sp, r1	; <UNPREDICTABLE>
    7448:	324d3ff3 	subcc	r3, sp, #972	; 0x3cc
    744c:	58d65fb2 	ldmpl	r6, {r1, r4, r5, r7, r8, r9, sl, fp, ip, lr}^
    7450:	ca562c72 	bgt	1592620 <ZAG+0x1584808>
    7454:	0a5ea55c 	beq	17b09cc <ZAG+0x17a2bb4>
    7458:	23140bb3 	tstcs	r4, #183296	; 0x2cc00
    745c:	5e656046 	cdppl	0, 6, cr6, cr5, cr6, {2}
    7460:	bec72f60 	cdplt	15, 12, cr2, cr7, cr0, {3}
    7464:	153c25c5 	ldrne	r2, [ip, #-1477]!	; 0x5c5
    7468:	6e6e7042 	cdpvs	0, 6, cr7, cr14, cr2, {2}
    746c:	c5ae55ec 	strgt	r5, [lr, #1516]!	; 0x5ec
    7470:	e666de4f 	strbt	sp, [r6], -pc, asr #28
    7474:	fe07ee0c 	cdp2	14, 0, cr14, cr7, cr12, {0}
    7478:	eef71a55 	mrc	10, 7, r1, cr7, cr5, {2}
    747c:	af7fac7f 	svcge	0x007fac7f
    7480:	efda275d 	svc	0x00da275d
    7484:	b6aebd60 	strtlt	fp, [lr], r0, ror #26
    7488:	a2e42396 	rscge	r2, r4, #1476395010	; 0x58000002
    748c:	881de054 	ldmdahi	sp, {r2, r4, r6, sp, lr, pc}
    7490:	63d7f293 	bicsvs	pc, r7, #805306377	; 0x30000009
    7494:	1c03f091 	stcne	0, cr15, [r3], {145}	; 0x91
    7498:	20132609 	andscs	r2, r3, r9, lsl #12
    749c:	1ed34fb0 	mrcne	15, 6, r4, cr3, cr0, {5}
    74a0:	ed996a72 	vldr	s12, [r9, #456]	; 0x1c8
    74a4:	0cd9f264 	lfmeq	f7, 3, [r9], {100}	; 0x64
    74a8:	8bfd4aae 	blhi	fff59f68 <end+0xbfe59f68>
    74ac:	ecb77b59 	fldmiax	r7!, {d7-d50}	;@ Deprecated
    74b0:	52b2c8bd 	adcspl	ip, r2, #12386304	; 0xbd0000
    74b4:	27e135cb 	strbcs	r3, [r1, fp, asr #11]!
    74b8:	f22ccd20 	vsub.f32	d12, d12, d16
    74bc:	ecec0032 	stcl	0, cr0, [ip], #200	; 0xc8
    74c0:	91df09ee 	bicsls	r0, pc, lr, ror #19
    74c4:	bbca7264 	bllt	ff2a3e5c <end+0xbf1a3e5c>
    74c8:	e50822af 	str	r2, [r8, #-687]	; 0x2af
    74cc:	03d4189b 	bicseq	r1, r4, #10158080	; 0x9b0000
    74d0:	a133833a 	teqge	r3, sl, lsr r3
    74d4:	641275b2 	ldrvs	r7, [r2], #-1458	; 0x5b2
    74d8:	b813c446 	ldmdalt	r3, {r1, r2, r6, sl, lr, pc}
    74dc:	534cad4e 	movtpl	sl, #52558	; 0xcd4e
    74e0:	128c1176 	addne	r1, ip, #-2147483619	; 0x8000001d
    74e4:	8f503f31 	svchi	0x00503f31
    74e8:	9ffe80ce 	svcls	0x00fe80ce
    74ec:	5d0319dc 	stcpl	9, cr1, [r3, #-880]	; 0xfffffc90
    74f0:	cc78fb17 	ldclgt	11, cr15, [r8], #-92	; 0xffffffa4
    74f4:	561f6c69 	ldrpl	r6, [pc], -r9, ror #24
    74f8:	7d75d670 	ldclvc	6, cr13, [r5, #-448]!	; 0xfffffe40
    74fc:	cc189f66 	ldcgt	15, cr9, [r8], {102}	; 0x66
    7500:	8fedc6d0 	svchi	0x00edc6d0
    7504:	195e238b 	ldmdbne	lr, {r0, r1, r3, r7, r8, r9, sp}^
    7508:	b34771dc 	movtlt	r7, #29148	; 0x71dc
    750c:	936f444e 	cmnls	pc, #1308622848	; 0x4e000000
    7510:	381e9207 	ldmdacc	lr, {r0, r1, r2, r9, ip, pc}
    7514:	79ec72cc 	stmibvc	ip!, {r2, r3, r6, r7, r9, ip, sp, lr}^
    7518:	41d5e146 	bicsmi	lr, r5, r6, asr #2
    751c:	4305e4d4 	movwmi	lr, #21716	; 0x54d4
    7520:	8211df6c 	andshi	sp, r1, #108, 30	; 0x1b0
    7524:	3d34ee37 	ldccc	14, cr14, [r4, #-220]!	; 0xffffff24
    7528:	e08f4ec3 	add	r4, pc, r3, asr #29
    752c:	1d911f99 	ldcne	15, cr1, [r1, #612]	; 0x264
    7530:	eb496f7d 	bl	126332c <ZAG+0x1255514>
    7534:	94545ad5 	ldrbls	r5, [r4], #-2773	; 0xad5
    7538:	000031b3 			; <UNDEFINED> instruction: 0x000031b3
    753c:	00749224 	rsbseq	r9, r4, r4, lsr #4
    7540:	a0936403 	addsge	r6, r3, r3, lsl #8
    7544:	1d00ff06 	stcne	15, cr15, [r0, #-24]	; 0xffffffe8
    7548:	2ba2ed7a 	blcs	fe8c2b38 <end+0xbe7c2b38>
    754c:	a7194dfc 			; <UNDEFINED> instruction: 0xa7194dfc
    7550:	d835bbc9 	ldmdale	r5!, {r0, r3, r6, r7, r8, r9, fp, ip, sp, pc}
    7554:	8d1c1fd3 	ldchi	15, cr1, [ip, #-844]	; 0xfffffcb4
    7558:	f37ddb2d 	vqrdmulh.s<illegal width 64>	d29, d13, d29
    755c:	5610436e 	ldrpl	r4, [r0], -lr, ror #6
    7560:	23dd499a 	bicscs	r4, sp, #2523136	; 0x268000
    7564:	93e0262d 	mvnls	r2, #47185920	; 0x2d00000
    7568:	c76c242b 	strbgt	r2, [ip, -fp, lsr #8]!
    756c:	261feb70 			; <UNDEFINED> instruction: 0x261feb70
    7570:	57f7cd0b 	ldrbpl	ip, [r7, fp, lsl #26]!
    7574:	5772aa95 			; <UNDEFINED> instruction: 0x5772aa95
    7578:	97f31d9c 			; <UNDEFINED> instruction: 0x97f31d9c
    757c:	13bfa04b 			; <UNDEFINED> instruction: 0x13bfa04b
    7580:	9c04fe10 	stcls	14, cr15, [r4], {16}
    7584:	93ac2ae9 			; <UNDEFINED> instruction: 0x93ac2ae9
    7588:	5562cbf1 	strbpl	ip, [r2, #-3057]!	; 0xbf1
    758c:	ca0a0943 	bgt	289aa0 <ZAG+0x27bc88>
    7590:	0a972818 	beq	fe5d15f8 <end+0xbe4d15f8>
    7594:	51d962fc 	ldrshpl	r6, [r9, #44]	; 0x2c
    7598:	535bcba3 	cmppl	fp, #166912	; 0x28c00
    759c:	de2c755a 	mcrle	5, 1, r7, cr12, cr10, {2}
    75a0:	698aaca8 	stmibvs	sl, {r3, r5, r7, sl, fp, sp, pc}
    75a4:	ea34e3c3 	b	d404b8 <ZAG+0xd326a0>
    75a8:	e4c7c392 	strb	ip, [r7], #914	; 0x392
    75ac:	162b4b01 	strtne	r4, [fp], -r1, lsl #22
    75b0:	302b0b06 	eorcc	r0, fp, r6, lsl #22
    75b4:	c8d891c8 	ldmgt	r8, {r3, r6, r7, r8, ip, pc}^
    75b8:	6e16a368 	cdpvs	3, 1, cr10, cr6, cr8, {3}
    75bc:	c2c6d23b 	sbcgt	sp, r6, #-1342177277	; 0xb0000003
    75c0:	111b3701 	tstne	fp, r1, lsl #14
    75c4:	e1ea6f2f 	mvn	r6, pc, lsr #30
    75c8:	c3901f77 	orrsgt	r1, r0, #476	; 0x1dc
    75cc:	cb90d4cf 	blgt	fe43c910 <end+0xbe33c910>
    75d0:	902330e4 	eorls	r3, r3, r4, ror #1
    75d4:	11778b27 	cmnne	r7, r7, lsr #22
    75d8:	b57d57de 	ldrblt	r5, [sp, #-2014]!	; 0x7de
    75dc:	e4b7dfda 	ldrt	sp, [r7], #4058	; 0xfda
    75e0:	49999fa9 	ldmibmi	r9, {r0, r3, r5, r7, r8, r9, sl, fp, ip, pc}
    75e4:	e4e7405a 	strbt	r4, [r7], #90	; 0x5a
    75e8:	c3328081 	teqgt	r2, #129	; 0x81
    75ec:	08e102d4 	stmiaeq	r1!, {r2, r4, r6, r7, r9}^
    75f0:	00483160 	subeq	r3, r8, r0, ror #2
    75f4:	e63d2d40 	ldrt	r2, [sp], -r0, asr #26
    75f8:	b9d3223b 	ldmiblt	r3, {r0, r1, r3, r4, r5, r9, sp}^
    75fc:	5cf7af3b 	ldclpl	15, cr10, [r7], #236	; 0xec
    7600:	a1858f73 	orrge	r8, r5, r3, ror pc
    7604:	2f1ec6aa 	svccs	0x001ec6aa
    7608:	fb142289 	blx	510036 <ZAG+0x50221e>
    760c:	033584c8 	teqeq	r5, #200, 8	; 0xc8000000
    7610:	2449dd29 	strbcs	sp, [r9], #-3369	; 0xd29
    7614:	04a10bc9 	strteq	r0, [r1], #3017	; 0xbc9
    7618:	3d722ca9 	ldclcc	12, cr2, [r2, #-676]!	; 0xfffffd5c
    761c:	23696b57 	cmncs	r9, #89088	; 0x15c00
    7620:	a2d40c91 	sbcsge	r0, r4, #37120	; 0x9100
    7624:	47fe2a65 	ldrbmi	r2, [lr, r5, ror #20]!
    7628:	08c8c701 	stmiaeq	r8, {r0, r8, r9, sl, lr, pc}^
    762c:	6729d800 	strvs	sp, [r9, -r0, lsl #16]!
    7630:	74405054 	strbvc	r5, [r0], #-84	; 0x54
    7634:	dfbdaed8 	svcle	0x00bdaed8
    7638:	ddcf7f03 	stclle	15, cr7, [pc, #12]	; 764c <jpegdata+0x529c>
    763c:	feeaf5a5 	cdp2	5, 14, cr15, cr10, cr5, {5}
    7640:	4a2ca5d2 	bmi	b30d90 <ZAG+0xb22f78>
    7644:	9fca8616 	svcls	0x00ca8616
    7648:	6d4733d6 	stclvs	3, cr3, [r7, #-856]	; 0xfffffca8
    764c:	997c0c54 	ldmdbls	ip!, {r2, r4, r6, sl, fp}^
    7650:	19f5a6b1 	ldmibne	r5!, {r0, r4, r5, r7, r9, sl, sp, pc}^
    7654:	56dfe294 			; <UNDEFINED> instruction: 0x56dfe294
    7658:	613d9fe5 	teqvs	sp, r5, ror #31
    765c:	953ddac0 	ldrls	sp, [sp, #-2752]!	; 0xac0
    7660:	95ee7e8b 	strbls	r7, [lr, #3723]!	; 0xe8b
    7664:	0584835c 	streq	r8, [r4, #860]	; 0x35c
    7668:	1cf4a971 	ldclne	9, cr10, [r4], #452	; 0x1c4
    766c:	ca74171d 	bgt	1d0d2e8 <ZAG+0x1cff4d0>
    7670:	f552158f 			; <UNDEFINED> instruction: 0xf552158f
    7674:	6555d369 	ldrbvs	sp, [r5, #-873]	; 0x369
    7678:	211e23c9 	tstcs	lr, r9, asr #7
    767c:	72e79688 	rscvc	r9, r7, #136, 12	; 0x8800000
    7680:	40bef57b 	adcsmi	pc, lr, fp, ror r5	; <UNPREDICTABLE>
    7684:	9b115955 	blls	45dbe0 <ZAG+0x44fdc8>
    7688:	2789eab4 			; <UNDEFINED> instruction: 0x2789eab4
    768c:	075fb891 			; <UNDEFINED> instruction: 0x075fb891
    7690:	15d4e1f1 	ldrbne	lr, [r4, #497]	; 0x1f1
    7694:	30fa3660 	rscscc	r3, sl, r0, ror #12
    7698:	bb3ff465 	bllt	1004834 <ZAG+0xff6a1c>
    769c:	da6d076d 	ble	1b49458 <ZAG+0x1b3b640>
    76a0:	aade9e1b 	bge	ff7aef14 <end+0xbf6aef14>
    76a4:	9f4a05d4 	svcls	0x004a05d4
    76a8:	c99a09c4 	ldmibgt	sl, {r2, r6, r7, r8, fp}
    76ac:	cc204050 	stcgt	0, cr4, [r0], #-320	; 0xfffffec0
    76b0:	6926a9a2 	stmdbvs	r6!, {r1, r5, r7, r8, fp, sp, pc}
    76b4:	edcf10b4 	stcl	0, cr1, [pc, #720]	; 798c <jpegdata+0x55dc>
    76b8:	7f235390 	svcvc	0x00235390
    76bc:	b91beeb4 	ldmdblt	fp, {r2, r4, r5, r7, r9, sl, fp, sp, lr, pc}
    76c0:	6f00ff6e 	svcvs	0x0000ff6e
    76c4:	b95654dc 	ldmdblt	r6, {r2, r3, r4, r6, r7, sl, ip, lr}^
    76c8:	97694ea7 	strbls	r4, [r9, -r7, lsr #29]!
    76cc:	1903daf8 	stmdbne	r3, {r3, r4, r5, r6, r7, r9, fp, ip, lr, pc}
    76d0:	d9218020 	stmdble	r1!, {r5, pc}
    76d4:	41551180 	cmpmi	r5, r0, lsl #3
    76d8:	8fa0a952 	svchi	0x00a0a952
    76dc:	c2db83f2 	sbcsgt	r8, fp, #-939524093	; 0xc8000003
    76e0:	ac1c16c1 	ldcge	6, cr1, [ip], {193}	; 0xc1
    76e4:	5a49ee34 	bpl	1282fbc <ZAG+0x12751a4>
    76e8:	6d6d0f31 	stclvs	15, cr0, [sp, #-196]!	; 0xffffff3c
    76ec:	49061b47 	stmdbmi	r6, {r0, r1, r2, r6, r8, r9, fp, ip}
    76f0:	63c83b77 	bicvs	r3, r8, #121856	; 0x1dc00
    76f4:	ef546076 	svc	0x00546076
    76f8:	4a9027b3 	bmi	fe4115cc <end+0xbe3115cc>
    76fc:	7abc5df2 	bvc	fef1eecc <end+0xbee1eecc>
    7700:	5eefbdd5 	mcrpl	13, 7, fp, cr15, cr5, {6}
    7704:	fb33af2e 	blx	cf33c6 <ZAG+0xce55ae>
    7708:	9760d6da 			; <UNDEFINED> instruction: 0x9760d6da
    770c:	0fe6930b 	svceq	0x00e6930b
    7710:	8255d9f0 	subshi	sp, r5, #240, 18	; 0x3c0000
    7714:	903c8a90 	mlasls	ip, r0, sl, r8
    7718:	007320eb 	rsbseq	r2, r3, fp, ror #1
    771c:	8f01d960 	svchi	0x0001d960
    7720:	951d965b 	ldrls	r9, [sp, #-1627]	; 0x65b
    7724:	e2f0dbc9 	rscs	sp, r0, #205824	; 0x32400
    7728:	a8f4deca 	ldmge	r4!, {r1, r3, r6, r7, r9, sl, fp, ip, lr, pc}^
    772c:	085cb14c 	ldmdaeq	ip, {r2, r3, r6, r8, ip, sp, pc}^
    7730:	a5cc8a8a 	strbge	r8, [ip, #2698]	; 0xa8a
    7734:	2e3e76c1 	cfmsuba32cs	mvax6, mvax7, mvfx14, mvfx1
    7738:	31188137 	tstcc	r8, r7, lsr r1
    773c:	4e62223f 	mcrmi	2, 3, r2, cr2, cr15, {1}
    7740:	aca6165d 	stcge	6, cr1, [r6], #372	; 0x174
    7744:	fd12ac44 	ldc2	12, cr10, [r2, #-272]	; 0xfffffef0
    7748:	0c616e7e 	stcleq	14, cr6, [r1], #-504	; 0xfffffe08
    774c:	7294034c 	addsvc	r0, r4, #76, 6	; 0x30000001
    7750:	a1603f9e 			; <UNDEFINED> instruction: 0xa1603f9e
    7754:	0812d8b6 	ldmdaeq	r2, {r1, r2, r4, r5, r7, fp, ip, lr, pc}
    7758:	f700ff1b 			; <UNDEFINED> instruction: 0xf700ff1b
    775c:	85d6c7b6 	ldrbhi	ip, [r6, #1974]	; 0x7b6
    7760:	9ee3e35e 	mcrls	3, 7, lr, cr3, cr14, {2}
    7764:	15dceded 	ldrbne	lr, [ip, #3565]	; 0xded
    7768:	304bdfa0 	subcc	sp, fp, r0, lsr #31
    776c:	d8ce5490 	stmiale	lr, {r4, r7, sl, ip, lr}^
    7770:	10fa2728 	rscsne	r2, sl, r8, lsr #14
    7774:	40901903 	addsmi	r1, r0, r3, lsl #18
    7778:	528c8e20 	addpl	r8, ip, #32, 28	; 0x200
    777c:	761a79e0 	ldrvc	r7, [sl], -r0, ror #19
    7780:	6a087069 	bvs	22392c <ZAG+0x215b14>
    7784:	4c953cea 	ldcmi	12, cr3, [r5], {234}	; 0xea
    7788:	a534e210 	ldrge	lr, [r4, #-528]!	; 0x210
    778c:	12d41f88 	sbcsne	r1, r4, #136, 30	; 0x220
    7790:	48104454 	ldmdami	r0, {r2, r4, r6, sl, lr}
    7794:	a83bf420 	ldmdage	fp!, {r5, sl, ip, sp, lr, pc}
    7798:	d19bb8f1 			; <UNDEFINED> instruction: 0xd19bb8f1
    779c:	242f4459 	strtcs	r4, [pc], #-1113	; 77a4 <jpegdata+0x53f4>
    77a0:	e3cc1b6b 	bic	r1, ip, #109568	; 0x1ac00
    77a4:	2189db74 	orrcs	sp, r9, r4, ror fp
    77a8:	4a0a8095 	bmi	2a7a04 <ZAG+0x299bec>
    77ac:	21a7dc85 			; <UNDEFINED> instruction: 0x21a7dc85
    77b0:	75a94fb1 	strvc	r4, [r9, #4017]!	; 0xfb1
    77b4:	974b6264 	strbls	r6, [fp, -r4, ror #4]
    77b8:	c23a8e6c 	eorsgt	r8, sl, #108, 28	; 0x6c0
    77bc:	8a5f4ead 	bhi	17db278 <ZAG+0x17cd460>
    77c0:	18a89c01 	stmiane	r8!, {r0, sl, fp, ip, pc}
    77c4:	e47e62a1 	ldrbt	r6, [lr], #-673	; 0x2a1
    77c8:	cd8005ae 	cfstr32gt	mvfx0, [r0, #696]	; 0x2b8
    77cc:	008c10e0 	addeq	r1, ip, r0, ror #1
    77d0:	a94d2b68 	stmdbge	sp, {r3, r5, r6, r8, r9, fp, sp}^
    77d4:	fb918eb8 	blx	fe46b2be <end+0xbe36b2be>
    77d8:	34725fa4 	ldrbtcc	r5, [r2], #-4004	; 0xfa4
    77dc:	09e58893 	stmibeq	r5!, {r0, r1, r4, r7, fp, pc}^
    77e0:	9c9c1808 	ldcls	8, cr1, [ip], {8}
    77e4:	1b601f28 	blne	180f48c <ZAG+0x1801674>
    77e8:	4ee1a420 	cdpmi	4, 14, cr10, cr1, cr0, {1}
    77ec:	658a9a4a 	strvs	r9, [sl, #2634]	; 0xa4a
    77f0:	a9553524 	ldmdbge	r5, {r2, r5, r8, sl, ip, sp}^
    77f4:	60e7a44d 	rscvs	sl, r7, sp, asr #8
    77f8:	17f1b5f0 			; <UNDEFINED> instruction: 0x17f1b5f0
    77fc:	76731cbe 			; <UNDEFINED> instruction: 0x76731cbe
    7800:	f024bbd0 			; <UNDEFINED> instruction: 0xf024bbd0
    7804:	51f79c59 	mvnspl	r9, r9, asr ip
    7808:	ca46c61c 	bgt	11b9080 <ZAG+0x11ab268>
    780c:	a4dbec14 	ldrbge	lr, [fp], #3092	; 0xc14
    7810:	36a0127b 			; <UNDEFINED> instruction: 0x36a0127b
    7814:	a6dc77fc 			; <UNDEFINED> instruction: 0xa6dc77fc
    7818:	2eb9d5da 	mrccs	5, 5, sp, cr9, cr10, {6}
    781c:	ee2cbc67 	cdp	12, 2, cr11, cr12, cr7, {3}
    7820:	69683507 	stmdbvs	r8!, {r0, r1, r2, r8, sl, ip, sp}^
    7824:	c82a635b 	stmdagt	sl!, {r0, r1, r3, r4, r6, r8, r9, sp, lr}
    7828:	69643184 	stmdbvs	r4!, {r2, r7, r8, ip, sp}^
    782c:	c392c803 	orrsgt	ip, r2, #196608	; 0x30000
    7830:	988af312 	stmls	sl, {r1, r4, r8, r9, ip, sp, lr, pc}
    7834:	c0104082 	andsgt	r4, r0, r2, lsl #1
    7838:	b8e2b6e5 	stmialt	r2!, {r0, r2, r5, r6, r7, r9, sl, ip, sp, pc}^
    783c:	b7bdcd5e 	sbfxlt	ip, lr, #26, #30
    7840:	bb0500ff 	bllt	147c44 <ZAG+0x139e2c>
    7844:	c5326e15 	ldrgt	r6, [r2, #-3605]!	; 0xe15
    7848:	0b15dc95 	bleq	57eaa4 <ZAG+0x570c8c>
    784c:	284c0050 	stmdacs	ip, {r4, r6}^
    7850:	984a0e01 	stmdals	sl, {r0, r9, sl, fp}^
    7854:	053940e4 	ldreq	r4, [r9, #-228]!	; 0xe4
    7858:	11849224 	orrne	r9, r4, r4, lsr #4
    785c:	8df42aea 	ldclhi	10, cr2, [r4, #936]!	; 0x3a8
    7860:	29ba7d0c 	ldmibcs	sl!, {r2, r3, r8, sl, fp, ip, sp, lr}
    7864:	0232c11a 	eorseq	ip, r2, #-2147483642	; 0x80000006
    7868:	32ab18ac 	adccc	r1, fp, #172, 16	; 0xac0000
    786c:	249e0a90 	ldrcs	r0, [lr], #2704	; 0xa90
    7870:	927cf079 	rsbsls	pc, ip, #121	; 0x79
    7874:	df371e41 	svcle	0x00371e41
    7878:	ecae137f 	stc	3, cr1, [lr], #508	; 0x1fc
    787c:	daf82ce2 	ble	ffe12c0c <end+0xbfd12c0c>
    7880:	aa70154a 	bge	1c0cdb0 <ZAG+0x1bfef98>
    7884:	362286ad 	strtcc	r8, [r2], -sp, lsr #13
    7888:	f64e3200 			; <UNDEFINED> instruction: 0xf64e3200
    788c:	e64e0041 	strb	r0, [lr], -r1, asr #32
    7890:	4b757d76 	blmi	1d66e70 <ZAG+0x1d59058>
    7894:	eb567eed 	bl	15a7450 <ZAG+0x1599638>
    7898:	2c5ba892 	mrrccs	8, 9, sl, fp, cr2
    789c:	91e732e9 	mvnls	r3, r9, ror #5
    78a0:	20c60499 	smullcs	r0, r6, r9, r4
    78a4:	9320d008 	teqls	r0, #8
    78a8:	0d042206 	sfmeq	f2, 4, [r4, #-24]	; 0xffffffe8
    78ac:	3a9ac198 	bcc	fe6b7f14 <end+0xbe5b7f14>
    78b0:	340ac3f3 	strcc	ip, [sl], #-1011	; 0x3f3
    78b4:	f1e4a741 			; <UNDEFINED> instruction: 0xf1e4a741
    78b8:	57ee47ee 	strbpl	r4, [lr, lr, ror #15]!
    78bc:	00ff02e0 	rscseq	r0, pc, r0, ror #5
    78c0:	1f7fe5de 	svcne	0x007fe5de
    78c4:	7e00fff7 	mcrvc	15, 0, pc, cr0, cr7, {7}	; <UNPREDICTABLE>
    78c8:	aeee6c94 	mcrge	12, 7, r6, cr14, cr4, {4}
    78cc:	58d9bacd 	ldmpl	r9, {r0, r2, r3, r6, r7, r9, fp, ip, sp, pc}^
    78d0:	933fcf06 	teqls	pc, #6, 30
    78d4:	2f4a79c4 	svccs	0x004a79c4
    78d8:	0c790489 	cfldrdeq	mvd0, [r9], #-548	; 0xfffffddc
    78dc:	0075a801 	rsbseq	sl, r5, r1, lsl #16
    78e0:	cfb4fd4c 	svcgt	0x00b4fd4c
    78e4:	f3676979 	vmul.p32	q11, <illegal reg q3.5>, <illegal reg q12.5>
    78e8:	38fee5b5 	ldmcc	lr!, {r0, r2, r4, r5, r7, r8, sl, sp, lr, pc}^
    78ec:	1ff9f161 	svcne	0x00f9f161
    78f0:	25c3a818 	strbcs	sl, [r3, #2072]	; 0x818
    78f4:	c89cf820 	ldmgt	ip, {r5, fp, ip, sp, lr, pc}
    78f8:	2326b941 	teqcs	r6, #1064960	; 0x104000
    78fc:	56ebbcef 	strbtpl	fp, [fp], pc, ror #25
    7900:	713b7ca9 	teqvc	fp, r9, lsr #25
    7904:	4d47b2b3 	sfmmi	f3, 3, [r7, #-716]	; 0xfffffd34
    7908:	6c0c4bb8 	stcvs	11, cr4, [ip], {184}	; 0xb8
    790c:	3e6515d1 	mcrcc	5, 3, r1, cr5, cr1, {6}
    7910:	f2c76d17 	vmov.i32	d22, #7864319	; 0x0077ffff
    7914:	b8f1c306 	ldmlt	r1!, {r1, r2, r8, r9, lr, pc}^
    7918:	55d3e31f 	ldrbpl	lr, [r3, #799]	; 0x31f
    791c:	d6dc1b87 	ldrble	r1, [ip], r7, lsl #23
    7920:	a800a51c 	stmdage	r0, {r2, r3, r4, r8, sl, sp, pc}
    7924:	20e8b556 	rsccs	fp, r8, r6, asr r5
    7928:	0cd4aa33 	vldmiaeq	r4, {s21-s71}
    792c:	48cb05af 	stmiami	fp, {r0, r1, r2, r3, r5, r7, r8, sl}^
    7930:	48eab67f 	stmiami	sl!, {r0, r1, r2, r3, r4, r5, r6, r9, sl, ip, sp, pc}^
    7934:	849c54c9 	ldrhi	r5, [ip], #1225	; 0x4c9
    7938:	f2dfa91d 	vqshrn.s32	d26, <illegal reg q6.5>, #1
    793c:	c57fb17d 	ldrbgt	fp, [pc, #-381]!	; 77c7 <jpegdata+0x5417>
    7940:	1a502dd7 	bne	14130a4 <ZAG+0x140528c>
    7944:	51252c36 	teqpl	r5, r6, lsr ip
    7948:	a756999a 			; <UNDEFINED> instruction: 0xa756999a
    794c:	4f0d0ba4 	svcmi	0x000d0ba4
    7950:	1c9c22ee 	lfmne	f2, 4, [ip], {238}	; 0xee
    7954:	c8c48019 	stmiagt	r4, {r0, r3, r4, pc}^
    7958:	940b95d6 	strls	r9, [fp], #-1494	; 0x5d6
    795c:	b4623caf 	strbtlt	r3, [r2], #-3247	; 0xcaf
    7960:	62a2a5f6 	adcvs	sl, r2, #1031798784	; 0x3d800000
    7964:	6892e449 	ldmvs	r2, {r0, r3, r6, sl, sp, lr, pc}
    7968:	cbf2674c 	blgt	ffca16a0 <end+0xbfba16a0>
    796c:	b3b87dc7 			; <UNDEFINED> instruction: 0xb3b87dc7
    7970:	3c6e58fd 	stclcc	8, cr5, [lr], #-1012	; 0xfffffc0c
    7974:	016fcb6f 	cmneq	pc, pc, ror #22
    7978:	6eeedbb6 	mcrvs	11, 7, sp, cr14, cr6, {5}
    797c:	faedb8ce 	blx	ffb75cbc <end+0xbfa75cbc>
    7980:	5177bd86 	cmnpl	r7, r6, lsl #27
    7984:	5541ce6e 	strbpl	ip, [r1, #-3694]	; 0xe6e
    7988:	01d8886d 	bicseq	r8, r8, sp, ror #16
    798c:	5a7c2c49 	bpl	1f12ab8 <ZAG+0x1f04ca0>
    7990:	db239914 	blle	8edde8 <ZAG+0x8dffd0>
    7994:	1d9c0ce2 	ldcne	12, cr0, [ip, #904]	; 0x388
    7998:	dd36deb1 	ldcle	14, cr13, [r6, #-708]!	; 0xfffffd3c
    799c:	b7504cc3 	ldrblt	r4, [r0, -r3, asr #25]
    79a0:	4ceb6a56 	vstmiami	fp!, {s13-s98}
    79a4:	1920991c 	stmdbne	r0!, {r2, r3, r4, r8, fp, ip, pc}
    79a8:	0a8025d1 	beq	fe0110f4 <end+0xbdf110f4>
    79ac:	08c8973c 	stmiaeq	r8, {r2, r3, r4, r5, r8, r9, sl, ip, pc}^
    79b0:	4164d207 	cmnmi	r4, r7, lsl #4
    79b4:	b346a503 	movtlt	sl, #25859	; 0x6503
    79b8:	61b367c6 			; <UNDEFINED> instruction: 0x61b367c6
    79bc:	a0486d55 	subge	r6, r8, r5, asr sp
    79c0:	cfcad1cc 	svcgt	0x00cad1cc
    79c4:	0d5f5419 	cfldrdeq	mvd5, [pc, #-100]	; 7968 <jpegdata+0x55b8>
    79c8:	0dbbf2f6 	lfmeq	f7, 1, [fp, #984]!	; 0x3d8
    79cc:	00b0f3f7 	ldrshteq	pc, [r0], r7	; <UNPREDICTABLE>
    79d0:	871e006c 	ldrhi	r0, [lr, -ip, rrx]
    79d4:	9c2c0777 	stcls	7, cr0, [ip], #-476	; 0xfffffe24
    79d8:	be38edf7 	mrclt	13, 1, lr, cr8, cr7, {7}
    79dc:	2a3d6a25 	bcs	f62278 <ZAG+0xf54460>
    79e0:	91618a20 	cmnls	r1, r0, lsr #20
    79e4:	02aa4d45 	adceq	r4, sl, #4416	; 0x1140
    79e8:	6d434eb1 	stclvs	14, cr4, [r3, #-708]	; 0xfffffd3c
    79ec:	1203ca32 	andne	ip, r3, #204800	; 0x32000
    79f0:	4ea011c4 	fdvmidm	f1, f0, f4
    79f4:	35716fef 	ldrbcc	r6, [r1, #-4079]!	; 0xfef
    79f8:	f2dd2f38 			; <UNDEFINED> instruction: 0xf2dd2f38
    79fc:	4a53bbbc 	bmi	14f68f4 <ZAG+0x14e8adc>
    7a00:	0a3588b5 	beq	d69cdc <ZAG+0xd5bec4>
    7a04:	257e1abb 	ldrbcs	r1, [lr, #-2747]!	; 0xabb
    7a08:	05a969c8 	streq	r6, [r9, #2504]!	; 0x9c8
    7a0c:	25e3f834 	strbcs	pc, [r3, #2100]!	; 0x834	; <UNPREDICTABLE>
    7a10:	12414040 	subne	r4, r1, #64	; 0x40
    7a14:	26c42640 	strbcs	r2, [r4], r0, asr #12
    7a18:	054a2d47 	strbeq	r2, [sl, #-3399]	; 0xd47
    7a1c:	5a4764a3 	bpl	11e0cb0 <ZAG+0x11d2e98>
    7a20:	5d59ca30 	vldrpl	s25, [r9, #-192]	; 0xffffff40
    7a24:	1b6e8b93 	blne	1baa878 <ZAG+0x1b9ca60>
    7a28:	fd247f8b 	stc2	15, cr7, [r4, #-556]!	; 0xfffffdd4
    7a2c:	e2c08dbf 	sbc	r8, r0, #12224	; 0x2fc0
    7a30:	3d82d841 	stccc	8, cr13, [r2, #260]	; 0x104
    7a34:	f9e0536d 			; <UNDEFINED> instruction: 0xf9e0536d
    7a38:	49a7b5b5 	stmibmi	r7!, {r0, r2, r4, r5, r7, r8, sl, ip, sp, pc}
    7a3c:	be30a56b 	cdplt	5, 3, cr10, cr0, cr11, {3}
    7a40:	43925c95 	orrsmi	r5, r2, #38144	; 0x9500
    7a44:	644ad212 	strbvs	sp, [sl], #-530	; 0x212
    7a48:	e51144a6 	ldr	r4, [r1, #-1190]	; 0x4a6
    7a4c:	046565b5 	strbteq	r6, [r5], #-1461	; 0x5b5
    7a50:	f3e4f534 	vsli.32	d31, d20, #4
    7a54:	874b3d7c 	smlsldxhi	r3, fp, ip, sp
    7a58:	e533f0a9 	ldr	pc, [r3, #-169]!	; 0xa9
    7a5c:	022099ed 	eoreq	r9, r0, #3883008	; 0x3b4000
    7a60:	3e202ea0 	cdpcc	14, 2, cr2, cr0, cr0, {5}
    7a64:	3ec8202d 	cdpcc	0, 12, cr2, cr8, cr13, {1}
    7a68:	6265653a 	rsbvs	r6, r5, #243269632	; 0xe800000
    7a6c:	3a5ac70a 	bcc	16b969c <ZAG+0x16ab884>
    7a70:	8a4d6c95 	bhi	1362ccc <ZAG+0x1354eb4>
    7a74:	8725576b 	strhi	r5, [r5, -fp, ror #14]!
    7a78:	bc2f5a1f 	stclt	10, cr5, [pc], #-124	; 7a04 <jpegdata+0x5654>
    7a7c:	829c3489 	addshi	r3, ip, #-1996488704	; 0x89000000
    7a80:	1504b86d 	strne	fp, [r4, #-2157]	; 0x86d
    7a84:	b63cc95d 			; <UNDEFINED> instruction: 0xb63cc95d
    7a88:	76e1cfdb 	usatvc	ip, #1, fp, asr #31
    7a8c:	efe74ef2 	svc	0x00e74ef2
    7a90:	b853ce78 	ldmdalt	r3, {r3, r4, r5, r6, r9, sl, fp, lr, pc}^
    7a94:	a3b451e8 			; <UNDEFINED> instruction: 0xa3b451e8
    7a98:	13cb5145 	bicne	r5, fp, #1073741841	; 0x40000011
    7a9c:	a03e8905 	eorsge	r8, lr, r5, lsl #18
    7aa0:	79600c6c 	stmdbvc	r0!, {r2, r3, r5, r6, sl, fp}^
    7aa4:	930dad13 	movwls	sl, #56595	; 0xdd13
    7aa8:	b96d01f6 	stmdblt	sp!, {r1, r2, r4, r5, r6, r7, r8}^
    7aac:	6ab7333e 	bvs	fedd47ac <end+0xbecd47ac>
    7ab0:	59afbdd6 	stmibpl	pc!, {r1, r2, r4, r6, r7, r8, sl, fp, ip, sp, pc}	; <UNPREDICTABLE>
    7ab4:	2750989a 			; <UNDEFINED> instruction: 0x2750989a
    7ab8:	9ddc0010 	ldclls	0, cr0, [ip, #64]	; 0x40
    7abc:	884f221f 	stmdahi	pc, {r0, r1, r2, r3, r4, r9, sp}^	; <UNPREDICTABLE>
    7ac0:	1610d91b 			; <UNDEFINED> instruction: 0x1610d91b
    7ac4:	76f44576 			; <UNDEFINED> instruction: 0x76f44576
    7ac8:	b63a92b6 			; <UNDEFINED> instruction: 0xb63a92b6
    7acc:	05af60e7 	streq	r6, [pc, #231]!	; 7bbb <jpegdata+0x580b>
    7ad0:	d9cdb28b 	stmible	sp, {r0, r1, r3, r7, r9, ip, sp, pc}^
    7ad4:	97f0ce91 			; <UNDEFINED> instruction: 0x97f0ce91
    7ad8:	c76ac46d 	strbgt	ip, [sl, -sp, ror #8]!
    7adc:	7f90dbc6 	svcvc	0x0090dbc6
    7ae0:	e71f4b1e 			; <UNDEFINED> instruction: 0xe71f4b1e
    7ae4:	e5f6fed1 	ldrb	pc, [r6, #3793]!	; 0xed1	; <UNPREDICTABLE>
    7ae8:	667e782f 	ldrbtvs	r7, [lr], -pc, lsr #16
    7aec:	865b829d 			; <UNDEFINED> instruction: 0x865b829d
    7af0:	47a6a444 	strmi	sl, [r6, r4, asr #8]!
    7af4:	cb54e1d4 	blgt	154024c <ZAG+0x1532434>
    7af8:	890b71ea 	stmdbhi	fp, {r1, r3, r5, r6, r7, r8, ip, sp, lr}
    7afc:	54481004 	strbpl	r1, [r8], #-4
    7b00:	58886026 	stmpl	r8, {r1, r2, r5, sp, lr}
    7b04:	3e2b5bec 	vnmulcc.f64	d5, d27, d28
    7b08:	c8a9855f 	stmiagt	r9!, {r0, r1, r2, r3, r4, r6, r8, sl, pc}
    7b0c:	7a56c13d 	bvc	15b8008 <ZAG+0x15aa1f0>
    7b10:	d3f4a3cd 	mvnsle	sl, #872415235	; 0x34000003
    7b14:	ee29c22c 	cdp	2, 2, cr12, cr9, cr12, {1}
    7b18:	20902d32 	addscs	r2, r0, r2, lsr sp
    7b1c:	88670182 	stmdahi	r7!, {r1, r7, r8}^
    7b20:	c9db19c8 	ldmibgt	fp, {r3, r6, r7, r8, fp, ip}^
    7b24:	592b5fcb 	stmdbpl	fp!, {r0, r1, r3, r6, r7, r8, r9, sl, fp, ip, lr}
    7b28:	a45cfd24 	ldrbge	pc, [ip], #-3364	; 0xd24	; <UNPREDICTABLE>
    7b2c:	5b63ca80 	blpl	18fa534 <ZAG+0x18ec71c>
    7b30:	189cbb95 	ldmne	ip, {r0, r2, r4, r7, r8, r9, fp, ip, sp, pc}
    7b34:	8c3020b1 	ldchi	0, cr2, [r0], #-708	; 0xfffffd3c
    7b38:	5501eaae 	strpl	lr, [r1, #-2734]	; 0xaae
    7b3c:	7f21411e 	svcvc	0x0021411e
    7b40:	a9cf2d77 	stmibge	pc, {r0, r1, r2, r4, r5, r6, r8, sl, fp, sp}^	; <UNPREDICTABLE>
    7b44:	19e7fdf5 	stmibne	r7!, {r0, r2, r4, r5, r6, r7, r8, sl, fp, ip, sp, lr, pc}^
    7b48:	73a3d4cb 			; <UNDEFINED> instruction: 0x73a3d4cb
    7b4c:	be08be5e 	mcrlt	14, 0, fp, cr8, cr14, {2}
    7b50:	632713d3 	teqvs	r7, #1275068419	; 0x4c000003
    7b54:	2163822d 	cmncs	r3, sp, lsr #4
    7b58:	1b3f7610 	blne	fe53a0 <ZAG+0xfd7588>
    7b5c:	36f62990 	usatcc	r2, #22, r0, lsl #19
    7b60:	c967bcf7 	stmdbgt	r7!, {r0, r1, r2, r4, r5, r6, r7, sl, fp, ip, sp, pc}^
    7b64:	44be9d46 	ldrtmi	r9, [lr], #3398	; 0xd46
    7b68:	0fb492c7 	svceq	0x00b492c7
    7b6c:	77202350 			; <UNDEFINED> instruction: 0x77202350
    7b70:	9fbd4e32 	svcls	0x00bd4e32
    7b74:	fa58c758 	blx	16398dc <ZAG+0x162bac4>
    7b78:	d2faf119 	rscsle	pc, sl, #1073741830	; 0x40000006
    7b7c:	dab12b8d 	ble	fec529b8 <end+0xbeb529b8>
    7b80:	0f72c1ed 	svceq	0x0072c1ed
    7b84:	af5b0491 	svcge	0x005b0491
    7b88:	071b4572 			; <UNDEFINED> instruction: 0x071b4572
    7b8c:	461fc9db 			; <UNDEFINED> instruction: 0x461fc9db
    7b90:	7ddb5665 	ldclvc	6, cr5, [fp, #404]	; 0x194
    7b94:	4fec0089 	svcmi	0x00ec0089
    7b98:	a97dd6a1 	ldmdbge	sp!, {r0, r5, r7, r9, sl, ip, lr, pc}^
    7b9c:	5abd5671 	bpl	fef5d568 <end+0xbee5d568>
    7ba0:	a6a04457 	ssatge	r4, #1, r7, asr #8
    7ba4:	1b264ec0 	blne	99b6ac <ZAG+0x98d894>
    7ba8:	3d267166 	stfccs	f7, [r6, #-408]!	; 0xfffffe68
    7bac:	d807a381 	stmdale	r7, {r0, r7, r8, r9, sp, pc}
    7bb0:	636ed131 	cmnvs	lr, #1073741836	; 0x4000000c
    7bb4:	c6376e95 			; <UNDEFINED> instruction: 0xc6376e95
    7bb8:	476f869a 			; <UNDEFINED> instruction: 0x476f869a
    7bbc:	24f6497f 	ldrbtcs	r4, [r6], #2431	; 0x97f
    7bc0:	6c24517f 	stfvss	f5, [r4], #-508	; 0xfffffe04
    7bc4:	d6e81a48 	strbtle	r1, [r8], r8, asr #20
    7bc8:	9632aa84 	ldrtls	sl, [r2], -r4, lsl #21
    7bcc:	452e886d 	strmi	r8, [lr, #-2157]!	; 0x86d
    7bd0:	496bcc33 	stmdbmi	fp!, {r0, r1, r4, r5, sl, fp, lr, pc}^
    7bd4:	1b73655e 	blne	1ce1154 <ZAG+0x1cd333c>
    7bd8:	c6555284 	ldrbgt	r5, [r5], -r4, lsl #5
    7bdc:	7c05a0c4 	stcvc	0, cr10, [r5], {196}	; 0xc4
    7be0:	dc375287 	lfmle	f5, 4, [r7], #-540	; 0xfffffde4
    7be4:	05d47d23 	ldrbeq	r7, [r4, #3363]	; 0xd23
    7be8:	51a557a3 			; <UNDEFINED> instruction: 0x51a557a3
    7bec:	bb2f3543 	bllt	bd5100 <ZAG+0xbc72e8>
    7bf0:	e9440349 	stmdb	r4, {r0, r3, r6, r8, r9}^
    7bf4:	c63ed547 	ldrtgt	sp, [lr], -r7, asr #10
    7bf8:	f443983a 	vst2.8	{d25-d26}, [r3 :256], sl
    7bfc:	a76ed930 			; <UNDEFINED> instruction: 0xa76ed930
    7c00:	94c407ae 	strbls	r0, [r4], #1966	; 0x7ae
    7c04:	b2809499 	addlt	r9, r0, #-1728053248	; 0x99000000
    7c08:	49221118 	stmdbmi	r2!, {r3, r4, r8, ip}
    7c0c:	68032295 	stmdavs	r3, {r0, r2, r4, r7, r9, sp}
    7c10:	61412a98 			; <UNDEFINED> instruction: 0x61412a98
    7c14:	3e94d005 	cdpcc	0, 9, cr13, cr4, cr5, {0}
    7c18:	6ba81e4b 	blvs	fea0f54c <end+0xbe90f54c>
    7c1c:	b447170c 	strblt	r1, [r7], #-1804	; 0x70c
    7c20:	76c4dce5 	strbvc	sp, [r4], r5, ror #25
    7c24:	1549c32d 	strbne	ip, [r9, #-813]	; 0x32d
    7c28:	57c75429 	strbpl	r5, [r7, r9, lsr #8]
    7c2c:	b29051ae 	addslt	r5, r0, #-2147483605	; 0x8000002b
    7c30:	7266fbbf 	rsbvc	pc, r6, #195584	; 0x2fc00
    7c34:	b86bb4c9 	stmdalt	fp!, {r0, r3, r6, r7, sl, ip, sp, pc}^
    7c38:	92151491 	andsls	r1, r5, #-1862270976	; 0x91000000
    7c3c:	eda11820 	stc	8, cr1, [r1, #128]!	; 0x80
    7c40:	b3646cb7 	cmnlt	r4, #46848	; 0xb700
    7c44:	a99753a5 	ldmibge	r7, {r0, r2, r5, r7, r8, r9, ip, lr}
    7c48:	e6496afb 			; <UNDEFINED> instruction: 0xe6496afb
    7c4c:	c456b64f 	ldrbgt	fp, [r6], #-1615	; 0x64f
    7c50:	d009e401 	andle	lr, r9, r1, lsl #8
    7c54:	7c22b02b 	stcvc	0, cr11, [r2], #-172	; 0xffffff54
    7c58:	54228895 	strtpl	r8, [r2], #-2197	; 0x895
    7c5c:	b99f2c86 	ldmiblt	pc, {r1, r2, r7, sl, fp, sp}	; <UNPREDICTABLE>
    7c60:	fc5a8b62 	mrrc2	11, 6, r8, sl, cr2
    7c64:	b399bc03 	orrslt	fp, r9, #768	; 0x300
    7c68:	5149cc52 	cmppl	r9, r2, asr ip
    7c6c:	ce902992 	mrcgt	9, 4, r2, cr0, cr2, {4}
    7c70:	95372a76 	ldrls	r2, [r7, #-2678]!	; 0xa76
    7c74:	c03caa3a 	eorsgt	sl, ip, sl, lsr sl
    7c78:	54baa5aa 	ldrtpl	sl, [sl], #1450	; 0x5aa
    7c7c:	82658d69 	rsbhi	r8, r5, #6720	; 0x1a40
    7c80:	3ea550c8 	cdpcc	0, 10, cr5, cr5, cr8, {6}
    7c84:	e52c297a 	str	r2, [ip, #-2426]!	; 0x97a
    7c88:	cb25c1ad 	blgt	978344 <ZAG+0x96a52c>
    7c8c:	63486297 	movtvs	r6, #33431	; 0x8297
    7c90:	649de589 	ldrvs	lr, [sp], #1417	; 0x589
    7c94:	f651628a 			; <UNDEFINED> instruction: 0xf651628a
    7c98:	ac02298a 	stcge	9, cr2, [r2], {138}	; 0x8a
    7c9c:	19a6be61 	stmibne	r6!, {r0, r5, r6, r9, sl, fp, ip, sp, pc}
    7ca0:	2ee4a304 	cdpcs	3, 14, cr10, cr4, cr4, {0}
    7ca4:	7a4ddecb 	bvc	137f7d8 <ZAG+0x13719c0>
    7ca8:	3dea6557 	cfstr64cc	mvdx6, [sl, #348]!	; 0x15c
    7cac:	3d1f832a 	ldccc	3, cr8, [pc, #-168]	; 7c0c <jpegdata+0x585c>
    7cb0:	0200896c 	andeq	r8, r0, #108, 18	; 0x1b0000
    7cb4:	92b98f09 	adcsls	r8, r9, #9, 30	; 0x24
    7cb8:	3aa2e904 	bcc	fe8c20d0 <end+0xbe7c20d0>
    7cbc:	257cf2b7 	ldrbcs	pc, [ip, #-695]!	; 0x2b7	; <UNPREDICTABLE>
    7cc0:	1c67bdfd 	stclne	13, cr11, [r7], #-1012	; 0xfffffc0c
    7cc4:	214d0b71 	hvccs	53425	; 0xd0b1
    7cc8:	c14c4e15 	cmpgt	ip, r5, lsl lr
    7ccc:	0ca8ab50 	vstmiaeq	r8!, {d10-<overflow reg d49>}
    7cd0:	92d451b3 	sbcsls	r5, r4, #-1073741780	; 0xc000002c
    7cd4:	69f9f248 	ldmibvs	r9!, {r3, r6, r9, ip, sp, lr, pc}^
    7cd8:	ed00ff94 	stc	15, cr15, [r0, #-592]	; 0xfffffdb0
    7cdc:	33f1939c 	mvnscc	r9, #156, 6	; 0x70000002
    7ce0:	6d19a773 	ldcvs	7, cr10, [r9, #-460]	; 0xfffffe34
    7ce4:	e4526735 	ldrb	r6, [r2], #-1845	; 0x735
    7ce8:	d1e8b730 	mvnle	fp, r0, lsr r7
    7cec:	5cec29e1 	stclpl	9, cr2, [ip], #900	; 0x384
    7cf0:	dbc3d0a8 	blle	ff0fbf98 <end+0xbeffbf98>
    7cf4:	4f7b1559 	svcmi	0x007b1559
    7cf8:	74db0109 	ldrbvc	r0, [fp], #265	; 0x109
    7cfc:	a488380a 	strge	r3, [r8], #2058	; 0x80a
    7d00:	aa03c6dc 	bge	f9878 <ZAG+0xeba60>
    7d04:	67b4903c 			; <UNDEFINED> instruction: 0x67b4903c
    7d08:	de72d7d2 	mrcle	7, 3, sp, cr2, cr2, {6}
    7d0c:	c0746a0b 	rsbsgt	r6, r4, fp, lsl #20
    7d10:	22093243 	andcs	r3, r9, #805306372	; 0x30000004
    7d14:	48fb0134 	ldmmi	fp!, {r2, r4, r5, r8}^
    7d18:	4104f73b 	tstmi	r4, fp, lsr r7
    7d1c:	b9b7f453 	ldmiblt	r7!, {r0, r1, r4, r6, sl, ip, sp, lr, pc}
    7d20:	5c16f29f 	lfmpl	f7, 1, [r6], {159}	; 0x9f
    7d24:	be53db92 	vmovlt.s8	sp, d19[0]
    7d28:	b4b555a5 	ldrtlt	r5, [r5], #1445	; 0x5a5
    7d2c:	8e217969 	cdphi	9, 2, cr7, cr1, cr9, {3}
    7d30:	bb90c06a 	bllt	fe437ee0 <end+0xbe337ee0>
    7d34:	403acb24 	eorsmi	ip, sl, r4, lsr #22
    7d38:	29d5e2ab 	ldmibcs	r5, {r0, r1, r3, r5, r7, r9, sp, lr, pc}^
    7d3c:	857e75a5 	ldrbhi	r7, [lr, #-1445]!	; 0x5a5
    7d40:	9381d5fa 	orrls	sp, r1, #1048576000	; 0x3e800000
    7d44:	61fdeb4a 	mvnsvs	lr, sl, asr #22
    7d48:	d47a8406 	ldrbtle	r8, [sl], #-1030	; 0x406
    7d4c:	4eecd9b1 	mcrmi	9, 7, sp, cr12, cr1, {5}
    7d50:	1ca15c30 	stcne	12, cr5, [r1], #192	; 0xc0
    7d54:	da79879d 	ble	1e69bd0 <ZAG+0x1e5bdb8>
    7d58:	1a8a6279 	bne	fe2a0744 <end+0xbe1a0744>
    7d5c:	047b1ceb 	ldrbteq	r1, [fp], #-3307	; 0xceb
    7d60:	0612c17e 			; <UNDEFINED> instruction: 0x0612c17e
    7d64:	b9cd7b3e 	stmiblt	sp, {r1, r2, r3, r4, r5, r8, r9, fp, ip, sp, lr}^
    7d68:	b7bc9d00 	ldrlt	r9, [ip, r0, lsl #26]!
    7d6c:	7cdcc725 	ldclvc	7, cr12, [ip], {37}	; 0x25
    7d70:	40cb6d15 	sbcmi	r6, fp, r5, lsl sp
    7d74:	03484ccc 	movteq	r4, #36044	; 0x8ccc
    7d78:	90942f15 	addsls	r2, r4, r5, lsl pc
    7d7c:	6e44ea7e 	mcrvs	10, 2, lr, cr4, cr14, {3}
    7d80:	a7ebf741 	strbge	pc, [fp, r1, asr #14]!	; <UNPREDICTABLE>
    7d84:	5bbbdc0e 	blpl	feefedc4 <end+0xbedfedc4>
    7d88:	f9cd32de 			; <UNDEFINED> instruction: 0xf9cd32de
    7d8c:	6af42c85 	bvs	ffd12fa8 <end+0xbfc12fa8>
    7d90:	ca88c556 	bgt	fe2392f0 <end+0xbe1392f0>
    7d94:	33b32a14 			; <UNDEFINED> instruction: 0x33b32a14
    7d98:	ce65dbe4 	vnmulgt.f64	d29, d21, d20
    7d9c:	0d588f50 	ldcleq	15, cr8, [r8, #-320]	; 0xfffffec0
    7da0:	75513a12 	ldrbvc	r3, [r1, #-2578]	; 0xa12
    7da4:	cdda525b 	lfmgt	f5, 2, [sl, #364]	; 0x16c
    7da8:	36c5ab67 	strbcc	sl, [r5], r7, ror #22
    7dac:	63ba3435 			; <UNDEFINED> instruction: 0x63ba3435
    7db0:	fc351c92 	ldc2	12, cr1, [r5], #-584	; 0xfffffdb8
    7db4:	fbf63c4e 	blx	ffd96ef6 <end+0xbfc96ef6>
    7db8:	e8ccba26 	stmia	ip, {r1, r2, r5, r9, fp, ip, sp, pc}^
    7dbc:	21a36de7 			; <UNDEFINED> instruction: 0x21a36de7
    7dc0:	43aacaf9 			; <UNDEFINED> instruction: 0x43aacaf9
    7dc4:	2796bd6e 	ldrcs	fp, [r6, lr, ror #26]
    7dc8:	3692d087 	ldrcc	sp, [r2], r7, lsl #1
    7dcc:	d84aa936 	stmdale	sl, {r1, r2, r4, r5, r8, fp, sp, pc}^
    7dd0:	72ee6a3e 	rscvc	r6, lr, #253952	; 0x3e000
    7dd4:	78074122 	stmdavc	r7, {r1, r5, r8, lr}
    7dd8:	c9445a02 	stmdbgt	r4, {r1, r9, fp, ip, lr}^
    7ddc:	8cdd9731 	ldclhi	7, cr9, [sp], {49}	; 0x31
    7de0:	38d1fcc8 	ldmcc	r1, {r3, r6, r7, sl, fp, ip, sp, lr, pc}^
    7de4:	b6b6240b 	ldrtlt	r2, [r6], fp, lsl #8
    7de8:	634db52e 	movtvs	fp, #54574	; 0xd52e
    7dec:	7654b550 			; <UNDEFINED> instruction: 0x7654b550
    7df0:	0185fcdc 	ldrdeq	pc, [r5, ip]
    7df4:	c2f8f51f 	rscsgt	pc, r8, #130023424	; 0x7c00000
    7df8:	98e51196 	stmials	r5!, {r1, r2, r4, r7, r8, ip}^
    7dfc:	1f202f03 	svcne	0x00202f03
    7e00:	8b370f1a 	blhi	dcba70 <ZAG+0xdbdc58>
    7e04:	9995765c 	ldmibls	r5, {r2, r3, r4, r6, r9, sl, ip, sp, lr}
    7e08:	219e6c5e 	orrscs	r6, lr, lr, asr ip
    7e0c:	2c1d48e6 	ldccs	8, cr4, [sp], {230}	; 0xe6
    7e10:	f134abc8 			; <UNDEFINED> instruction: 0xf134abc8
    7e14:	3ce06020 	stclcc	0, cr6, [r0], #128	; 0x80
    7e18:	04c8eb6c 	strbeq	lr, [r8], #2924	; 0xb6c
    7e1c:	c8931b66 	ldmgt	r3, {r1, r2, r5, r6, r8, r9, fp, ip}
    7e20:	cdc81227 	sfmgt	f1, 2, [r8, #156]	; 0x9c
    7e24:	a5a850cd 	strge	r5, [r8, #205]!	; 0xcd
    7e28:	b7501ead 	ldrblt	r1, [r0, -sp, lsr #29]
    7e2c:	25b5482b 	ldrcs	r4, [r5, #2091]!	; 0x82b
    7e30:	8fa13a39 	svchi	0x00a13a39
    7e34:	5000ff71 	andpl	pc, r0, r1, ror pc	; <UNPREDICTABLE>
    7e38:	10200906 	eorne	r0, r0, r6, lsl #18
    7e3c:	1ad13b31 	bne	ff456b08 <end+0xbf356b08>
    7e40:	dbc959ea 	blle	ff25e5f0 <end+0xbf15e5f0>
    7e44:	5db9175c 	ldcpl	7, cr1, [r9, #368]!	; 0x170
    7e48:	04094025 	streq	r4, [r9], #-37	; 0x25
    7e4c:	11135402 	tstne	r3, r2, lsl #8
    7e50:	92600aa6 	rsbls	r0, r0, #679936	; 0xa6000
    7e54:	3289d701 	addcc	sp, r9, #262144	; 0x40000
    7e58:	518b0103 	orrpl	r0, fp, r3, lsl #2
    7e5c:	6b2f277a 	blvs	bd1c4c <ZAG+0xbc3e34>
    7e60:	d1e9e752 	mvnle	lr, r2, asr r7
    7e64:	c35cb1d3 	cmpgt	ip, #-1073741772	; 0xc0000034
    7e68:	cd2bcae8 	vstmdbgt	fp!, {s24-s255}
    7e6c:	649987d5 	ldrvs	r8, [r9], #2005	; 0x7d5
    7e70:	ee15ee57 	mrc	14, 0, lr, cr5, cr7, {2}
    7e74:	ce12c410 	cfmvrdlgt	ip, mvd2
    7e78:	283fa7bb 	ldmdacs	pc!, {r0, r1, r3, r4, r5, r7, r8, r9, sl, sp, pc}	; <UNPREDICTABLE>
    7e7c:	bd7de30f 	ldcllt	3, cr14, [sp, #-60]!	; 0xffffffc4
    7e80:	fe6efb5a 	vselge.f64	d31, d14, d10
    7e84:	69e499e3 	stmibvs	r4!, {r0, r1, r5, r6, r7, r8, fp, ip, pc}^
    7e88:	f48a705a 	vst1.8			; <UNDEFINED> instruction: 0xf48a705a
    7e8c:	4822da38 	stmdami	r2!, {r3, r4, r5, r9, fp, ip, lr, pc}
    7e90:	6683d93e 			; <UNDEFINED> instruction: 0x6683d93e
    7e94:	16c47046 	strbne	r7, [r4], r6, asr #32
    7e98:	7b261966 	blvc	98e438 <ZAG+0x980620>
    7e9c:	8ea90fa6 	cdphi	15, 10, cr0, cr9, cr6, {5}
    7ea0:	bd9dfca3 	ldclt	12, cr15, [sp, #652]	; 0x28c
    7ea4:	ad672b3b 	fstmdbxge	r7!, {d18-d46}	;@ Deprecated
    7ea8:	d3a5567e 			; <UNDEFINED> instruction: 0xd3a5567e
    7eac:	46407fe8 	strbmi	r7, [r0], -r8, ror #31
    7eb0:	408f8c33 	addmi	r8, pc, r3, lsr ip	; <UNPREDICTABLE>
    7eb4:	d1746c18 	cmnle	r4, r8, lsl ip
    7eb8:	27849ef8 			; <UNDEFINED> instruction: 0x27849ef8
    7ebc:	863475d1 			; <UNDEFINED> instruction: 0x863475d1
    7ec0:	7a05b3a6 	bvc	174d60 <ZAG+0x166f48>
    7ec4:	8cac50d2 	stchi	0, cr5, [ip], #840	; 0x348
    7ec8:	2b52ad23 	blcs	14b335c <ZAG+0x14a5544>
    7ecc:	baabce32 	blt	feafb79c <end+0xbe9fb79c>
    7ed0:	7fcc92b3 	svcvc	0x00cc92b3
    7ed4:	2a1e792a 	bcs	7a6384 <ZAG+0x79856c>
    7ed8:	8ffc85db 	svchi	0x00fc85db
    7edc:	fc4d9fb3 	mcrr2	15, 11, r9, sp, cr3
    7ee0:	d56ae5d5 	strble	lr, [sl, #-1493]!	; 0x5d5
    7ee4:	32408d1e 	subcc	r8, r0, #1920	; 0x780
    7ee8:	ff715a06 			; <UNDEFINED> instruction: 0xff715a06
    7eec:	5300ca00 	movwpl	ip, #2560	; 0xa00
    7ef0:	24419d00 	strbcs	r9, [r1], #-3328	; 0xd00
    7ef4:	2c4ec500 	cfstr64cs	mvdx12, [lr], {-0}
    7ef8:	947a4008 	ldrbtls	r4, [sl], #-8
    7efc:	38547158 	ldmdacc	r4, {r3, r4, r6, r8, ip, sp, lr}^
    7f00:	82a8a1fa 	adchi	sl, r8, #-2147483586	; 0x8000003e
    7f04:	17a0a0a9 	strne	sl, [r0, r9, lsr #1]!
    7f08:	b624663f 			; <UNDEFINED> instruction: 0xb624663f
    7f0c:	152609e2 	strne	r0, [r6, #-2530]!	; 0x9e2
    7f10:	948c54a5 	strls	r5, [ip], #1189	; 0x4a5
    7f14:	4347a886 	movtmi	sl, #30854	; 0x7886
    7f18:	13d1495d 	bicsne	r4, r1, #1523712	; 0x174000
    7f1c:	58620c6b 	stmdapl	r2!, {r0, r1, r3, r5, r6, sl, fp}^
    7f20:	258f31a1 	strcs	r3, [pc, #417]	; 80c9 <jpegdata+0x5d19>
    7f24:	8ed96d04 	cdphi	13, 13, cr6, cr9, cr4, {0}
    7f28:	0f6efb6d 	svceq	0x006efb6d
    7f2c:	36928a9d 			; <UNDEFINED> instruction: 0x36928a9d
    7f30:	1b9fc76f 	blne	fe7f9cf4 <end+0xbe6f9cf4>
    7f34:	0afeb1ed 	beq	fffb46f0 <end+0xbfeb46f0>
    7f38:	3ae776fe 	bcc	ff9e5b38 <end+0xbf8e5b38>
    7f3c:	71156bbc 			; <UNDEFINED> instruction: 0x71156bbc
    7f40:	b8913afc 	ldmlt	r1, {r2, r3, r4, r5, r6, r7, r9, fp, ip, sp}
    7f44:	23b19fda 			; <UNDEFINED> instruction: 0x23b19fda
    7f48:	53f78144 	mvnspl	r8, #68, 2
    7f4c:	2083f6b1 			; <UNDEFINED> instruction: 0x2083f6b1
    7f50:	6f3777ea 	svcvs	0x003777ea
    7f54:	9b0a570e 	blls	29db94 <ZAG+0x28fd7c>
    7f58:	21fd4c2d 	mvnscs	r4, sp, lsr #24
    7f5c:	e4b30c80 	ldrt	r0, [r3], #3200	; 0xc80
    7f60:	58952101 	ldmpl	r5, {r0, r8, sp}
    7f64:	c12b00ff 	strdgt	r0, [fp, -pc]!
    7f68:	4404b21e 	strmi	fp, [r4], #-542	; 0x21e
    7f6c:	494f9f2a 	stmdbmi	pc, {r1, r3, r5, r8, r9, sl, fp, ip, pc}^	; <UNPREDICTABLE>
    7f70:	c5ca063e 	strbgt	r0, [sl, #1598]	; 0x63e
    7f74:	8ab96a52 	bhi	fee628c4 <end+0xbed628c4>
    7f78:	b14552ae 	smlaltblt	r5, r5, lr, r2	; <UNPREDICTABLE>
    7f7c:	104f8213 	subne	r8, pc, r3, lsl r2	; <UNPREDICTABLE>
    7f80:	dc48eac3 	mcrrle	10, 12, lr, r8, cr3
    7f84:	3f3e7571 	svccc	0x003e7571
    7f88:	f5f9113b 			; <UNDEFINED> instruction: 0xf5f9113b
    7f8c:	aebcf3ee 	cdpge	3, 11, cr15, cr12, cr14, {7}
    7f90:	16ee9e38 			; <UNDEFINED> instruction: 0x16ee9e38
    7f94:	6c2a9777 	stcvs	7, cr9, [sl], #-476	; 0xfffffe24
    7f98:	ebc020ab 	bl	ff01024c <end+0xbef1024c>
    7f9c:	45462414 	strbmi	r2, [r6, #-1044]	; 0x414
    7fa0:	46f3c982 	ldrbtmi	ip, [r3], r2, lsl #19
    7fa4:	1a10cf07 	bne	43bbc8 <ZAG+0x42ddb0>
    7fa8:	03480c4b 	movteq	r0, #35915	; 0x8c4b
    7fac:	db1e7b6c 	blle	7a6d64 <ZAG+0x798f4c>
    7fb0:	be14ed92 	mrclt	13, 0, lr, cr4, cr2, {4}
    7fb4:	bcdf6aa3 	vldmialt	pc, {s13-s175}
    7fb8:	50e4e7a4 	rscpl	lr, r4, r4, lsr #15
    7fbc:	311475de 			; <UNDEFINED> instruction: 0x311475de
    7fc0:	60964225 	addsvs	r4, r6, r5, lsr #4
    7fc4:	b302838d 	movwlt	r8, #9101	; 0x238d
    7fc8:	8488334f 	strhi	r3, [r8], #847	; 0x34f
    7fcc:	2f58ea60 	svccs	0x0058ea60
    7fd0:	dab254ac 	ble	fec9d288 <end+0xbeb9d288>
    7fd4:	71604da3 	cmnvc	r0, r3, lsr #27
    7fd8:	dfc6d990 	svcle	0x00c6d990
    7fdc:	63ed94bd 	mvnvs	r9, #-1124073472	; 0xbd000000
    7fe0:	e8c87833 	stmia	r8, {r0, r1, r4, r5, fp, ip, sp, lr}^
    7fe4:	5ab1decd 	bpl	fec7fb20 <end+0xbeb7fb20>
    7fe8:	6eafa059 	mcrvs	0, 5, sl, cr15, cr9, {2}
    7fec:	cacd4268 	bgt	ff358994 <end+0xbf258994>
    7ff0:	66588404 	ldrbvs	r8, [r8], -r4, lsl #8
    7ff4:	50286166 	eorpl	r6, r8, r6, ror #2
    7ff8:	cb0fbbe9 	blgt	3f6fa4 <ZAG+0x3e918c>
    7ffc:	22b7f629 	adcscs	pc, r7, #42991616	; 0x2900000
    8000:	25bf367b 	ldrcs	r3, [pc, #1659]!	; 8683 <jpegdata+0x62d3>
    8004:	2c925dc7 	ldccs	13, cr5, [r2], {199}	; 0xc7
    8008:	bc6935c0 	cfstr64lt	mvdx3, [r9], #-768	; 0xfffffd00
    800c:	5c3a98af 	ldcpl	8, cr9, [sl], #-700	; 0xfffffd44
    8010:	55ed4a1b 	strbpl	r4, [sp, #2587]!	; 0xa1b
    8014:	26caa804 	strbcs	sl, [sl], r4, lsl #16
    8018:	94b3009b 	ldrtls	r0, [r3], #155	; 0x9b
    801c:	7d9c733f 	ldcvc	3, cr7, [ip, #252]	; 0xfc
    8020:	00fff00e 	rscseq	pc, pc, lr
    8024:	52ade60d 	adcpl	lr, sp, #13631488	; 0xd00000
    8028:	37bed56e 	ldrcc	sp, [lr, lr, ror #10]!
    802c:	9011204f 	andsls	r2, r1, pc, asr #32
    8030:	63552b17 	cmpvs	r5, #23552	; 0x5c00
    8034:	3c755a35 	ldclcc	10, cr5, [r5], #-212	; 0xffffff2c
    8038:	45ac8058 	strmi	r8, [ip, #88]!	; 0x58
    803c:	26fa7240 	ldrbtcs	r7, [sl], r0, asr #4
    8040:	ed6bf74d 	stcl	7, cr15, [fp, #-308]!	; 0xfffffecc
    8044:	f37443b3 	vcge.u<illegal width 64>	d20, d20, d19
    8048:	68c7831d 	stmiavs	r7, {r0, r2, r3, r4, r8, r9, pc}^
    804c:	6a2b746b 	bvs	ae5200 <ZAG+0xad73e8>
    8050:	9b58754c 	blls	1625588 <ZAG+0x1617770>
    8054:	7ab78b23 	bvc	fedeace8 <end+0xbeceace8>
    8058:	3be6c977 	blcc	ff9ba63c <end+0xbf8ba63c>
    805c:	de15a4f2 	mrcle	4, 0, sl, cr5, cr2, {7}
    8060:	771424bc 			; <UNDEFINED> instruction: 0x771424bc
    8064:	e9ec1ce7 	stmib	ip!, {r0, r1, r2, r5, r6, r7, sl, fp, ip}^
    8068:	83201e1f 	teqhi	r0, #496	; 0x1f0
    806c:	d1a362c7 			; <UNDEFINED> instruction: 0xd1a362c7
    8070:	5eeed13e 	mcrpl	1, 7, sp, cr14, cr14, {1}
    8074:	56af9253 	ssatpl	r9, #16, r3, asr #4
    8078:	ff4921bf 			; <UNDEFINED> instruction: 0xff4921bf
    807c:	98596f00 	ldmdals	r9, {r8, r9, sl, fp, sp, lr}^
    8080:	04576cd2 	ldrbeq	r6, [r7], #-3282	; 0xcd2
    8084:	ce60910b 	lgngts	f1, #3.0
    8088:	54fa9802 	ldrbtpl	r9, [sl], #2050	; 0x802
    808c:	02330431 	eorseq	r0, r3, #822083584	; 0x31000000
    8090:	c3744334 	cmngt	r4, #52, 6	; 0xd0000000
    8094:	d85858cc 	ldmdale	r8, {r2, r3, r6, r7, fp, ip, lr}^
    8098:	b24e0bd0 	sublt	r0, lr, #208, 22	; 0x34000
    809c:	f940947c 			; <UNDEFINED> instruction: 0xf940947c
    80a0:	81244176 	teqhi	r4, r6, ror r1
    80a4:	3ab6a4b0 	bcc	fedb136c <end+0xbecb136c>
    80a8:	523a2b96 	eorspl	r2, sl, #153600	; 0x25800
    80ac:	e9419009 	stmdb	r1, {r0, r3, ip, pc}^
    80b0:	dbcbedcf 	blle	ff3037f4 <end+0xbf2037f4>
    80b4:	5ad18036 	bpl	ff468194 <end+0xbf368194>
    80b8:	5087fa13 	addpl	pc, r7, r3, lsl sl	; <UNPREDICTABLE>
    80bc:	a9bd25e1 	ldmibge	sp!, {r0, r5, r6, r7, r8, sl, sp}
    80c0:	066abda3 	strbteq	fp, [sl], -r3, lsr #27
    80c4:	dabc7b9e 	ble	fef26f44 <end+0xbee26f44>
    80c8:	8d151334 	ldchi	3, cr1, [r5, #-208]	; 0xffffff30
    80cc:	4fb81122 	svcmi	0x00b81122
    80d0:	8f59d5f8 	svchi	0x0059d5f8
    80d4:	52a5ddef 	adcpl	sp, r5, #15296	; 0x3bc0
    80d8:	5f42fd42 	svcpl	0x0042fd42
    80dc:	dfdc7373 	svcle	0x00dc7373
    80e0:	3a0ec923 	bcc	3ba574 <ZAG+0x3ac75c>
    80e4:	455aa8d2 	ldrbmi	sl, [sl, #-2258]	; 0x8d2
    80e8:	7a0da015 	bvc	370144 <ZAG+0x36232c>
    80ec:	27482cf2 			; <UNDEFINED> instruction: 0x27482cf2
    80f0:	973f90ea 	ldrls	r9, [pc, -sl, ror #1]!
    80f4:	a3ef7d4a 	mvnge	r7, #4736	; 0x1280
    80f8:	0bf75c76 	bleq	ffddf2d8 <end+0xbfcdf2d8>
    80fc:	79aeb4da 	stmibvc	lr!, {r1, r3, r4, r6, r7, sl, ip, sp, pc}
    8100:	d3ca4ccb 	bicle	r4, sl, #51968	; 0xcb00
    8104:	a0ce8872 	sbcge	r8, lr, r2, ror r8
    8108:	ad40a53b 	cfstr64ge	mvdx10, [r0, #-236]	; 0xffffff14
    810c:	046a914d 	strbteq	r9, [sl], #-333	; 0x14d
    8110:	bc3aa9fa 	ldclt	9, cr10, [sl], #-1000	; 0xfffffc18
    8114:	b154ace2 	cmplt	r4, r2, ror #25
    8118:	8534311e 	ldrhi	r3, [r4, #-286]!	; 0x11e
    811c:	b3f76c1d 	mvnslt	r6, #7424	; 0x1d00
    8120:	9ab8fa38 	bls	fee46a08 <end+0xbed46a08>
    8124:	c81232cc 	ldmdagt	r2, {r2, r3, r6, r7, r9, ip, sp}
    8128:	bac59c27 	blt	ff16f1cc <end+0xbf06f1cc>
    812c:	08c135a4 	stmiaeq	r1, {r2, r5, r7, r8, sl, ip, sp}^
    8130:	be1c7765 	cdplt	7, 1, cr7, cr12, cr5, {3}
    8134:	505f34c0 	subspl	r3, pc, r0, asr #9
    8138:	c6b2931b 	ssatgt	r9, #19, fp, lsl #6
    813c:	6cac8b15 	fstmiaxvs	ip!, {d8-d17}	;@ Deprecated
    8140:	36b1802b 	ldrtcc	r8, [r1], fp, lsr #32
    8144:	b9b8811c 	ldmiblt	r8!, {r2, r3, r4, r8, pc}
    8148:	2a955ea6 	bcs	fe55fbe8 <end+0xbe45fbe8>
    814c:	71ec0264 	mvnvc	r0, r4, ror #4
    8150:	78d8ed43 	ldmvc	r8, {r0, r1, r6, r8, sl, fp, sp, lr, pc}^
    8154:	901a19fd 			; <UNDEFINED> instruction: 0x901a19fd
    8158:	0ae618b0 	beq	ff98e420 <end+0xbf88e420>
    815c:	d4b9f892 	ldrtle	pc, [r9], #2194	; 0x892	; <UNPREDICTABLE>
    8160:	769f56a7 	ldrvc	r5, [pc], r7, lsr #13
    8164:	bb7bfd76 	bllt	1f07744 <ZAG+0x1ef992c>
    8168:	ee76ca5b 	mrc	10, 3, ip, cr6, cr11, {2}
    816c:	c7c3822a 	strbgt	r8, [r3, sl, lsr #4]
    8170:	b73f2d27 	ldrlt	r2, [pc, -r7, lsr #26]!
    8174:	c531c4a6 	ldrgt	ip, [r1, #-1190]!	; 0x4a6
    8178:	793945dd 	ldmdbvc	r9!, {r0, r2, r3, r4, r6, r7, r8, sl, lr}
    817c:	2b9ba670 	blcs	fe6f1b44 <end+0xbe5f1b44>
    8180:	80a854a9 	adchi	r5, r8, r9, lsr #9
    8184:	339f4486 	orrscc	r4, pc, #-2046820352	; 0x86000000
    8188:	732daf87 	teqvc	sp, #540	; 0x21c
    818c:	45129c7a 	ldrmi	r9, [r2, #-3194]	; 0xc7a
    8190:	84a66537 	strthi	r6, [r6], #1335	; 0x537
    8194:	52ac2247 	adcpl	r2, ip, #1879048196	; 0x70000004
    8198:	1b56e476 	blne	15c1378 <ZAG+0x15b3560>
    819c:	64a9fd6d 	strtvs	pc, [r9], #3437	; 0xd6d
    81a0:	543f9e11 	ldrtpl	r9, [pc], #-3601	; 81a8 <jpegdata+0x5df8>
    81a4:	06a4e266 	strteq	lr, [r4], r6, ror #4
    81a8:	f3ddeb1b 			; <UNDEFINED> instruction: 0xf3ddeb1b
    81ac:	37b9a97c 			; <UNDEFINED> instruction: 0x37b9a97c
    81b0:	ee9f85dc 	mrc	5, 4, r8, cr15, cr12, {6}
    81b4:	03e6c32c 	mvneq	ip, #44, 6	; 0xb0000000
    81b8:	00890423 	addeq	r0, r9, r3, lsr #8
    81bc:	22d9e310 	sbcscs	lr, r9, #16, 6	; 0x40000000
    81c0:	315ce614 	cmpcc	ip, r4, lsl r6
    81c4:	6057e423 	subsvs	lr, r7, r3, lsr #8
    81c8:	a1fd243a 	mvnsge	r2, sl, lsr r4
    81cc:	6c6c676d 	stclvs	7, cr6, [ip], #-436	; 0xfffffe4c
    81d0:	0b4d6eac 	bleq	1363c88 <ZAG+0x1355e70>
    81d4:	881a9890 	ldmdahi	sl, {r4, r7, fp, ip, pc}
    81d8:	4b1992c0 	blmi	66cce0 <ZAG+0x65eec8>
    81dc:	3fb18e2e 	svccc	0x00b18e2e
    81e0:	531488f8 	tstpl	r4, #248, 16	; 0xf80000
    81e4:	34535d65 	ldrbcc	r5, [r3], #-3429	; 0xd65
    81e8:	b9ba8ec4 	ldmiblt	sl!, {r2, r6, r7, r9, sl, fp, pc}
    81ec:	437f1b2d 	cmnmi	pc, #46080	; 0xb400
    81f0:	882b9be0 	stmdahi	fp!, {r5, r6, r7, r8, r9, fp, ip, pc}
    81f4:	76f3f9b0 			; <UNDEFINED> instruction: 0x76f3f9b0
    81f8:	c5d3b3ac 	ldrbgt	fp, [r3, #940]	; 0x3ac
    81fc:	335b19c1 	cmpcc	fp, #3162112	; 0x304000
    8200:	2a9214cb 	bcs	fe48d534 <end+0xbe38d534>
    8204:	95798921 	ldrbls	r8, [r9, #-2337]!	; 0x921
    8208:	3a38552c 	bcc	e1d6c0 <ZAG+0xe0f8a8>
    820c:	e14c3e37 	cmp	ip, r7, lsr lr
    8210:	540be276 	strpl	lr, [fp], #-630	; 0x276
    8214:	4ef84eb9 	mrcmi	14, 7, r4, cr8, cr9, {5}
    8218:	6812af52 	ldmdavs	r2, {r1, r4, r6, r8, r9, sl, fp, sp, pc}
    821c:	ecae4850 	stc	8, cr4, [lr], #320	; 0x140
    8220:	1751b73c 	smmlarne	r1, ip, r7, fp
    8224:	8230883f 	eorshi	r8, r0, #4128768	; 0x3f0000
    8228:	9072cd00 	rsbsls	ip, r2, r0, lsl #26
    822c:	48edd0c1 	stmiami	sp!, {r0, r6, r7, ip, lr, pc}^
    8230:	5c65a660 	stclpl	6, cr10, [r5], #-384	; 0xfffffe80
    8234:	e2b8e957 	adcs	lr, r8, #1425408	; 0x15c000
    8238:	78e75f68 	stmiavc	r7!, {r3, r5, r6, r8, r9, sl, fp, ip, lr}^
    823c:	954695e5 	strbls	r9, [r6, #-1509]	; 0x5e5
    8240:	7e21a142 	absvcsm	f2, f2
    8244:	b4583241 	ldrblt	r3, [r8], #-577	; 0x241
    8248:	4d534134 	ldfmie	f4, [r3, #-208]	; 0xffffff30
    824c:	16582596 			; <UNDEFINED> instruction: 0x16582596
    8250:	3f6a42f1 	svccc	0x006a42f1
    8254:	61ed2277 	mvnvs	r2, r7, ror r2
    8258:	7a1b371e 	bvc	6d5ed8 <ZAG+0x6c80c0>
    825c:	0cf41d1b 	ldcleq	13, cr1, [r4], #108	; 0x6c
    8260:	358a5ab2 	strcc	r5, [sl, #2738]	; 0xab2
    8264:	67229264 	strvs	r9, [r2, -r4, ror #4]!
    8268:	b141c43d 	cmplt	r1, sp, lsr r4
    826c:	a0500513 	subsge	r0, r0, r3, lsl r5
    8270:	714f9104 	cmpvc	pc, r4, lsl #2
    8274:	f4903ab8 			; <UNDEFINED> instruction: 0xf4903ab8
    8278:	655b6b6b 	ldrbvs	r6, [fp, #-2923]	; 0xb6b
    827c:	55541746 	ldrbpl	r1, [r4, #-1862]	; 0x746
    8280:	924100c1 	subls	r0, r1, #193	; 0xc1
    8284:	ad124820 	ldcge	8, cr4, [r2, #-128]	; 0xffffff80
    8288:	13c0f894 	bicne	pc, r0, #148, 16	; 0x940000
    828c:	3694252c 	ldrcc	r2, [r4], ip, lsr #10
    8290:	ef6ea130 	svc	0x006ea130
    8294:	51a9bb86 			; <UNDEFINED> instruction: 0x51a9bb86
    8298:	a9f5d652 	ldmibge	r5!, {r1, r4, r6, r9, sl, ip, lr, pc}^
    829c:	31760cd4 	ldrsbcc	r0, [r6, #-196]!	; 0xffffff3c
    82a0:	54ec381b 	strbtpl	r3, [ip], #2075	; 0x81b
    82a4:	a4255056 	strtge	r5, [r5], #-86	; 0x56
    82a8:	85a138b6 	strhi	r3, [r1, #2230]!	; 0x8b6
    82ac:	c4640b62 	strbtgt	r0, [r4], #-2914	; 0xb62
    82b0:	58725f8e 	ldmdapl	r2!, {r1, r2, r3, r7, r8, r9, sl, fp, ip, lr}^
    82b4:	e55a45ad 	ldrb	r4, [sl, #-1453]	; 0x5ad
    82b8:	3c2d374d 	stccc	7, cr3, [sp], #-308	; 0xfffffecc
    82bc:	2f62595e 	svccs	0x0062595e
    82c0:	5babd65e 	blpl	feafdc40 <end+0xbe9fdc40>
    82c4:	e32fd011 	teq	pc, #17
    82c8:	1c896f65 	stcne	15, cr6, [r9], {101}	; 0x65
    82cc:	78feb1f2 	ldmvc	lr!, {r1, r4, r5, r6, r7, r8, ip, sp, pc}^
    82d0:	5fd54d71 	svcpl	0x00d54d71
    82d4:	3e7688fb 	mrccc	8, 3, r8, cr6, cr11, {7}
    82d8:	8b00ffb9 	blhi	481c4 <ZAG+0x3a3ac>
    82dc:	a3b836fd 			; <UNDEFINED> instruction: 0xa3b836fd
    82e0:	6a39b572 	bvs	e758b0 <ZAG+0xe67a98>
    82e4:	9009f189 	andls	pc, r9, r9, lsl #3
    82e8:	befd2433 	mrclt	4, 7, r2, cr13, cr3, {1}
    82ec:	0db947d8 	ldceq	7, cr4, [r9, #864]!	; 0x360
    82f0:	55020624 	strpl	r0, [r2, #-1572]	; 0x624
    82f4:	88ae2381 	stmiahi	lr!, {r0, r7, r8, r9, sp}
    82f8:	25b7cdad 	ldrcs	ip, [r7, #3501]!	; 0xdad
    82fc:	190eb795 	stmdbne	lr, {r0, r2, r4, r7, r8, r9, sl, ip, sp, pc}
    8300:	2ade509f 	bcs	ff79c584 <end+0xbf69c584>
    8304:	1b33303f 	blne	cd4408 <ZAG+0xcc65f0>
    8308:	882b0826 	stmdahi	fp!, {r1, r2, r5, fp}
    830c:	22154325 	andscs	r4, r5, #-1811939328	; 0x94000000
    8310:	3db61832 	ldccc	8, cr1, [r6, #200]!	; 0xc8
    8314:	68c7dbd3 	stmiavs	r7, {r0, r1, r4, r6, r7, r8, r9, fp, ip, lr, pc}^
    8318:	5a9a98af 	bpl	fe6ae5dc <end+0xbe5ae5dc>
    831c:	3f526bee 	svccc	0x00526bee
    8320:	c2c3146e 	sbcgt	r1, r3, #1845493760	; 0x6e000000
    8324:	cd43eab5 	vstrgt	s29, [r3, #-724]	; 0xfffffd2c
    8328:	492cf70f 	stmdbmi	ip!, {r0, r1, r2, r3, r8, r9, sl, ip, sp, lr, pc}
    832c:	4439ac69 	ldrtmi	sl, [r9], #-3177	; 0xc69
    8330:	305e2491 			; <UNDEFINED> instruction: 0x305e2491
    8334:	921472a4 	andsls	r7, r4, #164, 4	; 0x4000000a
    8338:	75a45519 	strvc	r5, [r4, #1305]!	; 0x519
    833c:	8fd9ca31 	svchi	0x00d9ca31
    8340:	830ad5e9 	movwhi	sp, #42473	; 0xa5e9
    8344:	48c0ba05 	stmiami	r0, {r0, r2, r9, fp, ip, sp, pc}^
    8348:	defe5c3b 	mrcle	12, 7, r5, cr14, cr11, {1}
    834c:	693a8481 	ldmdbvs	sl!, {r0, r7, sl, pc}
    8350:	532983de 	teqpl	r9, #2013265923	; 0x78000003
    8354:	5482958a 	strpl	r9, [r2], #1418	; 0x58a
    8358:	268f32b7 			; <UNDEFINED> instruction: 0x268f32b7
    835c:	87bd3ed4 	sbfxhi	r3, r4, #29, #30
    8360:	047bef0b 	ldrbteq	lr, [fp], #-3851	; 0xf0b
    8364:	781ffa9d 	ldmdavc	pc, {r0, r2, r3, r4, r7, r9, fp, ip, sp, lr, pc}	; <UNPREDICTABLE>
    8368:	7a10c320 	bvc	438ff0 <ZAG+0x42b1d8>
    836c:	ac1ee8fe 	ldcge	8, cr14, [lr], {254}	; 0xfe
    8370:	d06dcdeb 	rsble	ip, sp, fp, ror #27
    8374:	fcd4635d 	ldc2l	3, cr6, [r4], {93}	; 0x5d
    8378:	797ae4ca 	ldmdbvc	sl!, {r1, r3, r6, r7, sl, sp, lr, pc}^
    837c:	7b8e9d1e 	blvc	fe3af7fc <end+0xbe2af7fc>
    8380:	d01a2975 	andsle	r2, sl, r5, ror r9
    8384:	c7441e47 	strbgt	r1, [r4, -r7, asr #28]
    8388:	f688e611 			; <UNDEFINED> instruction: 0xf688e611
    838c:	c7076722 	strgt	r6, [r7, -r2, lsr #14]
    8390:	2800a418 	stmdacs	r0, {r3, r4, sl, sp, pc}
    8394:	1259679a 	subsne	r6, r9, #40370176	; 0x2680000
    8398:	b88421c2 	stmlt	r4, {r1, r6, r7, r8, sp}
    839c:	3c36f0d8 	ldccc	0, cr15, [r6], #-864	; 0xfffffca0
    83a0:	6265710d 	rsbvs	r7, r5, #1073741827	; 0x40000003
    83a4:	33603572 	cmncc	r0, #478150656	; 0x1c800000
    83a8:	40262613 	eormi	r2, r6, r3, lsl r6
    83ac:	eefbe923 	cdp	9, 15, cr14, cr11, cr3, {1}
    83b0:	52013000 	andpl	r3, r1, #0
    83b4:	79110eaf 	ldmdbvc	r1, {r0, r1, r2, r3, r5, r7, r9, sl, fp}
    83b8:	45e584fb 	strbmi	r8, [r5, #1275]!	; 0x4fb
    83bc:	6a59f412 	bvs	168540c <ZAG+0x16775f4>
    83c0:	3394c853 	orrscc	ip, r4, #5439488	; 0x530000
    83c4:	3004402a 	andcc	r4, r4, sl, lsr #32
    83c8:	ccda2920 	ldclgt	9, cr2, [sl], {32}
    83cc:	ca10a0fd 	bgt	4307c8 <ZAG+0x4229b0>
    83d0:	9d949c54 	ldcls	12, cr9, [r4, #336]	; 0x150
    83d4:	fed6bf06 	cdp2	15, 13, cr11, cr6, cr6, {0}
    83d8:	f6f1e5ad 			; <UNDEFINED> instruction: 0xf6f1e5ad
    83dc:	d4a84675 	strtle	r4, [r8], #1653	; 0x675
    83e0:	d1580b86 	cmple	r8, r6, lsl #23
    83e4:	c58fa990 	strgt	sl, [pc, #2448]	; 8d7c <jpegdata+0x69cc>
    83e8:	24c16a60 	strbcs	r6, [r1], #2656	; 0xa60
    83ec:	6893c9b5 	ldmvs	r3, {r0, r2, r4, r5, r7, r8, fp, lr, pc}
    83f0:	f6ab898d 			; <UNDEFINED> instruction: 0xf6ab898d
    83f4:	0623f7ea 	strteq	pc, [r3], -sl, ror #15
    83f8:	9ad1ee5a 	bls	ff483d68 <end+0xbf383d68>
    83fc:	447836b6 	ldrbtmi	r3, [r8], #-1718	; 0x6b6
    8400:	6ebf3af1 	mrcvs	10, 5, r3, cr15, cr1, {7}
    8404:	53c97985 	bicpl	r7, r9, #2179072	; 0x214000
    8408:	5269a4b4 	rsbpl	sl, r9, #180, 8	; 0xb4000000
    840c:	4e604008 	cdpmi	0, 6, cr4, cr0, cr8, {0}
    8410:	04817c50 	streq	r7, [r1], #3152	; 0xc50
    8414:	83d91e31 	bicshi	r1, r9, #784	; 0x310
    8418:	d49c9101 	ldrle	r9, [ip], #257	; 0x101
    841c:	3275d080 	rsbscc	sp, r5, #128	; 0x80
    8420:	15f6dbd3 	ldrbne	sp, [r6, #3027]!	; 0xbd3
    8424:	86ac7c6a 	strthi	r7, [ip], sl, ror #24
    8428:	7187a860 	orrvc	sl, r7, r0, ror #16
    842c:	4405410a 	strmi	r4, [r5], #-266	; 0x10a
    8430:	91200534 	teqls	r0, r4, lsr r5
    8434:	44828588 	strmi	r8, [r2], #1416	; 0x588
    8438:	6cbd5847 	ldcvs	8, cr5, [sp], #284	; 0x11c
    843c:	efb897eb 	svc	0x00b897eb
    8440:	5c48fd69 	mcrrpl	13, 6, pc, r8, cr9	; <UNPREDICTABLE>
    8444:	e3cca936 	bic	sl, ip, #884736	; 0xd8000
    8448:	7e0656b5 	mcrvc	6, 0, r5, cr6, cr5, {5}
    844c:	76fbb8f4 			; <UNDEFINED> instruction: 0x76fbb8f4
    8450:	a9e2b5b0 	stmibge	r2!, {r4, r5, r7, r8, sl, ip, sp, pc}^
    8454:	03af8896 			; <UNDEFINED> instruction: 0x03af8896
    8458:	1c2b3c23 	stcne	12, cr3, [fp], #-140	; 0xffffff74
    845c:	85ee32c9 	strbhi	r3, [lr, #713]!	; 0x2c9
    8460:	58194ad4 	ldmdapl	r9, {r2, r4, r6, r7, r9, fp, lr}
    8464:	95d12529 	ldrbls	r2, [r1, #1321]	; 0x529
    8468:	fcf16a9c 	ldc2l	10, cr6, [r1], #624	; 0x270
    846c:	d7a2704f 	strle	r7, [r2, pc, asr #32]!
    8470:	a73348ab 	ldrge	r4, [r3, -fp, lsr #17]!
    8474:	dcb0bcd9 	ldcle	12, cr11, [r0], #868	; 0x364
    8478:	8f2b0dc0 	svchi	0x002b0dc0
    847c:	6a8c63e0 	bvs	fe321404 <end+0xbe221404>
    8480:	dc76a007 	ldclle	0, cr10, [r6], #-28	; 0xffffffe4
    8484:	e84d1d3f 	stmda	sp, {r0, r1, r2, r3, r4, r5, r8, sl, fp, ip}^
    8488:	fe40b1da 	mcr2	1, 2, fp, cr0, cr10, {6}
    848c:	184b25f1 	stmdane	fp, {r0, r4, r5, r6, r7, r8, sl, sp}^
    8490:	62082c89 	andvs	r2, r8, #35072	; 0x8900
    8494:	ca89f9df 	bgt	fe286c18 <end+0xbe186c18>
    8498:	76d13377 			; <UNDEFINED> instruction: 0x76d13377
    849c:	a899f7a6 	ldmge	r9, {r1, r2, r5, r7, r8, r9, sl, ip, sp, lr, pc}
    84a0:	e1a7b5ba 			; <UNDEFINED> instruction: 0xe1a7b5ba
    84a4:	1b7fa48b 	blne	1ff16d8 <ZAG+0x1fe38c0>
    84a8:	9c969f0d 	ldcls	15, cr9, [r6], {13}
    84ac:	aadf7256 	bge	ff7e4e0c <end+0xbf6e4e0c>
    84b0:	598d49d3 	stmibpl	sp, {r0, r1, r4, r6, r7, r8, fp, lr}
    84b4:	3c619265 	sfmcc	f1, 3, [r1], #-404	; 0xfffffe6c
    84b8:	a6fdcf48 	ldrbtge	ip, [sp], r8, asr #30
    84bc:	3184b6db 	ldrdcc	fp, [r4, fp]
    84c0:	5a22418e 	bpl	898b00 <ZAG+0x88ace8>
    84c4:	225e6827 	subscs	r6, lr, #2555904	; 0x270000
    84c8:	7fb60bac 	svcvc	0x00b60bac
    84cc:	f2ea6e4d 			; <UNDEFINED> instruction: 0xf2ea6e4d
    84d0:	b35e7ded 	cmplt	lr, #15168	; 0x3b40
    84d4:	589baa57 	ldmpl	fp, {r0, r1, r2, r4, r6, r9, fp, sp, pc}
    84d8:	50003421 	andpl	r3, r0, r1, lsr #8
    84dc:	80d4994c 	sbcshi	r9, r4, ip, asr #18
    84e0:	88e132a0 	stmiahi	r1!, {r5, r7, r9, ip, sp}^
    84e4:	f2f42503 	vext.8	d18, d4, d3, #5
    84e8:	96f3aa95 	usatls	sl, #19, r5, lsl #21
    84ec:	9671c4ad 	ldrbtls	ip, [r1], -sp, lsr #9
    84f0:	650912aa 	strvs	r1, [r9, #-682]	; 0x2aa
    84f4:	9fb4e891 	svcls	0x00b4e891
    84f8:	944f3670 	strbls	r3, [pc], #-1648	; 8500 <jpegdata+0x6150>
    84fc:	ee2469c9 	cdp	9, 2, cr6, cr4, cr9, {6}
    8500:	1ad3e67a 	bne	ff501ef0 <end+0xbf401ef0>
    8504:	d8a25ab7 	stmiale	r2!, {r0, r1, r2, r4, r5, r7, r9, fp, ip, lr}
    8508:	4c7eee7c 	ldclmi	14, cr14, [lr], #-496	; 0xfffffe10
    850c:	4b13ab8d 	blmi	4f3348 <ZAG+0x4e5530>
    8510:	8d60f72a 	stclhi	7, cr15, [r0, #-168]!	; 0xffffff58
    8514:	6ddd31de 	ldfvse	f3, [sp, #888]	; 0x378
    8518:	6258a695 	subsvs	sl, r8, #156237824	; 0x9500000
    851c:	bf1d1e12 	svclt	0x001d1e12
    8520:	bb253526 	bllt	9559c0 <ZAG+0x947ba8>
    8524:	0252378c 	subseq	r3, r2, #140, 14	; 0x2300000
    8528:	db1387f5 	blle	4ea504 <ZAG+0x4dc6ec>
    852c:	2abd8562 	bcs	fef69abc <end+0xbee69abc>
    8530:	a01a6c77 	andsge	r6, sl, r7, ror ip
    8534:	53596110 	cmppl	r9, #16, 2
    8538:	243080c5 	ldrtcs	r8, [r0], #-197	; 0xc5
    853c:	09422010 	stmdbeq	r2, {r4, sp}^
    8540:	22fe96d4 	rscscs	r9, lr, #212, 12	; 0xd400000
    8544:	ff780481 			; <UNDEFINED> instruction: 0xff780481
    8548:	d97ed200 	ldmdble	lr!, {r9, ip, lr, pc}^
    854c:	d8429e20 	stmdale	r2, {r5, r9, sl, fp, ip, pc}^
    8550:	89c5a8d4 	stmibhi	r5, {r2, r4, r6, r7, fp, sp, pc}^
    8554:	987deb25 	ldmdals	sp!, {r0, r2, r5, r8, r9, fp, sp, lr, pc}^
    8558:	cc92e583 	cfldr32gt	mvfx14, [r2], {131}	; 0x83
    855c:	49508988 	ldmdbmi	r0, {r3, r7, r8, fp, pc}^
    8560:	8c6581c9 	stfhip	f0, [r5], #-804	; 0xfffffcdc
    8564:	df965e6c 	svcle	0x00965e6c
    8568:	fbe85687 	blx	ffa1df8e <end+0xbf91df8e>
    856c:	25564769 	ldrbcs	r4, [r6, #-1897]	; 0x769
    8570:	5854eea8 	ldmdapl	r4, {r3, r5, r7, r9, sl, fp, sp, lr, pc}^
    8574:	43a89ae3 			; <UNDEFINED> instruction: 0x43a89ae3
    8578:	489c096a 	ldmmi	ip, {r1, r3, r5, r6, r8, fp}
    857c:	2f47c35e 	svccs	0x0047c35e
    8580:	27465675 	smlsldxcs	r5, r6, r5, r6
    8584:	93f110f6 	mvnsls	r1, #246	; 0xf6
    8588:	90087009 	andls	r7, r8, r9
    858c:	f23ee6a8 	vmax.s<illegal width 64>	d14, d30, d24
    8590:	8ab716b6 	bhi	fedce070 <end+0xbecce070>
    8594:	2382ed95 	orrcs	lr, r2, #9536	; 0x2540
    8598:	1ded8c93 	stclne	12, cr8, [sp, #588]!	; 0x24c
    859c:	8c234260 	sfmhi	f4, 4, [r3], #-384	; 0xfffffe80
    85a0:	04094445 	streq	r4, [r9], #-1093	; 0x445
    85a4:	62c0551c 	sbcvs	r5, r0, #28, 10	; 0x7000000
    85a8:	d203388f 	andle	r3, r3, #9371648	; 0x8f0000
    85ac:	4b11dfe5 	blmi	480548 <ZAG+0x472730>
    85b0:	51593886 	cmppl	r9, r6, lsl #17
    85b4:	f2995c64 	vqdmulh.s16	d5, d9, d4[2]
    85b8:	15799ccd 	ldrbne	r9, [r9, #-3277]!	; 0xccd
    85bc:	2b931c8c 	blcs	fe4cf7f4 <end+0xbe3cf7f4>
    85c0:	65b42c27 	ldrvs	r2, [r4, #3111]!	; 0xc27
    85c4:	4f4286e1 	svcmi	0x004286e1
    85c8:	a9305117 	ldmdbge	r0!, {r0, r1, r2, r4, r8, ip, lr}
    85cc:	8fc92bab 	svchi	0x00c92bab
    85d0:	89af56ee 	stmibhi	pc!, {r1, r2, r3, r5, r6, r7, r9, sl, ip, lr}	; <UNPREDICTABLE>
    85d4:	c7d8ba9e 	bfigt	fp, lr, #21, #4
    85d8:	f012f164 			; <UNDEFINED> instruction: 0xf012f164
    85dc:	8c481bb3 	mcrrhi	11, 11, r1, r8, cr3
    85e0:	4269bfa5 	rsbmi	fp, r9, #660	; 0x294
    85e4:	dbeaca06 	blle	ffabae04 <end+0xbf9bae04>
    85e8:	9a2dbfb2 	bls	b784b8 <ZAG+0xb6a6a0>
    85ec:	9286ed3f 	addls	lr, r6, #4032	; 0xfc0
    85f0:	2577c84f 	ldrbcs	ip, [r7, #-2127]!	; 0x84f
    85f4:	d25c64e7 	subsle	r6, ip, #-419430400	; 0xe7000000
    85f8:	4601c3a5 	strmi	ip, [r1], -r5, lsr #7
    85fc:	8cca97a7 	stclhi	7, cr9, [sl], {167}	; 0xa7
    8600:	08c3548a 	stmiaeq	r3, {r1, r3, r7, sl, ip, lr}^
    8604:	3af16595 	bcc	ffc61c60 <end+0xbfb61c60>
    8608:	41cc632a 	bicmi	r6, ip, sl, lsr #6
    860c:	61401986 	smlalbbvs	r1, r0, r6, r9
    8610:	7e9b38e3 	cdpvc	8, 9, cr3, cr11, cr3, {7}
    8614:	caa9e45b 	bgt	fea81788 <end+0xbe981788>
    8618:	06191550 			; <UNDEFINED> instruction: 0x06191550
    861c:	500bd500 	andpl	sp, fp, r0, lsl #10
    8620:	155a92a9 	ldrbne	r9, [sl, #-681]	; 0x2a9
    8624:	3e1ee3d4 	mrccc	3, 0, lr, cr14, cr4, {6}
    8628:	623fd8c1 	eorsvs	sp, pc, #12648448	; 0xc10000
    862c:	f5645e47 			; <UNDEFINED> instruction: 0xf5645e47
    8630:	f3754aaf 	vpmax.u<illegal width 64>	d20, d21, d31
    8634:	5d571da2 	ldclpl	13, cr1, [r7, #-648]	; 0xfffffd78
    8638:	1ad58c37 	bne	ff56b71c <end+0xbf46b71c>
    863c:	a86cf5f2 	stmdage	ip!, {r1, r4, r5, r6, r7, r8, sl, ip, sp, lr, pc}^
    8640:	673d5d96 			; <UNDEFINED> instruction: 0x673d5d96
    8644:	62b7961b 	adcsvs	r9, r7, #28311552	; 0x1b00000
    8648:	f7c7f44b 			; <UNDEFINED> instruction: 0xf7c7f44b
    864c:	0419830a 	ldreq	r8, [r9], #-778	; 0x30a
    8650:	dded1ac9 	stclle	10, cr1, [sp, #804]!	; 0x324
    8654:	fb89a340 	blx	fe27135e <end+0xbe17135e>
    8658:	9a91c16d 	bls	fe478c14 <end+0xbe378c14>
    865c:	d6f2c6cb 	ldrbtle	ip, [r2], fp, asr #13
    8660:	b7148f3c 			; <UNDEFINED> instruction: 0xb7148f3c
    8664:	2017a5f7 			; <UNDEFINED> instruction: 0x2017a5f7
    8668:	0a28538d 	beq	a1d4a4 <ZAG+0xa0f68c>
    866c:	3959a81c 	ldmdbcc	r9, {r2, r3, r4, fp, sp, pc}^
    8670:	49aaec1f 	stmibmi	sl!, {r0, r1, r2, r3, r4, sl, fp, sp, lr, pc}
    8674:	51672126 	cmnpl	r7, r6, lsr #2
    8678:	17a7f6d4 	sbfxne	pc, r4, #13, #8
    867c:	adf1d64e 	ldclge	6, cr13, [r1, #312]!	; 0x138
    8680:	326d29ed 	rsbcc	r2, sp, #3883008	; 0x3b4000
    8684:	43bc8145 			; <UNDEFINED> instruction: 0x43bc8145
    8688:	d4038116 	strle	r8, [r3], #-278	; 0x116
    868c:	243510cb 	ldrtcs	r1, [r5], #-203	; 0xcb
    8690:	d195e998 			; <UNDEFINED> instruction: 0xd195e998
    8694:	eab03efc 	b	fec1828c <end+0xbeb1828c>
    8698:	6eb541bf 	mrcvs	1, 5, r4, cr5, cr15, {5}
    869c:	0deb546b 	cfstrdeq	mvd5, [fp, #428]!	; 0x1ac
    86a0:	69554f59 	ldmdbvs	r5, {r0, r3, r4, r6, r8, r9, sl, fp, lr}^
    86a4:	6a63f3cb 	bvs	19055d8 <ZAG+0x18f77c0>
    86a8:	24839a1b 	strcs	r9, [r3], #2587	; 0xa1b
    86ac:	6ea7ac19 	mcrvs	12, 5, sl, cr7, cr9, {0}
    86b0:	9a981d43 	bls	fe60fbc4 <end+0xbe50fbc4>
    86b4:	4893c353 	ldmmi	r3, {r0, r1, r4, r6, r8, r9, lr, pc}
    86b8:	08019e90 	stmdaeq	r1, {r4, r7, r9, sl, fp, ip, pc}
    86bc:	871cb951 			; <UNDEFINED> instruction: 0x871cb951
    86c0:	34feaf23 	ldrbtcc	sl, [lr], #3875	; 0xf23
    86c4:	3e8b79f4 	mcrcc	9, 4, r7, cr11, cr4, {7}
    86c8:	5ab78103 	bpl	fede8adc <end+0xbece8adc>
    86cc:	d9a56eb5 	stmible	r5!, {r0, r2, r4, r5, r7, r9, sl, fp, sp, lr}
    86d0:	f1140b81 			; <UNDEFINED> instruction: 0xf1140b81
    86d4:	194cfc18 	stmdbne	ip, {r3, r4, sl, fp, ip, sp, lr, pc}^
    86d8:	ae4ac054 	mcrge	0, 2, ip, cr10, cr4, {2}
    86dc:	82b422df 	adcshi	r2, r4, #-268435443	; 0xf000000d
    86e0:	57c03602 	strbpl	r3, [r0, r2, lsl #12]
    86e4:	f8b62f7e 			; <UNDEFINED> instruction: 0xf8b62f7e
    86e8:	96c576fe 			; <UNDEFINED> instruction: 0x96c576fe
    86ec:	ba5ed5f2 	blt	17bdebc <ZAG+0x17b00a4>
    86f0:	755e0033 	ldrbvc	r0, [lr, #-51]	; 0x33
    86f4:	4e104c01 	cdpmi	12, 1, cr4, cr0, cr1, {0}
    86f8:	0c80a6b7 	stceq	6, cr10, [r0], {183}	; 0xb7
    86fc:	40dff27a 	sbcsmi	pc, pc, sl, ror r2	; <UNPREDICTABLE>
    8700:	6d5df156 	ldfvsp	f7, [sp, #-344]	; 0xfffffea8
    8704:	eaa62193 	b	fe990d58 <end+0xbe890d58>
    8708:	a536b5e1 	ldrge	fp, [r6, #-1505]!	; 0x5e1
    870c:	2652e3ca 	ldrbcs	lr, [r2], -sl, asr #7
    8710:	cbc40692 	blgt	ff10a160 <end+0xbf00a160>
    8714:	b849586c 	stmdalt	r9, {r2, r3, r5, r6, fp, ip, lr}^
    8718:	45ee5972 	strbmi	r5, [lr, #2418]!	; 0x972
    871c:	b8db7621 	ldmlt	fp, {r0, r5, r9, sl, ip, sp, lr}^
    8720:	803c3054 	eorshi	r3, ip, r4, asr r0
    8724:	b32a5450 	teqlt	sl, #80, 8	; 0x50000000
    8728:	ff1c2e05 			; <UNDEFINED> instruction: 0xff1c2e05
    872c:	84431900 	strbhi	r1, [r3], #-2304	; 0x900
    8730:	cbdc97a4 	blgt	ff72e5c8 <end+0xbf62e5c8>
    8734:	52b85653 	adcspl	r5, r8, #87031808	; 0x5300000
    8738:	8603649e 			; <UNDEFINED> instruction: 0x8603649e
    873c:	054ba489 	strbeq	sl, [fp, #-1161]	; 0x489
    8740:	4132fdfc 			; <UNDEFINED> instruction: 0x4132fdfc
    8744:	f5c44c32 			; <UNDEFINED> instruction: 0xf5c44c32
    8748:	9fb5ebea 	svcls	0x00b5ebea
    874c:	a3544b8d 	cmpge	r4, #144384	; 0x23400
    8750:	39054549 	stmdbcc	r5, {r0, r3, r6, r8, sl, lr}
    8754:	8ae014ae 	bhi	ff80da14 <end+0xbf70da14>
    8758:	a8d4cab8 	ldmge	r4, {r3, r4, r5, r7, r9, fp, lr, pc}^
    875c:	60ca3184 	sbcvs	r3, sl, r4, lsl #3
    8760:	1014b213 	andsne	fp, r4, r3, lsl r2
    8764:	ba149202 	blt	52cf74 <ZAG+0x51f15c>
    8768:	6ed417fa 	mrcvs	7, 6, r1, cr4, cr10, {7}
    876c:	1987ddbe 	stmibne	r7, {r1, r2, r3, r4, r5, r7, r8, sl, fp, ip, lr, pc}
    8770:	9c9d5a06 	vldmials	sp, {s10-s15}
    8774:	c4e21bed 	strbtgt	r1, [r2], #3053	; 0xbed
    8778:	b4e42e54 	strbtlt	r2, [r4], #3668	; 0xe54
    877c:	ac34d1f4 	ldfged	f5, [r4], #-976	; 0xfffffc30
    8780:	63a3a8bd 			; <UNDEFINED> instruction: 0x63a3a8bd
    8784:	45d49822 	ldrbmi	r9, [r4, #2082]	; 0x822
    8788:	949359de 	ldrls	r5, [r3], #2526	; 0x9de
    878c:	6e6e5f9c 	mcrvs	15, 3, r5, cr14, cr12, {4}
    8790:	21c56d43 	biccs	r6, r5, r3, asr #26
    8794:	bddacf1d 	ldcllt	15, cr12, [sl, #116]	; 0x74
    8798:	297069bb 	ldmdbcs	r0!, {r0, r1, r3, r4, r5, r7, r8, fp, sp, lr}^
    879c:	2cd5f0e3 	ldclcs	0, cr15, [r5], {227}	; 0xe3
    87a0:	31c081b2 	strhcc	r8, [r0, #18]
    87a4:	5ac50693 	bpl	ff14a1f8 <end+0xbf04a1f8>
    87a8:	3180f677 	orrcc	pc, r0, r7, ror r6	; <UNPREDICTABLE>
    87ac:	3b46a10c 	blcc	11b0be4 <ZAG+0x11a2dcc>
    87b0:	5a82f725 	bpl	fe0c644c <end+0xbdfc644c>
    87b4:	375da9f5 	smmlsrcc	sp, r5, r9, sl
    87b8:	44415d23 	strbmi	r5, [r1], #-3363	; 0xd23
    87bc:	4f815c76 	svcmi	0x00815c76
    87c0:	0524c225 	streq	ip, [r4, #-549]!	; 0x225
    87c4:	21261f27 	teqcs	r6, r7, lsr #30
    87c8:	008e5a31 	addeq	r5, lr, r1, lsr sl
    87cc:	1a27002a 	bne	9c887c <ZAG+0x9baa64>
    87d0:	147da72f 	ldrbtne	sl, [sp], #-1839	; 0x72f
    87d4:	4fbff4cc 	svcmi	0x00bff4cc
    87d8:	cca00e65 	stcgt	14, cr0, [r0], #404	; 0x194
    87dc:	e0e0c754 	rsc	ip, r0, r4, asr r7
    87e0:	26b15f8c 	ldrtcs	r5, [r1], ip, lsl #31
    87e4:	c8ecdc2e 	stmiagt	ip!, {r1, r2, r3, r5, sl, fp, ip, lr, pc}^
    87e8:	660913e9 	strvs	r1, [r9], -r9, ror #7
    87ec:	d06afb8f 	rsble	pc, sl, pc, lsl #23
    87f0:	24c75db0 	strbcs	r5, [r7], #3504	; 0xdb0
    87f4:	9c8dba24 	vstmials	sp, {s22-s57}
    87f8:	f923f511 			; <UNDEFINED> instruction: 0xf923f511
    87fc:	e78b772a 	str	r7, [fp, sl, lsr #14]
    8800:	6f89d962 	svcvs	0x0089d962
    8804:	fc318516 	ldc2	5, cr8, [r1], #-88	; 0xffffffa8
    8808:	6219c0b0 	andsvs	ip, r9, #176	; 0xb0
    880c:	7500203f 	strvc	r2, [r0, #-63]	; 0x3f
    8810:	dfedd7b1 	svcle	0x00edd7b1
    8814:	bae68e79 	blt	ff9ac200 <end+0xbf8ac200>
    8818:	1a6aafa2 	bne	1ab46a8 <ZAG+0x1aa6890>
    881c:	304585e0 	subcc	r8, r5, r0, ror #11
    8820:	096231a4 	stmdbeq	r2!, {r2, r5, r7, r8, ip, sp}^
    8824:	4cd15656 	ldclmi	6, cr5, [r1], {86}	; 0x56
    8828:	a3c590fe 	bicge	r9, r5, #254	; 0xfe
    882c:	be8d52ea 	cdplt	2, 8, cr5, cr13, cr10, {7}
    8830:	a74ed89a 			; <UNDEFINED> instruction: 0xa74ed89a
    8834:	e3696f60 	cmn	r9, #96, 30	; 0x180
    8838:	5f9b4c94 	svcpl	0x009b4c94
    883c:	8021c7c7 	eorhi	ip, r1, r7, asr #15
    8840:	9cac8e5c 	stcls	14, cr8, [ip], #368	; 0x170
    8844:	114040da 	ldrdne	r4, [r0, #-10]
    8848:	2c3941bc 	ldfcss	f4, [r9], #-752	; 0xfffffd10
    884c:	4e054acc 	vmlsmi.f32	s8, s11, s24
    8850:	385dc820 	ldmdacc	sp, {r5, fp, lr, pc}^
    8854:	ad2fcc03 	stcge	12, cr12, [pc, #-12]!	; 8850 <jpegdata+0x64a0>
    8858:	2ed52a9b 	mrccs	10, 6, r2, cr5, cr11, {4}
    885c:	672a5258 			; <UNDEFINED> instruction: 0x672a5258
    8860:	a45e63ec 	ldrbge	r6, [lr], #-1004	; 0x3ec
    8864:	a8201ec9 	stmdage	r0!, {r0, r3, r6, r7, r9, sl, fp, ip}
    8868:	7b3888fa 	blvc	e2ac58 <ZAG+0xe1ce40>
    886c:	380ba683 	stmdacc	fp, {r0, r1, r7, r9, sl, sp, pc}
    8870:	9e4bb8e6 	cdpls	8, 4, cr11, cr11, cr6, {7}
    8874:	844bb12a 	strbhi	fp, [fp], #-298	; 0x12a
    8878:	c701da14 	smladgt	r1, r4, sl, sp
    887c:	024c7420 	subeq	r7, ip, #32, 8	; 0x20000000
    8880:	4c6a4e86 	stclmi	14, cr4, [sl], #-536	; 0xfffffde8
    8884:	10ac24fa 	strdne	r2, [ip], sl	; <UNPREDICTABLE>
    8888:	2f32b2fe 	svccs	0x0032b2fe
    888c:	3e59f35d 	mrccc	3, 2, APSR_nzcv, cr9, cr13, {2}
    8890:	75496ab6 	strbvc	r6, [r9, #-2742]	; 0xab6
    8894:	cb4d2396 	blgt	13516f4 <ZAG+0x13438dc>
    8898:	5a3ad093 	bpl	ebcaec <ZAG+0xeaecd4>
    889c:	ed9a5ca2 	ldc	12, cr5, [sl, #648]	; 0x288
    88a0:	469ec65a 			; <UNDEFINED> instruction: 0x469ec65a
    88a4:	5269225a 	rsbpl	r2, r9, #-1610612731	; 0xa0000005
    88a8:	999486c5 	ldmibls	r4, {r0, r2, r6, r7, r9, sl, pc}
    88ac:	0fafac00 	svceq	0x00afac00
    88b0:	d078a4f6 	ldrshtle	sl, [r8], #-70	; 0xffffffba
    88b4:	62257bf2 	eorvs	r7, r5, #247808	; 0x3c800
    88b8:	68da6a91 	ldmvs	sl, {r0, r4, r7, r9, fp, sp, lr}^
    88bc:	14777cab 	ldrbtne	r7, [r7], #-3243	; 0xcab
    88c0:	8dde6cd4 	ldclhi	12, cr6, [lr, #848]	; 0x350
    88c4:	607f4162 	rsbsvs	r4, pc, r2, ror #2
    88c8:	50d37f10 	sbcspl	r7, r3, r0, lsl pc
    88cc:	fd3e1a09 	ldc2	10, cr1, [lr, #-36]!	; 0xffffffdc
    88d0:	8c23f468 	cfstrshi	mvf15, [r3], #-416	; 0xfffffe60
    88d4:	7f158fe4 	svcvc	0x00158fe4
    88d8:	5d51f14a 	ldfplp	f7, [r1, #-296]	; 0xfffffed8
    88dc:	34c090a9 	strbcc	r9, [r0], #169	; 0xa9
    88e0:	9c6023e3 	stclls	3, cr2, [r0], #-908	; 0xfffffc74
    88e4:	188c4e59 	stmne	ip, {r0, r3, r4, r6, r9, sl, fp, lr}
    88e8:	446e2498 	strbtmi	r2, [lr], #-1176	; 0x498
    88ec:	1bed1f82 	blne	ffb506fc <end+0xbfa506fc>
    88f0:	8bfb71a7 	blhi	ffee4f94 <end+0xbfde4f94>
    88f4:	cea3deeb 	cdpgt	14, 10, cr13, cr3, cr11, {7}
    88f8:	abe6c9e9 	blge	ff9bb0a4 <end+0xbf8bb0a4>
    88fc:	a71e1cd3 			; <UNDEFINED> instruction: 0xa71e1cd3
    8900:	572c3593 			; <UNDEFINED> instruction: 0x572c3593
    8904:	49328b6d 	ldmdbmi	r2!, {r0, r2, r3, r5, r6, r8, r9, fp, pc}
    8908:	6a9a6449 	bvs	fe6a1a34 <end+0xbe5a1a34>
    890c:	49822595 	stmibmi	r2, {r0, r2, r4, r7, r8, sl, sp}
    8910:	96d4581e 			; <UNDEFINED> instruction: 0x96d4581e
    8914:	468014ad 	strmi	r1, [r0], sp, lsr #9
    8918:	64692cc9 	strbtvs	r2, [r9], #-3273	; 0xcc9
    891c:	8c8f8177 	stfhid	f0, [pc], {119}	; 0x77
    8920:	d95a5e9f 	ldmdble	sl, {r0, r1, r2, r3, r4, r7, r9, sl, fp, ip, lr}^
    8924:	45a9005b 	strmi	r0, [r9, #91]!	; 0x5b
    8928:	593b2964 	ldmdbpl	fp!, {r2, r5, r6, r8, fp, sp}
    892c:	03f70800 	mvnseq	r0, #0, 16
    8930:	56b2f363 	ldrtpl	pc, [r2], r3, ror #6	; <UNPREDICTABLE>
    8934:	20892041 	addcs	r2, r9, r1, asr #32
    8938:	3f8ff7b3 	svccc	0x008ff7b3
    893c:	bc066a59 	stclt	10, cr6, [r6], {89}	; 0x59
    8940:	90442ea9 	subls	r2, r4, r9, lsr #29
    8944:	85c946e4 	strbhi	r4, [r9, #1764]	; 0x6e4
    8948:	4f828000 	svcmi	0x00828000
    894c:	016800a5 	smultbeq	r8, r5, r0
    8950:	d7814503 	strle	r4, [r1, r3, lsl #10]
    8954:	44ef74f9 	strbtmi	r7, [pc], #1273	; 895c <jpegdata+0x65ac>
    8958:	1ab23732 	bne	fec96628 <end+0xbeb96628>
    895c:	62533b2e 	subsvs	r3, r3, #47104	; 0xb800
    8960:	71883cea 	orrvc	r3, r8, sl, ror #25
    8964:	c48ada10 	strgt	sp, [sl], #2576	; 0xa10
    8968:	8501acb2 	strhi	sl, [r1, #-3250]	; 0xcb2
    896c:	94b9e9a9 	ldrtls	lr, [r9], #2473	; 0x9a9
    8970:	78e088fc 	stmiavc	r0!, {r2, r3, r4, r5, r6, r7, fp, pc}^
    8974:	07748ee5 	ldrbeq	r8, [r4, -r5, ror #29]!
    8978:	bb8801bb 	bllt	fe20906c <end+0xbe10906c>
    897c:	b03ab1c6 	eorslt	fp, sl, r6, asr #3
    8980:	eff6dc9b 	svc	0x00f6dc9b
    8984:	505c8df8 	ldrshpl	r8, [ip], #-216	; 0xffffff28
    8988:	7df53f81 	ldclvc	15, cr3, [r5, #516]!	; 0x204
    898c:	80048889 	andhi	r8, r4, r9, lsl #17
    8990:	9500ff46 	strls	pc, [r0, #-3910]	; 0xf46
    8994:	7edb3fbd 	mrcvc	15, 6, r3, cr11, cr13, {5}
    8998:	df38543d 	svcle	0x0038543d
    899c:	ad35bad4 	vldmdbge	r5!, {s22-s233}
    89a0:	1a853b59 	bne	fe15770c <end+0xbe05770c>
    89a4:	e87450a5 	ldmda	r4!, {r0, r2, r5, r7, ip, lr}^
    89a8:	f33fe4ab 	vshl.u64	d14, d27, d31
    89ac:	7e04a02c 	cdpvc	0, 0, cr10, cr4, cr12, {1}
    89b0:	02ecb147 	rsceq	fp, ip, #-1073741807	; 0xc0000011
    89b4:	49bda725 	ldmibmi	sp!, {r0, r2, r5, r8, r9, sl, sp, pc}
    89b8:	639e4eef 	orrsvs	r4, lr, #3824	; 0xef0
    89bc:	b189150d 	orrlt	r1, r9, sp, lsl #10
    89c0:	2ca7d639 	stccs	6, cr13, [r7], #228	; 0xe4
    89c4:	2716148d 	ldrcs	r1, [r6, -sp, lsl #9]
    89c8:	e58919af 	str	r1, [r9, #2479]	; 0x9af
    89cc:	ab32838f 	blge	ca9810 <ZAG+0xc9b9f8>
    89d0:	9c2c3677 	stcls	6, cr3, [ip], #-476	; 0xfffffe24
    89d4:	910762e3 	smlattls	r7, r3, r2, r6
    89d8:	831b7fc9 	tsthi	fp, #804	; 0x324
    89dc:	b1d7f2eb 	bicslt	pc, r7, fp, ror #5
    89e0:	51ac502a 			; <UNDEFINED> instruction: 0x51ac502a
    89e4:	0240266a 	subeq	r2, r0, #111149056	; 0x6a00000
    89e8:	c8602640 	stmdagt	r0!, {r6, r9, sl, sp}^
    89ec:	08468f1a 	stmdaeq	r6, {r1, r3, r4, r8, r9, sl, fp, pc}^
    89f0:	833f981f 	teqhi	pc, #2031616	; 0x1f0000
    89f4:	d44f6bd1 	strble	r6, [pc], #-3025	; 89fc <jpegdata+0x664c>
    89f8:	61b4db2e 			; <UNDEFINED> instruction: 0x61b4db2e
    89fc:	14ac5054 	strtne	r5, [ip], #84	; 0x54
    8a00:	f526d2c8 			; <UNDEFINED> instruction: 0xf526d2c8
    8a04:	e0273fb1 	strht	r3, [r7], -r1
    8a08:	aa1efaef 	bge	7c75cc <ZAG+0x7b97b4>
    8a0c:	a64786dc 			; <UNDEFINED> instruction: 0xa64786dc
    8a10:	74abbd56 	strtvc	fp, [fp], #3414	; 0xd56
    8a14:	6e064cb6 	mcrvs	12, 0, r4, cr6, cr6, {5}
    8a18:	397b430d 	ldmdbcc	fp!, {r0, r2, r3, r8, r9, lr}^
    8a1c:	e7a8b19c 			; <UNDEFINED> instruction: 0xe7a8b19c
    8a20:	855fe59a 	ldrbhi	lr, [pc, #-1434]	; 848e <jpegdata+0x60de>
    8a24:	c426a075 	strtgt	sl, [r6], #-117	; 0x75
    8a28:	598a0713 	stmibpl	sl, {r0, r1, r4, r8, r9, sl}
    8a2c:	92141164 	andsls	r1, r4, #100, 2
    8a30:	643c2028 	ldrtvs	r2, [ip], #-40	; 0x28
    8a34:	2ed62b29 	vfnmscs.f64	d18, d6, d25
    8a38:	1c24809c 	stcne	0, cr8, [r4], #-624	; 0xfffffd90
    8a3c:	7e4b4bee 	vmlsvc.f64	d20, d27, d30
    8a40:	3a4b8a33 	bcc	12eb314 <ZAG+0x12dd4fc>
    8a44:	a3b3f807 			; <UNDEFINED> instruction: 0xa3b3f807
    8a48:	4e509f04 	cdpmi	15, 5, cr9, cr0, cr4, {0}
    8a4c:	6b608081 	blvs	1828c58 <ZAG+0x181ae40>
    8a50:	27721fef 	ldrbcs	r1, [r2, -pc, ror #31]!
    8a54:	cda1bdac 	stcgt	13, cr11, [r1, #688]!	; 0x2b0
    8a58:	cbcbfd72 	blgt	ff308028 <end+0xbf208028>
    8a5c:	85ec725e 	strbhi	r7, [ip, #606]!	; 0x25e
    8a60:	125ffc28 	subsne	pc, pc, #40, 24	; 0x2800
    8a64:	21150705 	tstcs	r5, r5, lsl #14
    8a68:	4be8aad4 	blmi	ffa335c0 <end+0xbf9335c0>
    8a6c:	9ae55230 	bls	ff95d334 <end+0xbf85d334>
    8a70:	43fa9935 	mvnsmi	r9, #868352	; 0xd4000
    8a74:	adcff52a 	cfstr64ge	mvdx15, [pc, #168]	; 8b24 <jpegdata+0x6774>
    8a78:	d5808635 	strle	r8, [r0, #1589]	; 0x635
    8a7c:	987b6931 	ldmdals	fp!, {r0, r4, r5, r8, fp, sp, lr}^
    8a80:	1e5f3e3c 	mrcne	14, 2, r3, cr15, cr12, {1}
    8a84:	e215f730 	ands	pc, r5, #48, 14	; 0xc00000
    8a88:	2d1461af 	ldfcss	f6, [r4, #-700]	; 0xfffffd44
    8a8c:	91a1d1b9 			; <UNDEFINED> instruction: 0x91a1d1b9
    8a90:	69448e21 	stmdbvs	r4, {r0, r5, r9, sl, fp, pc}^
    8a94:	f6dc3b15 			; <UNDEFINED> instruction: 0xf6dc3b15
    8a98:	f2406c12 	vfma.f32	d22, d0, d2
    8a9c:	89377e58 	ldmdbhi	r7!, {r3, r4, r6, r9, sl, fp, ip, sp, lr}
    8aa0:	b3555adb 	cmplt	r5, #897024	; 0xdb000
    8aa4:	66ab52ac 	strtvs	r5, [fp], ip, lsr #5
    8aa8:	9e7c1095 	mrcls	0, 3, r1, cr12, cr5, {4}
    8aac:	07391140 	ldreq	r1, [r9, -r0, asr #2]!
    8ab0:	81d25722 	bicshi	r5, r2, r2, lsr #14
    8ab4:	803f41a0 	eorshi	r4, pc, r0, lsr #3
    8ab8:	174fd377 	smlsldxne	sp, pc, r7, r3	; <UNPREDICTABLE>
    8abc:	0d5673c7 	ldcleq	3, cr7, [r6, #-796]	; 0xfffffce4
    8ac0:	b2f24a73 	rscslt	r4, r2, #471040	; 0x73000
    8ac4:	12a4ca37 	adcne	ip, r4, #225280	; 0x37000
    8ac8:	1952f109 	ldmdbne	r2, {r0, r3, r8, ip, sp, lr, pc}^
    8acc:	0921154b 	stmdbeq	r1!, {r0, r1, r3, r6, r8, sl, ip}
    8ad0:	e84ae2f8 	stmda	sl, {r3, r4, r5, r6, r7, r9, sp, lr, pc}^
    8ad4:	917d4a9f 			; <UNDEFINED> instruction: 0x917d4a9f
    8ad8:	c67dfb58 			; <UNDEFINED> instruction: 0xc67dfb58
    8adc:	97457d5a 	smlsldls	r7, r5, sl, sp
    8ae0:	504b2dc8 	subpl	r2, fp, r8, asr #27
    8ae4:	e3b2ae52 			; <UNDEFINED> instruction: 0xe3b2ae52
    8ae8:	2244aedd 	subcs	sl, r4, #3536	; 0xdd0
    8aec:	271a4c90 			; <UNDEFINED> instruction: 0x271a4c90
    8af0:	0f7257e2 	svceq	0x007257e2
    8af4:	2c64f9d4 	stclcs	9, cr15, [r4], #-848	; 0xfffffcb0
    8af8:	1d03829b 	sfmne	f0, 1, [r3, #-620]	; 0xfffffd94
    8afc:	9afe3bbd 	bls	fff979f8 <end+0xbfe979f8>
    8b00:	39141771 	ldmdbcc	r4, {r0, r4, r5, r6, r8, r9, sl, ip}
    8b04:	26c8f73a 			; <UNDEFINED> instruction: 0x26c8f73a
    8b08:	b4812c86 	strlt	r2, [r1], #3206	; 0xc86
    8b0c:	0284e40c 	addeq	lr, r4, #12, 8	; 0xc000000
    8b10:	02531699 	subseq	r1, r3, #160432128	; 0x9900000
    8b14:	4fbd3e48 	svcmi	0x00bd3e48
    8b18:	afee6e50 	svcge	0x00ee6e50
    8b1c:	a2d15a4c 	sbcsge	r5, r1, #76, 20	; 0x4c000
    8b20:	7168175c 	cmnvc	r8, ip, asr r7
    8b24:	308c9189 	addcc	r9, ip, r9, lsl #3
    8b28:	fb1b8199 	blx	6e9196 <ZAG+0x6db37e>
    8b2c:	25885630 	strcs	r5, [r8, #1584]	; 0x630
    8b30:	eac5f444 	b	ff185c48 <end+0xbf085c48>
    8b34:	d3161206 	tstle	r6, #1610612736	; 0x60000000
    8b38:	b2a664d2 	adclt	r6, r6, #-771751936	; 0xd2000000
    8b3c:	cfca9844 	svcgt	0x00ca9844
    8b40:	83c8b32c 	bichi	fp, r8, #44, 6	; 0xb0000000
    8b44:	e4552379 	ldrb	r2, [r5], #-889	; 0x379
    8b48:	cf8fb8c5 	svcgt	0x008fb8c5
    8b4c:	6dc34682 	stclvs	6, cr4, [r3, #520]	; 0x208
    8b50:	f1791bc9 			; <UNDEFINED> instruction: 0xf1791bc9
    8b54:	77f8e466 	ldrbvc	lr, [r8, r6, ror #8]!
    8b58:	9b82a2be 	blls	fe0b1658 <end+0xbdfb1658>
    8b5c:	49445565 	stmdbmi	r4, {r0, r2, r5, r6, r8, sl, ip, lr}^
    8b60:	c0fb5b80 	rscsgt	r5, fp, r0, lsl #23
    8b64:	80b81f00 	adcshi	r1, r8, r0, lsl #30
    8b68:	07d04916 	bfieq	r4, r6, (invalid: 18:16)
    8b6c:	5497da52 	ldrpl	sp, [r7], #2642	; 0xa52
    8b70:	d4ebd5ed 	strbtle	sp, [fp], #1517	; 0x5ed
    8b74:	c42441f1 	strtgt	r4, [r4], #-497	; 0x1f1
    8b78:	d47f0398 	ldrbtle	r0, [pc], #-920	; 8b80 <jpegdata+0x67d0>
    8b7c:	fd737fe8 	ldc2l	15, cr7, [r3, #-928]!	; 0xfffffc60
    8b80:	c95c52fa 	ldmdbgt	ip, {r1, r3, r4, r5, r6, r7, r9, ip, lr}^
    8b84:	c730aa09 	ldrgt	sl, [r0, -r9, lsl #20]!
    8b88:	9dd604cf 	cfldrdls	mvd0, [r6, #828]	; 0x33c
    8b8c:	22ab4443 	adccs	r4, fp, #1124073472	; 0x43000000
    8b90:	77ec409e 			; <UNDEFINED> instruction: 0x77ec409e
    8b94:	4efd7c1e 	mrcmi	12, 7, r7, cr13, cr14, {0}
    8b98:	935fd4e3 	cmpls	pc, #-486539264	; 0xe3000000
    8b9c:	6a49a9b8 	bvs	1273284 <ZAG+0x126546c>
    8ba0:	fdb05a5b 	ldc2	10, cr5, [r0, #364]!	; 0x16c
    8ba4:	4052d0c0 	subsmi	sp, r2, r0, asr #1
    8ba8:	24fa7e60 	ldrbtcs	r7, [sl], #3680	; 0xe60
    8bac:	fc3b096c 	ldc2	9, cr0, [fp], #-432	; 0xfffffe50
    8bb0:	8e93e97a 	mrchi	9, 4, lr, cr3, cr10, {3}
    8bb4:	a7b14ea3 	ldrge	r4, [r1, r3, lsr #29]!
    8bb8:	db1f5c73 	blle	7dfd8c <ZAG+0x7d1f74>
    8bbc:	2a01e49d 	bcs	81e38 <ZAG+0x74020>
    8bc0:	1d60db47 	fstmdbxne	r0!, {d29-d63}	;@ Deprecated
    8bc4:	2d5d0313 	ldclcs	3, cr0, [sp, #-76]	; 0xffffffb4
    8bc8:	dcede0ee 	stclle	0, cr14, [sp], #952	; 0x3b8
    8bcc:	452163a7 	strmi	r6, [r1, #-935]!	; 0x3a7
    8bd0:	a16a2996 			; <UNDEFINED> instruction: 0xa16a2996
    8bd4:	e2a51979 	adc	r1, r5, #1982464	; 0x1e4000
    8bd8:	e2f7abae 	rscs	sl, r7, #178176	; 0x2b800
    8bdc:	86c77fc3 	strbhi	r7, [r7], r3, asr #31
    8be0:	71bf8dd8 			; <UNDEFINED> instruction: 0x71bf8dd8
    8be4:	55f8ed04 	ldrbpl	lr, [r8, #3332]!	; 0xd04
    8be8:	c55be7ec 	ldrbgt	lr, [fp, #-2028]	; 0x7ec
    8bec:	baf5651c 	blt	ffd62064 <end+0xbfc62064>
    8bf0:	e42cb5d4 	strt	fp, [ip], #-1492	; 0x5d4
    8bf4:	d3aa5cb0 			; <UNDEFINED> instruction: 0xd3aa5cb0
    8bf8:	5052a667 	subspl	sl, r2, r7, ror #12
    8bfc:	58984902 	ldmpl	r8, {r1, r8, fp, lr}
    8c00:	15d43e18 	ldrbne	r3, [r4, #3608]	; 0xe18
    8c04:	3d832819 	stccc	8, cr2, [r3, #100]	; 0x64
    8c08:	a1a546e5 			; <UNDEFINED> instruction: 0xa1a546e5
    8c0c:	701faf3c 	andsvc	sl, pc, ip, lsr pc	; <UNPREDICTABLE>
    8c10:	5095eed4 			; <UNDEFINED> instruction: 0x5095eed4
    8c14:	2a8d2d05 	bcs	fe354030 <end+0xbe254030>
    8c18:	c503958a 	strgt	r9, [r3, #-1418]	; 0x58a
    8c1c:	25024042 	strcs	r4, [r2, #-66]	; 0x42
    8c20:	88699ab7 	stmdahi	r9!, {r0, r1, r2, r4, r5, r7, r9, fp, ip, pc}^
    8c24:	c48cc166 	strgt	ip, [ip], #358	; 0x166
    8c28:	8ffaecfe 	svchi	0x00faecfe
    8c2c:	13ee29fd 	mvnne	r2, #4145152	; 0x3f4000
    8c30:	9eced9a7 	cdpls	9, 12, cr13, cr14, cr7, {5}
    8c34:	fdd9b1e3 	ldc2l	1, cr11, [r9, #908]	; 0x38c
    8c38:	ea178c79 	b	5ebe24 <ZAG+0x5de00c>
    8c3c:	5847c75a 	stmdapl	r7, {r1, r3, r4, r6, r8, r9, sl, lr, pc}^
    8c40:	a2dd65cf 	sbcsge	r6, sp, #868220928	; 0x33c00000
    8c44:	8a26d548 	bhi	9be16c <ZAG+0x9b0354>
    8c48:	a992b222 	ldmibge	r2, {r1, r5, r9, ip, sp, pc}
    8c4c:	6c439c24 	mcrrvs	12, 2, r9, r3, cr4
    8c50:	b6610741 	strbtlt	r0, [r1], -r1, asr #14
    8c54:	7bbbd7fb 	blvc	feefec48 <end+0xbedfec48>
    8c58:	d48e6ab5 	strle	r6, [lr], #2741	; 0xab5
    8c5c:	2f73c6a9 	svccs	0x0073c6a9
    8c60:	9c33bb8a 	ldcls	11, cr11, [r3], #-552	; 0xfffffdd8
    8c64:	b8084e5d 	stmdalt	r8, {r0, r2, r3, r4, r6, r9, sl, fp, lr}
    8c68:	00c9dbb6 	strheq	sp, [r9], #182	; 0xb6
    8c6c:	20316794 	mlascs	r1, r4, r7, r6
    8c70:	66902429 	ldrvs	r2, [r0], r9, lsr #8
    8c74:	ebe65601 	bl	ff99e480 <end+0xbf89e480>
    8c78:	5c1b775f 	ldcpl	7, cr7, [fp], {95}	; 0x5f
    8c7c:	10aaf4f1 	strdne	pc, [sl], r1	; <UNPREDICTABLE>
    8c80:	7428d094 	strtvc	sp, [r8], #-148	; 0x94
    8c84:	c84f0c75 	stmdagt	pc, {r0, r2, r4, r5, r6, sl, fp}^	; <UNPREDICTABLE>
    8c88:	344c55cc 	strbcc	r5, [ip], #-1484	; 0x5cc
    8c8c:	0f4cc262 	svceq	0x004cc262
    8c90:	5582b553 	strpl	fp, [r2, #1363]	; 0x553
    8c94:	f3f6281d 	vqshrun.s64	d18, <illegal reg q6.5>, #10
    8c98:	6bad7ed5 	blvs	feb687f4 <end+0xbea687f4>
    8c9c:	63ed59db 	mvnvs	r5, #3588096	; 0x36c000
    8ca0:	8153ca87 	cmphi	r3, r7, lsl #21
    8ca4:	9ba4988d 	blls	fe92eee0 <end+0xbe82eee0>
    8ca8:	89d2933c 	ldmibhi	r2, {r2, r3, r4, r5, r8, r9, ip, pc}^
    8cac:	bcd2b4a5 	cfldrdlt	mvd11, [r2], {165}	; 0xa5
    8cb0:	8e46f091 	mcrhi	0, 2, pc, cr6, cr1, {4}	; <UNPREDICTABLE>
    8cb4:	d6bb8d44 	ldrtle	r8, [fp], r4, asr #26
    8cb8:	5281e0a6 	addpl	lr, r1, #166	; 0xa6
    8cbc:	bac79242 	blt	ff1ed5cc <end+0xbf0ed5cc>
    8cc0:	575266f2 	smmlsrpl	r2, r2, r6, r6
    8cc4:	c30ddffc 	movwgt	sp, #57340	; 0xdffc
    8cc8:	19ac65f1 	stmibne	ip!, {r0, r4, r5, r6, r7, r8, sl, sp, lr}
    8ccc:	09629a5a 	stmdbeq	r2!, {r1, r3, r4, r6, r9, fp, ip, pc}^
    8cd0:	80180fa7 	andshi	r0, r8, r7, lsr #31
    8cd4:	05f21614 	ldrbeq	r1, [r2, #1556]!	; 0x614
    8cd8:	624155a1 	subvs	r5, r1, #675282944	; 0x28400000
    8cdc:	856d0858 	strbhi	r0, [sp, #-2136]!	; 0x858
    8ce0:	5b9267e9 	blpl	fe4a2c8c <end+0xbe3a2c8c>
    8ce4:	5cdaebfb 	fldmiaxpl	sl, {d30-d154}	;@ Deprecated
    8ce8:	15f7276e 	ldrbne	r2, [r7, #1902]!	; 0x76e
    8cec:	00212348 	eoreq	r2, r1, r8, asr #6
    8cf0:	e42d6709 	strt	r6, [sp], #-1801	; 0x709
    8cf4:	639540a5 	orrsvs	r4, r5, #165	; 0xa5
    8cf8:	2adb48a0 	bcs	ff6daf80 <end+0xbf5daf80>
    8cfc:	fb6d10b1 	blx	1b4cfca <ZAG+0x1b3f1b2>
    8d00:	0696327a 			; <UNDEFINED> instruction: 0x0696327a
    8d04:	2b237acd 	blcs	8e7840 <ZAG+0x8d9a28>
    8d08:	9ec99d24 	cdpls	13, 12, cr9, cr9, cr4, {1}
    8d0c:	4c83dd79 	stcmi	13, cr13, [r3], {121}	; 0x79
    8d10:	232327f1 	teqcs	r3, #63176704	; 0x3c40000
    8d14:	c3cc12af 	bicgt	r1, ip, #-268435446	; 0xf000000a
    8d18:	cf176290 	svcgt	0x00176290
    8d1c:	95c20314 	strbls	r0, [r2, #788]	; 0x314
    8d20:	0ecd0800 	cdpeq	8, 12, cr0, cr13, cr0, {0}
    8d24:	83feea66 	mvnshi	lr, #417792	; 0x66000
    8d28:	1847a7d7 	stmdane	r7, {r0, r1, r2, r4, r6, r7, r8, r9, sl, sp, pc}^
    8d2c:	03902c00 	orrseq	r2, r0, #0, 24
    8d30:	48107112 	ldmdami	r0, {r1, r4, r8, ip, sp, lr}
    8d34:	f6d8a851 			; <UNDEFINED> instruction: 0xf6d8a851
    8d38:	6407fbc4 	strvs	pc, [r7], #-3012	; 0xbc4
    8d3c:	706acf15 	rsbvc	ip, sl, r5, lsl pc
    8d40:	462d0f9c 	qadd8mi	r0, sp, ip
    8d44:	f9b994d3 			; <UNDEFINED> instruction: 0xf9b994d3
    8d48:	78a696d5 	stmiavc	r6!, {r0, r2, r4, r6, r7, r9, sl, ip, pc}
    8d4c:	5a905a0c 	bpl	fe41f584 <end+0xbe31f584>
    8d50:	2732ab44 	ldrcs	sl, [r2, -r4, asr #22]!
    8d54:	57c9c4c8 	strbpl	ip, [r9, r8, asr #9]
    8d58:	18218004 	stmdane	r1!, {r2, pc}
    8d5c:	afc460b8 	svcge	0x00c460b8
    8d60:	c7982b7b 			; <UNDEFINED> instruction: 0xc7982b7b
    8d64:	b136ec9c 			; <UNDEFINED> instruction: 0xb136ec9c
    8d68:	69975ce1 	ldmibvs	r7, {r0, r5, r6, r7, sl, fp, ip, lr}
    8d6c:	947bb7a7 	ldrbtls	fp, [fp], #-1959	; 0x7a7
    8d70:	56b779c2 	ldrtpl	r7, [r7], r2, asr #19
    8d74:	c1405640 	cmpgt	r0, r0, asr #12
    8d78:	f2e012f9 	vrshr.s64	<illegal reg q8.5>, <illegal reg q12.5>, #32
    8d7c:	82c04e1e 	sbchi	r4, r0, #480	; 0x1e0
    8d80:	fa95da09 	blx	fe57f5ac <end+0xbe47f5ac>
    8d84:	b5925f7d 	ldrlt	r5, [r2, #3965]	; 0xf7d
    8d88:	5c9793f9 	ldcpl	3, cr9, [r7], {249}	; 0xf9
    8d8c:	06c5d6a9 	strbeq	sp, [r5], r9, lsr #13
    8d90:	2098ea97 	umullscs	lr, r8, r7, sl
    8d94:	c4d22f9d 	ldrbgt	r2, [r2], #3997	; 0xf9d
    8d98:	10882591 	umullne	r2, r8, r1, r5
    8d9c:	c00ab1a0 	andgt	fp, sl, r0, lsr #3
    8da0:	6c97be3b 	ldcvs	14, cr11, [r7], {59}	; 0x3b
    8da4:	dda454df 	cfstrsle	mvf5, [r4, #892]!	; 0x37c
    8da8:	50d658b2 	ldrhpl	r5, [r6], #130	; 0x82
    8dac:	a3c61ff5 	bicge	r1, r6, #980	; 0x3d4
    8db0:	3bab2aab 	blcc	fead3864 <end+0xbe9d3864>
    8db4:	e4b3cc16 	ldrt	ip, [r3], #3094	; 0xc16
    8db8:	19fe4fb8 	ldmibne	lr!, {r3, r4, r5, r7, r8, r9, sl, fp, lr}^
    8dbc:	3dcb55a6 	cfstr64cc	mvdx5, [fp, #664]	; 0x298
    8dc0:	7c7a0845 	ldclvc	8, cr0, [sl], #-276	; 0xfffffeec
    8dc4:	6272ef68 	rsbsvs	lr, r2, #104, 30	; 0x1a0
    8dc8:	ca24c985 	bgt	93b3e4 <ZAG+0x92d5cc>
    8dcc:	8ae9cbe1 	bhi	ffa7bd58 <end+0xbf97bd58>
    8dd0:	b14ad7b0 	strhlt	sp, [sl, #-112]	; 0xffffff90
    8dd4:	9a22e8e3 	bls	8c3168 <ZAG+0x8b5350>
    8dd8:	213a7e16 	teqcs	sl, r6, lsl lr
    8ddc:	55b83f8a 	ldrpl	r3, [r8, #3978]!	; 0xf8a
    8de0:	54b2f088 	ldrtpl	pc, [r2], #136	; 0x88	; <UNPREDICTABLE>
    8de4:	46625f12 	uqadd16mi	r5, r2, r2
    8de8:	671147fc 			; <UNDEFINED> instruction: 0x671147fc
    8dec:	8d740a6b 	vldmdbhi	r4!, {s1-s107}
    8df0:	c264180a 	rsbgt	r1, r4, #655360	; 0xa0000
    8df4:	54402148 	strbpl	r2, [r0], #-328	; 0x148
    8df8:	ff917101 			; <UNDEFINED> instruction: 0xff917101
    8dfc:	208e4e00 	addcs	r4, lr, r0, lsl #28
    8e00:	81c85b02 	bichi	r5, r8, r2, lsl #22
    8e04:	0a8d182a 	beq	fe34eeb4 <end+0xbe24eeb4>
    8e08:	5a00ff7d 	bpl	48c04 <ZAG+0x3adec>
    8e0c:	75ab76ad 	strvc	r7, [fp, #1709]!	; 0x6ad
    8e10:	006c9a4c 	rsbeq	r9, ip, ip, asr #20
    8e14:	174b5066 	strbne	r5, [fp, -r6, rrx]
    8e18:	cf32473e 	svcgt	0x0032473e
    8e1c:	3e1a1204 	cdpcc	2, 1, cr1, cr10, cr4, {0}
    8e20:	0c8901e6 	stfeqs	f0, [r9], {230}	; 0xe6
    8e24:	d77a907a 			; <UNDEFINED> instruction: 0xd77a907a
    8e28:	34e3c994 	strbtcc	ip, [r3], #2452	; 0x994
    8e2c:	d72799dd 			; <UNDEFINED> instruction: 0xd72799dd
    8e30:	72fa4b59 	rscsvc	r4, sl, #91136	; 0x16400
    8e34:	860abf2b 	strhi	fp, [sl], -fp, lsr #30
    8e38:	ce69273b 	mcrgt	7, 3, r2, cr9, cr11, {1}
    8e3c:	b033c44a 	eorslt	ip, r3, sl, asr #8
    8e40:	2114288e 	tstcs	r4, lr, lsl #17
    8e44:	a880642d 	stmge	r0, {r0, r2, r3, r5, sl, sp, lr}
    8e48:	1ebf290c 	cdpne	9, 11, cr2, cr15, cr12, {0}
    8e4c:	1e1fe94e 	cdpne	9, 1, cr14, cr15, cr14, {2}
    8e50:	e7dd2aeb 	ldrb	r2, [sp, fp, ror #21]
    8e54:	d4a2d26c 	strtle	sp, [r2], #620	; 0x26c
    8e58:	7624256b 	strtvc	r2, [r4], -fp, ror #10
    8e5c:	b2280b48 	eorlt	r0, r8, #72, 22	; 0x12000
    8e60:	93426d80 	movtls	r6, #11648	; 0x2d80
    8e64:	44b40fe8 	ldrtmi	r0, [r4], #4072	; 0xfe8
    8e68:	ad9e807d 	ldcge	0, cr8, [lr, #500]	; 0x1f4
    8e6c:	8bfabbfd 	blhi	ffeb7e68 <end+0xbfdb7e68>
    8e70:	5c1b77c1 	ldcpl	7, cr7, [fp], {193}	; 0xc1
    8e74:	3f34f2db 	svccc	0x0034f2db
    8e78:	90c8006e 	sbcls	r0, r8, lr, rrx
    8e7c:	868d8bcd 	strhi	r8, [sp], sp, asr #23
    8e80:	7d0c102c 	stcvc	0, cr1, [ip, #-176]	; 0xffffff50
    8e84:	83b40489 			; <UNDEFINED> instruction: 0x83b40489
    8e88:	d28338b6 	addle	r3, r3, #11927552	; 0xb60000
    8e8c:	370bcd62 	strcc	ip, [fp, -r2, ror #26]
    8e90:	542e68c5 	strtpl	r6, [lr], #-2245	; 0x8c5
    8e94:	11c1eb34 	bicne	lr, r1, r4, lsr fp
    8e98:	897a6358 	ldmdbhi	sl!, {r3, r4, r6, r8, r9, sp, lr}^
    8e9c:	7656745a 			; <UNDEFINED> instruction: 0x7656745a
    8ea0:	07fa1794 			; <UNDEFINED> instruction: 0x07fa1794
    8ea4:	fe877b62 	vminnm.f64	d7, d7, d18
    8ea8:	1702c841 	strne	ip, [r2, -r1, asr #16]
    8eac:	bf1e45c0 	svclt	0x001e45c0
    8eb0:	7f6b562a 	svcvc	0x006b562a
    8eb4:	dce31016 	stclle	0, cr1, [r3], #88	; 0x58
    8eb8:	00fffbcf 	rscseq	pc, pc, pc, asr #23
    8ebc:	47a3fdef 	strmi	pc, [r3, pc, ror #27]!
    8ec0:	2d3c364e 	ldccs	6, cr3, [ip, #-312]!	; 0xfffffec8
    8ec4:	e93539bf 	ldmdb	r5!, {r0, r1, r2, r3, r4, r5, r7, r8, fp, ip, sp}
    8ec8:	588ed610 	stmpl	lr, {r4, r9, sl, ip, lr, pc}
    8ecc:	3e9e52a1 	cdpcc	2, 9, cr5, cr14, cr1, {5}
    8ed0:	0960e947 	stmdbeq	r0!, {r0, r1, r2, r6, r8, fp, sp, lr, pc}^
    8ed4:	990299c4 	stmdbls	r2, {r2, r6, r7, r8, fp, ip, pc}
    8ed8:	902f2900 	eorls	r2, pc, r0, lsl #18
    8edc:	665f8a0e 	ldrbvs	r8, [pc], -lr, lsl #20
    8ee0:	a5b59bce 	ldrge	r9, [r5, #3022]!	; 0xbce
    8ee4:	42ee54bb 	rscmi	r5, lr, #-1157627904	; 0xbb000000
    8ee8:	7fa09822 	svcvc	0x00a09822
    8eec:	e4214f05 	strt	r4, [r1], #-3845	; 0xf05
    8ef0:	fcf1f56f 	ldc2l	5, cr15, [r1], #444	; 0x1bc
    8ef4:	d6e3f37f 			; <UNDEFINED> instruction: 0xd6e3f37f
    8ef8:	d42aedb5 	strtle	lr, [sl], #-3509	; 0xdb5
    8efc:	8275c56a 	rsbshi	ip, r5, #444596224	; 0x1a800000
    8f00:	ff3a1377 			; <UNDEFINED> instruction: 0xff3a1377
    8f04:	7b9a7e00 	blvc	fe6a870c <end+0xbe5a870c>
    8f08:	79e29043 	stmibvc	r2!, {r0, r1, r6, ip, pc}^
    8f0c:	0f37300e 	svceq	0x0037300e
    8f10:	3844e557 	stmdacc	r4, {r0, r1, r2, r4, r6, r8, sl, sp, lr, pc}^
    8f14:	585260b3 	ldmdapl	r2, {r0, r1, r4, r5, r7, sp, lr}^
    8f18:	aa824c00 	bge	fe09bf20 <end+0xbdf9bf20>
    8f1c:	eabd117d 	b	fef4d518 <end+0xbee4d518>
    8f20:	d6938925 	ldrle	r8, [r3], r5, lsr #18
    8f24:	b9d193be 	ldmiblt	r1, {r1, r2, r3, r4, r5, r7, r8, r9, ip, pc}^
    8f28:	352d632d 	strcc	r6, [sp, #-813]!	; 0x32d
    8f2c:	f90dc5c5 			; <UNDEFINED> instruction: 0xf90dc5c5
    8f30:	46345eec 	ldrtmi	r5, [r4], -ip, ror #29
    8f34:	edf62c3d 	ldcl	12, cr2, [r6, #244]!	; 0xf4
    8f38:	c95c0831 	ldmdbgt	ip, {r0, r4, r5, fp}^
    8f3c:	1f6d8bc7 	svcne	0x006d8bc7
    8f40:	fecf3c8e 	cdp2	12, 12, cr3, cr15, cr14, {4}
    8f44:	81f436de 	ldrsbhi	r3, [r4, #110]!	; 0x6e
    8f48:	d802f7ca 	stmdale	r2, {r1, r3, r6, r7, r8, r9, sl, ip, sp, lr, pc}
    8f4c:	410ad1b3 			; <UNDEFINED> instruction: 0x410ad1b3
    8f50:	27120d89 	ldrcs	r0, [r2, -r9, lsl #27]
    8f54:	db09602c 	blle	26100c <ZAG+0x2531f4>
    8f58:	65d5a14f 	ldrbvs	sl, [r5, #335]	; 0x14f
    8f5c:	136d2d6c 	cmnne	sp, #108, 26	; 0x1b00
    8f60:	71f517f7 	ldrshvc	r1, [r5, #119]!	; 0x77
    8f64:	0bc98140 	bleq	ff26946c <end+0xbf16946c>
    8f68:	4b21062b 	blmi	84a81c <ZAG+0x83ca04>
    8f6c:	c93da764 	ldmdbgt	sp!, {r2, r5, r6, r8, r9, sl, sp, pc}
    8f70:	1b76bc51 	blne	1db80bc <ZAG+0x1daa2a4>
    8f74:	3f343e7d 	svccc	0x00343e7d
    8f78:	5017754a 	andspl	r7, r7, sl, asr #10
    8f7c:	4753a634 	smmlarmi	r3, r4, r6, sl
    8f80:	2e86fc35 	mcrcs	12, 4, pc, cr6, cr5, {1}	; <UNPREDICTABLE>
    8f84:	0dcd04be 	cfstrdeq	mvd0, [sp, #760]	; 0x2f8
    8f88:	4525178a 	strmi	r1, [r5, #-1930]!	; 0x78a
    8f8c:	29de1985 	ldmibcs	lr, {r0, r2, r7, r8, fp, ip}^
    8f90:	036c8797 	cmneq	ip, #39583744	; 0x25c0000
    8f94:	05240c29 	streq	r0, [r4, #-3113]!	; 0xc29
    8f98:	400e04a5 	andmi	r0, lr, r5, lsr #9
    8f9c:	50fb83aa 	rscspl	r8, fp, sl, lsr #7
    8fa0:	f2a63bae 	vqdmlsl.s32	<illegal reg q1.5>, d22, d30
    8fa4:	82d4fc93 	sbcshi	pc, r4, #37632	; 0x9300
    8fa8:	0452aeb4 	ldrbeq	sl, [r2], #-3764	; 0xeb4
    8fac:	4e4c1710 	mcrmi	7, 2, r1, cr12, cr0, {0}
    8fb0:	88d74747 	ldmhi	r7, {r0, r1, r2, r6, r8, r9, sl, lr}^
    8fb4:	7228bdfe 	eorvc	fp, r8, #16256	; 0x3f80
    8fb8:	3771c24f 	ldrbcc	ip, [r1, -pc, asr #4]!
    8fbc:	8c1fb934 	ldchi	9, cr11, [pc], {52}	; 0x34
    8fc0:	2a88f954 	bcs	fe247518 <end+0xbe147518>
    8fc4:	32005346 	andcc	r5, r0, #402653185	; 0x18000001
    8fc8:	11e96790 			; <UNDEFINED> instruction: 0x11e96790
    8fcc:	520e0189 	andpl	r0, lr, #1073741858	; 0x40000022
    8fd0:	8b464c0e 	blhi	119c010 <ZAG+0x118e1f8>
    8fd4:	c5f1a033 	ldrbgt	sl, [r1, #51]!	; 0x33
    8fd8:	72494d73 	subvc	r4, r9, #7360	; 0x1cc0
    8fdc:	6528340a 	strvs	r3, [r8, #-1034]!	; 0x40a
    8fe0:	566cdc6a 	strbtpl	sp, [ip], -sl, ror #24
    8fe4:	d614c456 			; <UNDEFINED> instruction: 0xd614c456
    8fe8:	42616931 	rsbmi	r6, r1, #802816	; 0xc4000
    8fec:	1c41acf1 	mcrrne	12, 15, sl, r1, cr1
    8ff0:	2bf9c008 	blcs	ffe79018 <end+0xbfd79018>
    8ff4:	73420121 	movtvc	r0, #8481	; 0x2121
    8ff8:	0ca87292 	sfmeq	f7, 4, [r8], #584	; 0x248
    8ffc:	d033bd85 	eorsle	fp, r3, r5, lsl #27
    9000:	4d793fe4 	ldclmi	15, cr3, [r9, #-912]!	; 0xfffffc70
    9004:	24c8360b 	strbcs	r3, [r8], #1547	; 0x60b
    9008:	04f67702 	ldrbteq	r7, [r6], #1794	; 0x702
    900c:	b05f00ff 	ldrshlt	r0, [pc], #-15	; <UNPREDICTABLE>
    9010:	f603fb27 			; <UNDEFINED> instruction: 0xf603fb27
    9014:	5cde65ea 	cfldr64pl	mvdx6, [lr], {234}	; 0xea
    9018:	913b2e6d 	teqls	fp, sp, ror #28
    901c:	aa940066 	bge	fe5091bc <end+0xbe4091bc>
    9020:	a4fcd48a 	ldrbtge	sp, [ip], #1162	; 0x48a
    9024:	3904b1ac 	stmdbcc	r4, {r2, r3, r5, r7, r8, ip, sp, pc}
    9028:	b8182d2b 	ldmdalt	r8, {r0, r1, r3, r5, r8, sl, fp, sp}
    902c:	b8205b50 	stmdalt	r0!, {r4, r6, r8, r9, fp, ip, lr}
    9030:	924a9c4b 	subls	r9, sl, #19200	; 0x4b00
    9034:	8ff4ac3e 	svchi	0x00f4ac3e
    9038:	45b7754b 	ldrmi	r7, [r7, #1355]!	; 0x54b
    903c:	bbfad2da 	bllt	ffebdbac <end+0xbfdbdbac>
    9040:	5c2cb91a 	stcpl	9, cr11, [ip], #-104	; 0xffffff98
    9044:	0f4225cc 	svceq	0x004225cc
    9048:	bbca6b09 	bllt	ff2a3c74 <end+0xbf1a3c74>
    904c:	1e2796f1 	mcrne	6, 1, r9, cr7, cr1, {7}
    9050:	6ee4c651 	mcrvs	6, 7, ip, cr4, cr1, {2}
    9054:	90b2203f 	adcsls	r2, r2, pc, lsr r0
    9058:	56129855 			; <UNDEFINED> instruction: 0x56129855
    905c:	2aad35f7 	bcs	feb56840 <end+0xbea56840>
    9060:	0f5ab47c 	svceq	0x005ab47c
    9064:	8a6cea53 	bhi	1b439b8 <ZAG+0x1b35ba0>
    9068:	8081ceea 	addhi	ip, r1, sl, ror #29
    906c:	3198c120 	orrscc	ip, r8, r0, lsr #2
    9070:	834130f6 	movthi	r3, #4342	; 0x10f6
    9074:	f007c1e8 			; <UNDEFINED> instruction: 0xf007c1e8
    9078:	aac65047 	bge	ff19d19c <end+0xbf09d19c>
    907c:	db57a1f6 	blle	15f185c <ZAG+0x15e3a44>
    9080:	2c39a35e 	ldccs	3, cr10, [r9], #-376	; 0xfffffe88
    9084:	e3ac9704 			; <UNDEFINED> instruction: 0xe3ac9704
    9088:	22cc13b3 	sbccs	r1, ip, #-872415230	; 0xcc000002
    908c:	8c7876a5 	ldclhi	6, cr7, [r8], #-660	; 0xfffffd6c
    9090:	546e0ca9 	strbtpl	r0, [lr], #-3241	; 0xca9
    9094:	7cec5400 	cfstrdvc	mvd5, [ip]
    9098:	77e6b03a 			; <UNDEFINED> instruction: 0x77e6b03a
    909c:	2d9ec42b 	cfldrscs	mvf12, [lr, #172]	; 0xac
    90a0:	e9178bba 	ldmdb	r7, {r1, r3, r4, r5, r7, r8, r9, fp, pc}
    90a4:	c939f7bd 	ldmdbgt	r9!, {r0, r2, r3, r4, r5, r7, r8, r9, sl, ip, sp, lr, pc}
    90a8:	152b75f2 	strne	r7, [fp, #-1522]!	; 0x5f2
    90ac:	86822d05 	strhi	r2, [r2], r5, lsl #26
    90b0:	e457138f 	ldrb	r1, [r7], #-911	; 0x38f
    90b4:	af24350c 	svcge	0x0024350c
    90b8:	16c45289 	strbne	r5, [r4], r9, lsl #5
    90bc:	20a8815d 	adccs	r8, r8, sp, asr r1
    90c0:	d26e5f8b 	rsble	r5, lr, #556	; 0x22c
    90c4:	abd0e8e1 	blge	ff443450 <end+0xbf343450>
    90c8:	67d0c677 			; <UNDEFINED> instruction: 0x67d0c677
    90cc:	0a2425b8 	beq	9127b4 <ZAG+0x90499c>
    90d0:	d2302d84 	eorsle	r2, r0, #132, 26	; 0x2100
    90d4:	5c652058 	stclpl	0, cr2, [r5], #-352	; 0xfffffea0
    90d8:	2454d4a3 	ldrbcs	sp, [r4], #-1187	; 0x4a3
    90dc:	80b9ca4a 	adcshi	ip, r9, sl, asr #20
    90e0:	6295f6cd 	addsvs	pc, r5, #214958080	; 0xcd00000
    90e4:	2a55308c 	bcs	155531c <ZAG+0x1547504>
    90e8:	15c2fdac 	strbne	pc, [r2, #3500]	; 0xdac	; <UNPREDICTABLE>
    90ec:	04b71c88 	ldrteq	r1, [r7], #3208	; 0xc88
    90f0:	c88d0ffe 	stmgt	sp, {r1, r2, r3, r4, r5, r6, r7, r8, r9, sl, fp}
    90f4:	73e707f2 	mvnvc	r0, #63438848	; 0x3c80000
    90f8:	eafae4bf 	b	ffec23fc <end+0xbfdc23fc>
    90fc:	d48a965a 	strle	r9, [sl], #1626	; 0x65a
    9100:	2826959e 	stmdacs	r6!, {r1, r2, r3, r4, r7, r8, sl, ip, pc}
    9104:	d8a94c5a 	stmiale	r9!, {r1, r3, r4, r6, sl, fp, lr}
    9108:	3d32913f 	ldfccd	f1, [r2, #-252]!	; 0xffffff04
    910c:	b10a82ec 	smlattlt	sl, ip, r2, r8
    9110:	9796819c 			; <UNDEFINED> instruction: 0x9796819c
    9114:	244da1d4 	strbcs	sl, [sp], #-468	; 0x1d4
    9118:	514e8028 	cmppl	lr, r8, lsr #32
    911c:	fb416e24 	blx	10649b6 <ZAG+0x1056b9e>
    9120:	9044021d 	subls	r0, r4, sp, lsl r2
    9124:	32331920 	eorscc	r1, r3, #32, 18	; 0x80000
    9128:	ea4b5f67 	b	12e0ecc <ZAG+0x12d30b4>
    912c:	f24f97dc 	vaba.s8	<illegal reg q12.5>, <illegal reg q15.5>, q6
    9130:	5271e551 	rsbspl	lr, r1, #339738624	; 0x14400000
    9134:	32f17a31 	rscscc	r7, r1, #200704	; 0x31000
    9138:	4fa60cbc 	svcmi	0x00a60cbc
    913c:	8d379e92 	ldchi	14, cr9, [r7, #-584]!	; 0xfffffdb8
    9140:	40703fc1 	rsbsmi	r3, r0, r1, asr #31
    9144:	ec3b1ffc 	ldc	15, cr1, [fp], #-1008	; 0xfffffc10
    9148:	e8030441 	stmda	r3, {r0, r6, sl}
    914c:	dac23f1f 	ble	ff098dd0 <end+0xbef98dd0>
    9150:	d9731c73 	ldmdble	r3!, {r0, r1, r4, r5, r6, sl, fp, ip}^
    9154:	47c9275f 			; <UNDEFINED> instruction: 0x47c9275f
    9158:	e4c9a813 	strb	sl, [r9], #2067	; 0x813
    915c:	4fac120f 	svcmi	0x00ac120f
    9160:	084206d4 	stmdaeq	r2, {r2, r4, r6, r7, r9, sl}^
    9164:	19134c39 	ldmdbne	r3, {r0, r3, r4, r5, sl, fp, lr}
    9168:	2de4d206 	sfmcs	f5, 3, [r4, #24]!
    916c:	b558ab2d 	ldrblt	sl, [r8, #-2861]	; 0xb2d
    9170:	88cda82a 	stmiahi	sp, {r1, r3, r5, fp, sp, pc}^
    9174:	15580691 	ldrbne	r0, [r8, #-1681]	; 0x691
    9178:	2f3b6b07 	svccs	0x003b6b07
    917c:	60ef0cea 	rscvs	r0, pc, sl, ror #25
    9180:	e843f5cc 	stmda	r3, {r2, r3, r6, r7, r8, sl, ip, sp, lr, pc}^
    9184:	fe7872bf 	mrc2	2, 3, r7, cr8, cr15, {5}
    9188:	e5eae8a1 	strb	lr, [sl, #2209]!	; 0x8a1
    918c:	d5e3f571 	strble	pc, [r3, #1393]!	; 0x571	; <UNPREDICTABLE>
    9190:	74acab12 	strtvc	sl, [ip], #2834	; 0xb12
    9194:	b2f69fac 	rscslt	r9, r6, #172, 30	; 0x2b0
    9198:	4cc5ad4a 	stclmi	13, cr10, [r5], {74}	; 0x4a
    919c:	bb113f72 	bllt	458f6c <ZAG+0x44b154>
    91a0:	ca11658e 	bgt	4627e0 <ZAG+0x4549c8>
    91a4:	9dc1cb6e 	vstrls	d28, [r1, #440]	; 0x1b8
    91a8:	133c5737 	teqne	ip, #14417920	; 0xdc0000
    91ac:	5adbdacc 	bpl	ff6ffce4 <end+0xbf5ffce4>
    91b0:	aeb154dc 	mrcge	4, 5, r5, cr1, cr12, {6}
    91b4:	337ff8c8 	cmncc	pc, #200, 16	; 0xc80000
    91b8:	67804908 	strvs	r4, [r0, r8, lsl #18]
    91bc:	f8379060 			; <UNDEFINED> instruction: 0xf8379060
    91c0:	ba4e9d98 	blt	13b0828 <ZAG+0x13a2a10>
    91c4:	ddf65993 	ldclle	9, cr5, [r6, #588]!	; 0x24c
    91c8:	bd1cd1da 	ldfltd	f5, [ip, #-872]	; 0xfffffc98
    91cc:	cba98d1c 	blgt	fea6c644 <end+0xbe96c644>
    91d0:	cd0c00ff 	stcgt	0, cr0, [ip, #-1020]	; 0xfffffc04
    91d4:	8830434c 	ldmdahi	r0!, {r2, r3, r6, r8, r9, lr}
    91d8:	b9ea3e21 	stmiblt	sl!, {r0, r5, r9, sl, fp, ip, sp}^
    91dc:	0f563a36 	svceq	0x00563a36
    91e0:	7795c581 	ldrvc	ip, [r5, r1, lsl #11]
    91e4:	9cd85435 	cfldrdls	mvd5, [r8], {53}	; 0x35
    91e8:	4d751704 	ldclmi	7, cr1, [r5, #-16]!
    91ec:	0d5b09eb 	ldcleq	9, cr0, [fp, #-940]	; 0xfffffc54
    91f0:	af39e614 	svcge	0x0039e614
    91f4:	df185e92 	svcle	0x00185e92
    91f8:	785661b8 	ldmdavc	r6, {r3, r4, r5, r7, r8, sp, lr}^
    91fc:	17091be3 	strne	r1, [r9, -r3, ror #23]
    9200:	1d3e0761 	ldcne	7, cr0, [lr, #-388]!	; 0xfffffe7c
    9204:	cd0855c5 	cfstr32gt	mvfx5, [r8, #-788]	; 0xfffffcec
    9208:	57a63eb0 			; <UNDEFINED> instruction: 0x57a63eb0
    920c:	2ee591a3 	urdcsdp	f1, f3
    9210:	28c300ff 	stmiacs	r3, {r0, r1, r2, r3, r4, r5, r6, r7}^
    9214:	ab74a800 	blge	1d3321c <ZAG+0x1d25404>
    9218:	c60585ad 	strgt	r8, [r5], -sp, lsr #11
    921c:	200e2c80 	andcs	r2, lr, r0, lsl #25
    9220:	4105401c 	tstmi	r5, ip, lsl r0
    9224:	12c8c350 	sbcne	ip, r8, #80, 6	; 0x40000001
    9228:	287063c1 	ldmdacs	r0!, {r0, r6, r7, r8, r9, sp, lr}^
    922c:	8d7a4bd0 	vldmdbhi	sl!, {d20-<overflow reg d59>}
    9230:	e4830215 	str	r0, [r3], #533	; 0x215
    9234:	d0806842 	addle	r6, r0, r2, asr #16
    9238:	5100a31e 	tstpl	r0, lr, lsl r3
    923c:	cf00f989 	svcgt	0x0000f989
    9240:	d02577e3 	eorle	r7, r5, r3, ror #15
    9244:	d18e004c 	orrle	r0, lr, ip, asr #32
    9248:	5b064cf9 	blpl	19c634 <ZAG+0x18e81c>
    924c:	e37b6b4b 	cmn	fp, #76800	; 0x12c00
    9250:	b97a4623 	ldmdblt	sl!, {r0, r1, r5, r9, sl, lr}^
    9254:	4ebbe729 	cdpmi	7, 11, cr14, cr11, cr9, {1}
    9258:	bd57a9ad 	ldcllt	9, cr10, [r7, #-692]	; 0xfffffd4c
    925c:	218fee14 	orrcs	lr, pc, r4, lsl lr	; <UNPREDICTABLE>
    9260:	83c41ffa 	bichi	r1, r4, #1000	; 0x3e8
    9264:	eeba89ba 	mrc	9, 5, r8, cr10, cr10, {5}
    9268:	20814d77 	addcs	r4, r1, r7, ror sp
    926c:	59347a02 	ldmdbpl	r4!, {r1, r9, fp, ip, sp, lr}
    9270:	bd72d9dd 	ldcllt	9, cr13, [r2, #-884]!	; 0xfffffc8c
    9274:	5bc167af 	blpl	ff063138 <end+0xbef63138>
    9278:	05b45a54 	ldreq	r5, [r4, #2644]!	; 0xa54
    927c:	92527531 	subsls	r7, r2, #205520896	; 0xc400000
    9280:	a86a64c8 	stmdage	sl!, {r3, r6, r7, sl, sp, lr}^
    9284:	89f4aa31 	ldmibhi	r4!, {r0, r4, r5, r9, fp, sp, pc}^
    9288:	b8133f94 	ldmdalt	r3, {r2, r4, r7, r8, r9, sl, fp, ip, sp}
    928c:	cb08b15a 	blgt	2357fc <ZAG+0x2279e4>
    9290:	ab9a0d90 	blge	fe68c8d8 <end+0xbe58c8d8>
    9294:	bdd1a54d 	cfldr64lt	mvdx10, [r1, #308]	; 0x134
    9298:	93566fa3 	cmpls	r6, #652	; 0x28c
    929c:	27a981b3 			; <UNDEFINED> instruction: 0x27a981b3
    92a0:	6039412c 	eorsvs	r4, r9, ip, lsr #2
    92a4:	ce022648 	cfmadd32gt	mvax2, mvfx2, mvfx2, mvfx8
    92a8:	7544f997 	strbvc	pc, [r4, #-2455]	; 0x997	; <UNPREDICTABLE>
    92ac:	4ef8d299 	mrcmi	2, 7, sp, cr8, cr9, {4}
    92b0:	f565ca89 			; <UNDEFINED> instruction: 0xf565ca89
    92b4:	0475f8a5 	ldrbteq	pc, [r5], #-2213	; 0x8a5	; <UNPREDICTABLE>
    92b8:	94a6e6d8 	strtls	lr, [r6], #1752	; 0x6d8
    92bc:	350ac138 	strcc	ip, [sl, #-312]	; 0x138
    92c0:	a5bb2115 	ldrge	r2, [fp, #277]!	; 0x115
    92c4:	ee1ec0be 	mrc	0, 0, ip, cr14, cr14, {5}
    92c8:	bc159ecc 	ldclt	14, cr9, [r5], {204}	; 0xcc
    92cc:	65a7f2a9 	strvs	pc, [r7, #681]!	; 0x2a9
    92d0:	fdeaf720 	stc2l	7, cr15, [sl, #128]!	; 0x80
    92d4:	b6e34e2b 	strbtlt	r4, [r3], fp, lsr #28
    92d8:	e5b5b7b7 	ldr	fp, [r5, #1975]!	; 0x7b7
    92dc:	926aa868 	rsbls	sl, sl, #104, 16	; 0x680000
    92e0:	909f54eb 	addsls	r5, pc, fp, ror #9
    92e4:	a1080632 	tstge	r8, r2, lsr r6
    92e8:	50675229 	rsbpl	r5, r7, r9, lsr #4
    92ec:	f20fd499 	vqshl.s8	d13, d9, d31
    92f0:	43c52a28 	bicmi	r2, r5, #40, 20	; 0x28000
    92f4:	0ad1b51c 	beq	ff47676c <end+0xbf37676c>
    92f8:	9b5b7ddc 	blls	16e8a70 <ZAG+0x16dac58>
    92fc:	5f9546e1 	svcpl	0x009546e1
    9300:	61411f36 	cmpvs	r1, r6, lsr pc
    9304:	6b18261a 	blvs	612b74 <ZAG+0x604d5c>
    9308:	0c6622f3 	sfmeq	f2, 2, [r6], #-972	; 0xfffffc34
    930c:	6747e07d 	smlsldxvs	lr, r7, sp, r0
    9310:	e7ab97a0 	str	r9, [fp, r0, lsr #15]!
    9314:	2dedb930 	stclcs	9, cr11, [sp, #192]!	; 0xc0
    9318:	efb5c469 	svc	0x00b5c469
    931c:	dfd7e2c0 	svcle	0x00d7e2c0
    9320:	86ec2c8b 	strbthi	r2, [ip], fp, lsl #25
    9324:	c86f1739 	stmdagt	pc!, {r0, r3, r4, r5, r8, r9, sl, ip}^	; <UNPREDICTABLE>
    9328:	00c4aa2c 	sbceq	sl, r4, ip, lsr #20
    932c:	4022c246 	eormi	ip, r2, r6, asr #4
    9330:	07e973db 	ubfxeq	r7, fp, #7, #10
    9334:	8bdb46f5 	blhi	ff6daf10 <end+0xbf5daf10>
    9338:	dd19773c 	ldcle	7, cr7, [r9, #-240]	; 0xffffff10
    933c:	bc047bfc 	stclt	11, cr7, [r4], {252}	; 0xfc
    9340:	5b8a9a67 	blpl	fe2afce4 <end+0xbe1afce4>
    9344:	7cf56326 	ldclvc	3, cr6, [r5], #152	; 0x98
    9348:	aa0a9191 	bge	2ad994 <ZAG+0x29fb7c>
    934c:	118050e3 	orrne	r5, r0, r3, ror #1
    9350:	02c64155 	sbceq	r4, r6, #1073741845	; 0x40000015
    9354:	6a9287f5 	bvs	fe4ab330 <end+0xbe3ab330>
    9358:	b5da4037 	ldrblt	r4, [sl, #55]	; 0x37
    935c:	9ae15f51 	bls	ff8610a8 <end+0xbf7610a8>
    9360:	0019036f 	andseq	r0, r9, pc, ror #6
    9364:	05514990 	ldrbeq	r4, [r1, #-2448]	; 0x990
    9368:	727fa765 	rsbsvc	sl, pc, #26476544	; 0x1940000
    936c:	e244c774 	sub	ip, r4, #116, 14	; 0x1d00000
    9370:	cbfad153 	blgt	ffebd8c4 <end+0xbfdbd8c4>
    9374:	b4b2e05c 	ldrtlt	lr, [r2], #92	; 0x5c
    9378:	7c661675 	stclvc	6, cr1, [r6], #-468	; 0xfffffe2c
    937c:	ef640cc5 	svc	0x00640cc5
    9380:	64af7704 	strtvs	r7, [pc], #1796	; 9388 <jpegdata+0x6fd8>
    9384:	a2b2b8b7 	adcsge	fp, r2, #11993088	; 0xb70000
    9388:	28a46dc6 	stmiacs	r4!, {r1, r2, r6, r7, r8, sl, fp, sp, lr}
    938c:	24d19c4c 	ldrbcs	r9, [r1], #3148	; 0xc4c
    9390:	959c9178 	ldrls	r9, [ip, #376]	; 0x178
    9394:	00ff22f1 	ldrshteq	r2, [pc], #33
    9398:	72298227 	eorvc	r8, r9, #1879048194	; 0x70000002
    939c:	1a95e57c 	bne	fe582994 <end+0xbe482994>
    93a0:	1a8dfc96 	bne	fe388600 <end+0xbe288600>
    93a4:	a08f3b64 	addge	r3, pc, r4, ror #22
    93a8:	d3506aa9 	cmple	r0, #692224	; 0xa9000
    93ac:	c5706281 	ldrbgt	r6, [r0, #-641]!	; 0x281
    93b0:	aa70019d 	bge	1c09a2c <ZAG+0x1bfbc14>
    93b4:	00ff4a1a 	rscseq	r4, pc, sl, lsl sl	; <UNPREDICTABLE>
    93b8:	8977994c 	ldmdbhi	r7!, {r2, r3, r6, r8, fp, ip, pc}^
    93bc:	ae885ba5 	vdivge.f64	d5, d24, d21
    93c0:	c03a35fc 	ldrshtgt	r3, [sl], -ip
    93c4:	b50cab53 	strlt	sl, [ip, #-2899]	; 0xb53
    93c8:	a14e11a9 	smlaltbge	r1, lr, r9, r1
    93cc:	18f0c750 	ldmne	r0!, {r4, r6, r8, r9, sl, lr, pc}^
    93d0:	865060c8 	ldrbhi	r6, [r0], -r8, asr #1
    93d4:	1240be32 	subne	fp, r0, #800	; 0x320
    93d8:	0dbcaf23 	ldceq	15, cr10, [ip, #140]!	; 0x8c
    93dc:	76f4af0c 	ldrbtvc	sl, [r4], ip, lsl #30
    93e0:	5b23a6ab 	blpl	8f2e94 <ZAG+0x8e507c>
    93e4:	13c92a38 	bicne	r2, r9, #56, 20	; 0x38000
    93e8:	2da54d4d 	stccs	13, cr4, [r5, #308]!	; 0x134
    93ec:	161a6b1c 			; <UNDEFINED> instruction: 0x161a6b1c
    93f0:	3c766467 	cfldrdcc	mvd6, [r6], #-412	; 0xfffffe64
    93f4:	bcd176b9 	ldcllt	6, cr7, [r1], {185}	; 0xb9
    93f8:	008c776e 	addeq	r7, ip, lr, ror #14
    93fc:	6a014400 	bvs	5a404 <ZAG+0x4c5ec>
    9400:	73c5f7ad 	bicvc	pc, r5, #45350912	; 0x2b40000
    9404:	64d4696e 	ldrbvs	r6, [r4], #2414	; 0x96e
    9408:	d408ca76 	strle	ip, [r8], #-2678	; 0xa76
    940c:	62a546e4 	adcvs	r4, r5, #228, 12	; 0xe400000
    9410:	84fe1b3f 	ldrbthi	r1, [lr], #2879	; 0xb3f
    9414:	64f56492 	ldrbtvs	r6, [r5], #1170	; 0x492
    9418:	def8ade5 	cdple	13, 15, cr10, cr8, cr5, {7}
    941c:	5dd8e642 	ldclpl	6, cr14, [r8, #264]	; 0x108
    9420:	9f775653 	svcls	0x00775653
    9424:	96c841a9 	strbls	r4, [r8], r9, lsr #3
    9428:	94bf1ef1 	ldrtls	r1, [pc], #3825	; 9430 <jpegdata+0x7080>
    942c:	22eb1393 	rsccs	r1, fp, #1275068418	; 0x4c000002
    9430:	66629664 	strbtvs	r9, [r2], -r4, ror #12
    9434:	3ff590be 	svccc	0x00f590be
    9438:	66f530a8 	ldrbtvs	r3, [r5], r8, lsr #1
    943c:	61c4a79e 			; <UNDEFINED> instruction: 0x61c4a79e
    9440:	4e7b0e75 	mrcmi	14, 3, r0, cr11, cr5, {3}
    9444:	616cf969 	msrvs	SPSR_fs, r9, ror #18
    9448:	b8d3dfa9 	ldmlt	r3, {r0, r3, r5, r7, r8, r9, sl, fp, ip, lr, pc}^
    944c:	d6109013 			; <UNDEFINED> instruction: 0xd6109013
    9450:	c8bcac79 	ldmgt	ip!, {r0, r3, r4, r5, r6, sl, fp, sp, pc}
    9454:	99491442 	stmdbls	r9, {r1, r6, sl, ip}^
    9458:	466a21d7 			; <UNDEFINED> instruction: 0x466a21d7
    945c:	d362200f 	cmnle	r2, #15
    9460:	904d5729 	subls	r5, sp, r9, lsr #14
    9464:	eff6faad 	svc	0x00f6faad
    9468:	ec87fd8d 	stc	13, cr15, [r7], {141}	; 0x8d
    946c:	44e91a39 	strbtmi	r1, [r9], #2617	; 0xa39
    9470:	4b05a7d4 	blmi	1733c8 <ZAG+0x1655b0>
    9474:	4a19102a 	bmi	64d524 <ZAG+0x63f70c>
    9478:	8d7a439c 	ldclhi	3, cr4, [sl, #-624]!	; 0xfffffd90
    947c:	7db4af81 	ldcvc	15, cr10, [r4, #516]!	; 0x204
    9480:	ca2be4ba 	bgt	b02770 <ZAG+0xaf4958>
    9484:	f7f2a915 			; <UNDEFINED> instruction: 0xf7f2a915
    9488:	57836c15 	usada8pl	r3, r5, ip, r6
    948c:	fbd0aa44 	blx	ff433da6 <end+0xbf333da6>
    9490:	0c63b17c 	stfeqp	f3, [r3], #-496	; 0xfffffe10
    9494:	10b26958 	adcsne	r6, r2, r8, asr r9
    9498:	fdccfb49 	stc2l	11, cr15, [ip, #292]	; 0x124
    949c:	404bf5fa 	strdmi	pc, [fp], #-90	; 0xffffffa6
    94a0:	46341d67 	ldrtmi	r1, [r4], -r7, ror #26
    94a4:	5c24d672 	stcpl	6, cr13, [r4], #-456	; 0xfffffe38
    94a8:	5fcc62a7 	svcpl	0x00cc62a7
    94ac:	c990c3a8 	ldmibgt	r0, {r3, r5, r7, r8, r9, lr, pc}
    94b0:	6b686ac5 	blvs	1a23fcc <ZAG+0x1a161b4>
    94b4:	9546f14a 	strbls	pc, [r6, #-330]	; 0x14a	; <UNPREDICTABLE>
    94b8:	23b3ead5 			; <UNDEFINED> instruction: 0x23b3ead5
    94bc:	2e2fb3c3 	cdpcs	3, 2, cr11, cr15, cr3, {6}
    94c0:	c612d10a 	ldrgt	sp, [r2], -sl, lsl #2
    94c4:	bb4bc140 	bllt	12f99cc <ZAG+0x12ebbb4>
    94c8:	c776817a 			; <UNDEFINED> instruction: 0xc776817a
    94cc:	ab2c6c36 	blge	b245ac <ZAG+0xb16794>
    94d0:	38d3dcdb 	ldmcc	r3, {r0, r1, r3, r4, r6, r7, sl, fp, ip, lr, pc}^
    94d4:	a62ec95b 			; <UNDEFINED> instruction: 0xa62ec95b
    94d8:	5905d846 	stmdbpl	r5, {r1, r2, r6, fp, ip, lr, pc}
    94dc:	8b454650 	blhi	115ae24 <ZAG+0x114d00c>
    94e0:	3332751a 	teqcc	r2, #109051904	; 0x6800000
    94e4:	864d9938 			; <UNDEFINED> instruction: 0x864d9938
    94e8:	178b731e 	usada8ne	fp, lr, r3, r7
    94ec:	50eb1477 	rscpl	r1, fp, r7, ror r4
    94f0:	31b03a6f 	rorscc	r3, pc, #20
    94f4:	96043a3a 			; <UNDEFINED> instruction: 0x96043a3a
    94f8:	0100e0de 	ldrdeq	lr, [r0, -lr]
    94fc:	28fafe11 	ldmcs	sl!, {r0, r4, r9, sl, fp, ip, sp, lr, pc}^
    9500:	4ad2734d 	bmi	ff4a623c <end+0xbf3a623c>
    9504:	3ab9b1f6 	bcc	fee75ce4 <end+0xbed75ce4>
    9508:	efb73337 	svc	0x00b73337
    950c:	e4ed97cf 	strbt	r9, [sp], #1999	; 0x7cf
    9510:	6432bf31 	ldrtvs	fp, [r2], #-3889	; 0xf31
    9514:	b5645c8e 	strblt	r5, [r4, #-3214]!	; 0xc8e
    9518:	26321519 			; <UNDEFINED> instruction: 0x26321519
    951c:	af901fda 	svcge	0x00901fda
    9520:	2d2bf602 	stccs	6, cr15, [fp, #-8]!
    9524:	184d93d0 	stmdane	sp, {r4, r6, r7, r8, r9, ip, pc}^
    9528:	db6cafb0 	blle	1b353f0 <ZAG+0x1b275d8>
    952c:	69225185 	stmdbvs	r2!, {r0, r2, r7, r8, ip, lr}
    9530:	b9e3eeed 	stmiblt	r3!, {r0, r2, r3, r5, r6, r7, r9, sl, fp, sp, lr, pc}^
    9534:	dd2aa6be 	stcle	6, cr10, [sl, #-760]!	; 0xfffffd08
    9538:	f209c050 	vqadd.s8	q6, <illegal reg q4.5>, q0
    953c:	4c2a7050 	stcmi	0, cr7, [sl], #-320	; 0xfffffec0
    9540:	9344b263 	movtls	fp, #16995	; 0x4263
    9544:	54251493 	strtpl	r1, [r5], #-1171	; 0x493
    9548:	c9c0f085 	stmibgt	r0, {r0, r2, r7, ip, sp, lr, pc}^
    954c:	35f8ef21 	ldrbcc	lr, [r8, #3873]!	; 0xf21
    9550:	626f815b 	rsbvs	r8, pc, #-1073741802	; 0xc0000016
    9554:	24d6b1f9 	ldrbcs	fp, [r6], #505	; 0x1f9
    9558:	680be68c 	stmdavs	fp, {r2, r3, r7, r9, sl, sp, lr, pc}
    955c:	14109940 	ldrne	r9, [r0], #-2368	; 0x940
    9560:	14626609 	strbtne	r6, [r2], #-1545	; 0x609
    9564:	a60ec402 	strge	ip, [lr], -r2, lsl #8
    9568:	ccbe704f 	ldcgt	0, cr7, [lr], #316	; 0x13c
    956c:	fda2ee12 	stc2	14, cr14, [r2, #72]!	; 0x48
    9570:	27671953 			; <UNDEFINED> instruction: 0x27671953
    9574:	76449d4d 	strbvc	r9, [r4], -sp, asr #26
    9578:	5e5db366 	cdppl	3, 5, cr11, cr13, cr6, {3}
    957c:	90406524 	subls	r6, r0, r4, lsr #10
    9580:	54a030d6 	strtpl	r3, [r0], #214	; 0xd6
    9584:	1f4722ad 	svcne	0x004722ad
    9588:	16de8995 			; <UNDEFINED> instruction: 0x16de8995
    958c:	21815656 	orrcs	r5, r1, r6, asr r6
    9590:	db4aa484 	blle	12b27a8 <ZAG+0x12a4990>
    9594:	8f97ba4b 	svchi	0x0097ba4b
    9598:	18d18c5f 	ldmne	r1, {r0, r1, r2, r3, r4, r6, sl, fp, pc}^
    959c:	c9c6d8cf 	stmibgt	r6, {r0, r1, r2, r3, r6, r7, fp, ip, lr, pc}^
    95a0:	4946a725 	stmdbmi	r6, {r0, r2, r5, r8, r9, sl, sp, pc}^
    95a4:	fbec9d24 	blx	ffb30a3e <end+0xbfa30a3e>
    95a8:	d32d8925 	teqle	sp, #606208	; 0x94000
    95ac:	76d8117f 			; <UNDEFINED> instruction: 0x76d8117f
    95b0:	a906d29c 	stmdbge	r6, {r2, r3, r4, r7, r9, ip, lr, pc}
    95b4:	f8a905c9 			; <UNDEFINED> instruction: 0xf8a905c9
    95b8:	405020c3 	subsmi	r2, r0, r3, asr #1
    95bc:	62984357 	addsvs	r4, r8, #1543503873	; 0x5c000001
    95c0:	50c90391 	smullpl	r0, r9, r1, r3
    95c4:	804c03ab 	subhi	r0, ip, fp, lsr #7
    95c8:	bd9c8e54 	ldclt	14, cr8, [ip, #336]	; 0x150
    95cc:	08a5e81f 	stmiaeq	r5!, {r0, r1, r2, r3, r4, fp, sp, lr, pc}
    95d0:	28ce73ba 	stmiacs	lr, {r1, r3, r4, r5, r7, r8, r9, ip, sp, lr}^
    95d4:	5949d2e5 	stmdbpl	r9, {r0, r2, r5, r6, r7, r9, ip, lr, pc}^
    95d8:	d932adb6 	ldmdble	r2!, {r1, r2, r4, r5, r7, r8, sl, fp, sp, pc}
    95dc:	85ea4613 	strbhi	r4, [sl, #1555]!	; 0x613
    95e0:	76e8c8b9 			; <UNDEFINED> instruction: 0x76e8c8b9
    95e4:	fb517200 	blx	1465dee <ZAG+0x1457fd6>
    95e8:	24f6e589 	ldrbtcs	lr, [r6], #1417	; 0x589
    95ec:	cf68b101 	svcgt	0x0068b101
    95f0:	3754cf37 	smmlarcc	r4, r7, pc, ip	; <UNPREDICTABLE>
    95f4:	27e6c7f0 			; <UNDEFINED> instruction: 0x27e6c7f0
    95f8:	7d2288d8 	stcvc	8, cr8, [r2, #-864]!	; 0xfffffca0
    95fc:	3f667600 	svccc	0x00667600
    9600:	3a835a03 	bcc	fe0dfe14 <end+0xbdfdfe14>
    9604:	ebbb3b17 	bl	feed8268 <end+0xbedd8268>
    9608:	2ead167e 	mcrcs	6, 5, r1, cr13, cr14, {3}
    960c:	7a458e37 	bvc	116cef0 <ZAG+0x115f0d8>
    9610:	5280b12a 	addpl	fp, r0, #-2147483638	; 0x8000000a
    9614:	0640ccb8 			; <UNDEFINED> instruction: 0x0640ccb8
    9618:	96642c49 	strbtls	r2, [r4], -r9, asr #24
    961c:	2267726f 	rsbcs	r7, r7, #-268435450	; 0xf0000006
    9620:	4c0fc3c4 	stcmi	3, cr12, [pc], {196}	; 0xc4
    9624:	189dfc69 	ldmne	sp, {r0, r3, r5, r6, sl, fp, ip, sp, lr, pc}
    9628:	986ad870 	stmdals	sl!, {r4, r5, r6, fp, ip, lr, pc}^
    962c:	353d19aa 	ldrcc	r1, [sp, #-2474]!	; 0x9aa
    9630:	3a93a136 	bcc	fe4f1b10 <end+0xbe3f1b10>
    9634:	315b08b6 	ldrhcc	r0, [fp, #-134]	; 0xffffff7a
    9638:	703412f6 	ldrshtvc	r1, [r4], -r6
    963c:	94e32692 	strbtls	r2, [r3], #1682	; 0x692
    9640:	f05b8872 			; <UNDEFINED> instruction: 0xf05b8872
    9644:	4e720558 	mrcmi	5, 3, r0, cr2, cr8, {2}
    9648:	53438fdf 	movtpl	r8, #16351	; 0x3fdf
    964c:	2eae4494 	mcrcs	4, 5, r4, cr14, cr4, {4}
    9650:	14b5cac8 	ldrtne	ip, [r5], #2760	; 0xac8
    9654:	0c530603 	mrrceq	6, 0, r0, r3, cr3
    9658:	dc37c867 	ldcle	8, cr12, [r7], #-412	; 0xfffffe64
    965c:	8fc11e85 	svchi	0x00c11e85
    9660:	d0933d46 	addsle	r3, r3, r6, asr #26
    9664:	15aaeb7b 	strne	lr, [sl, #2939]!	; 0xb7b
    9668:	4ad5ad1a 	bmi	ff574ad8 <end+0xbf474ad8>
    966c:	11c595ac 	bicne	r9, r5, ip, lsr #11
    9670:	22a7364a 	adccs	r3, r7, #77594624	; 0x4a00000
    9674:	eca712c4 	sfm	f1, 4, [r7], #784	; 0x310
    9678:	0cde97c9 	ldcleq	7, cr9, [lr], {201}	; 0xc9
    967c:	eafb0088 	b	ffec98a4 <end+0xbfdc98a4>
    9680:	51d7e981 	bicspl	lr, r7, r1, lsl #19
    9684:	9ad74017 	bls	ff5d96e8 <end+0xbf4d96e8>
    9688:	21b9a664 			; <UNDEFINED> instruction: 0x21b9a664
    968c:	f8098693 			; <UNDEFINED> instruction: 0xf8098693
    9690:	80165a77 	andshi	r5, r6, r7, ror sl
    9694:	822bc46c 	eorhi	ip, fp, #108, 8	; 0x6c000000
    9698:	c1d98684 	bicsgt	r8, r9, r4, lsl #13
    969c:	c15ff92b 	cmpgt	pc, fp, lsr #18
    96a0:	7b0381d9 	blvc	e9e0c <ZAG+0xdbff4>
    96a4:	f694bbb6 			; <UNDEFINED> instruction: 0xf694bbb6
    96a8:	a4465663 	strbge	r5, [r6], #-1635	; 0x663
    96ac:	84508db5 	ldrbhi	r8, [r0], #-3509	; 0xdb5
    96b0:	4c00ffe2 	stcmi	15, cr15, [r0], {226}	; 0xe2
    96b4:	b242a265 	sublt	sl, r2, #1342177286	; 0x50000006
    96b8:	a2034392 	andge	r4, r3, #1207959554	; 0x48000002
    96bc:	4839d163 	ldmdami	r9!, {r0, r1, r5, r6, r8, ip, lr, pc}
    96c0:	c3334759 	teqgt	r3, #23330816	; 0x1640000
    96c4:	9782599e 			; <UNDEFINED> instruction: 0x9782599e
    96c8:	3d2ce3c3 	stccc	3, cr14, [ip, #-780]!	; 0xfffffcf4
    96cc:	20a90f02 	adccs	r0, r9, r2, lsl #30
    96d0:	8f46ea83 	svchi	0x0046ea83
    96d4:	8248eca3 	subhi	lr, r8, #41728	; 0xa300
    96d8:	9a4b3a4f 	bls	12d801c <ZAG+0x12ca204>
    96dc:	d48e7e6c 	strle	r7, [lr], #3692	; 0xe6c
    96e0:	96fc96ba 			; <UNDEFINED> instruction: 0x96fc96ba
    96e4:	24979f6d 	ldrcs	r9, [r7], #3949	; 0xf6d
    96e8:	404663f6 	strdmi	r6, [r6], #-54	; 0xffffffca
    96ec:	79072aa0 	stmdbvc	r7, {r5, r7, r9, fp, sp}
    96f0:	07554915 	smmlaeq	r5, r5, r9, r4
    96f4:	e4f349ee 	ldrbt	r4, [r3], #2542	; 0x9ee
    96f8:	d8780020 	ldmdale	r8!, {r5}^
    96fc:	6e4fbfd3 	mcrvs	15, 2, fp, cr15, cr3, {6}
    9700:	fb2a8eab 	blx	aad1b6 <ZAG+0xa9f39e>
    9704:	b31ea896 	tstlt	lr, #9830400	; 0x960000
    9708:	2c4a52bd 	sfmcs	f5, 2, [sl], {189}	; 0xbd
    970c:	2a093019 	bcs	255778 <ZAG+0x247960>
    9710:	912323be 			; <UNDEFINED> instruction: 0x912323be
    9714:	a8c20e90 	stmiage	r2, {r4, r7, r9, sl, fp}^
    9718:	9d022051 	stcls	0, cr2, [r2, #-324]	; 0xfffffebc
    971c:	2e49c9dc 	mcrcs	9, 2, ip, cr9, cr12, {6}
    9720:	d34adb68 	movtle	sp, #43880	; 0xab68
    9724:	b4a94f45 	strtlt	r4, [r9], #3909	; 0xf45
    9728:	6df2d800 	ldclvs	8, cr13, [r2]
    972c:	eab347e8 	b	fecdb6d4 <end+0xbebdb6d4>
    9730:	d4372649 	ldrtle	r2, [r7], #-1609	; 0x649
    9734:	851cd3ef 	ldrhi	sp, [ip, #-1007]	; 0x3ef
    9738:	745cb5c9 	ldrbvc	fp, [ip], #-1481	; 0x5c9
    973c:	0c0ddc5e 	stceq	12, cr13, [sp], {94}	; 0x5e
    9740:	4eaac830 	mcrmi	8, 5, ip, cr10, cr0, {1}
    9744:	c0869dc0 	addgt	r9, r6, r0, asr #27
    9748:	1ffb76c6 	svcne	0x00fb76c6
    974c:	8fe3cee7 	svchi	0x00e3cee7
    9750:	6f7afc23 	svcvs	0x007afc23
    9754:	8663fbe6 	strbthi	pc, [r3], -r6, ror #23	; <UNPREDICTABLE>
    9758:	b79d8716 			; <UNDEFINED> instruction: 0xb79d8716
    975c:	15577ab6 	ldrbne	r7, [r7, #-2742]	; 0xab6
    9760:	644b724e 	strbvs	r7, [fp], #-590	; 0x24e
    9764:	cd96a4a6 	cfldrsgt	mvf10, [r6, #664]	; 0x298
    9768:	d9a9b258 	stmible	r9!, {r3, r4, r6, r9, ip, sp, pc}
    976c:	81064404 	tsthi	r6, r4, lsl #8
    9770:	6e5fa8eb 	cdpvs	8, 5, cr10, cr15, cr11, {7}
    9774:	d7364777 			; <UNDEFINED> instruction: 0xd7364777
    9778:	bab881e3 	blt	fee29f0c <end+0xbed29f0c>
    977c:	81f4b64a 	mvnshi	fp, sl, asr #12
    9780:	585c0040 	ldmdapl	ip, {r6}^
    9784:	32b88053 	adcscc	r8, r8, #83	; 0x53
    9788:	047ab3aa 	ldrbteq	fp, [sl], #-938	; 0x3aa
    978c:	7d927612 	ldcvc	6, cr7, [r2, #72]	; 0x48
    9790:	e1cec1f4 	strd	ip, [lr, #20]
    9794:	6a6b0b52 	bvs	1acc4e4 <ZAG+0x1abe6cc>
    9798:	34aad5a4 	strtcc	sp, [sl], #1444	; 0x5a4
    979c:	6e8c9971 	mcrvs	9, 4, r9, cr12, cr1, {3}
    97a0:	db263cc1 	blle	998aac <ZAG+0x98ac94>
    97a4:	c3c6dfb8 	bicgt	sp, r6, #184, 30	; 0x2e0
    97a8:	0fe0bf71 	svceq	0x00e0bf71
    97ac:	437dfe1b 	cmnmi	sp, #432	; 0x1b0
    97b0:	b8d81ef9 	ldmlt	r8, {r0, r3, r4, r5, r6, r7, r9, sl, fp, ip}^
    97b4:	7cb770ad 	ldcvc	0, cr7, [r7], #692	; 0x2b4
    97b8:	68448052 	stmdavs	r4, {r1, r4, r6, pc}^
    97bc:	b1f6e60f 	mvnslt	lr, pc, lsl #12
    97c0:	43a325a2 			; <UNDEFINED> instruction: 0x43a325a2
    97c4:	3db95343 	ldccc	3, cr5, [r9, #268]!	; 0x10c
    97c8:	8ebb2c5f 	mrchi	12, 5, r2, cr11, cr15, {2}
    97cc:	b50685da 	strlt	r8, [r6, #-1498]	; 0x5da
    97d0:	4190dce4 	orrsmi	sp, r0, r4, ror #25
    97d4:	fff24f32 			; <UNDEFINED> instruction: 0xfff24f32
    97d8:	063b3100 	ldrteq	r3, [fp], -r0, lsl #2
    97dc:	13777616 	cmnne	r7, #23068672	; 0x1600000
    97e0:	1f53d71a 	svcne	0x0053d71a
    97e4:	3a747a56 	bcc	1d28144 <ZAG+0x1d1a32c>
    97e8:	eb2aaf57 	bl	ab554c <ZAG+0xaa7734>
    97ec:	b56123bc 	strblt	r2, [r1, #-956]!	; 0x3bc
    97f0:	9e37a16e 	rndlssz	f2, #0.5
    97f4:	b9d9fbad 	ldmiblt	r9, {r0, r2, r3, r5, r7, r8, r9, fp, ip, sp, lr, pc}^
    97f8:	e6b037e2 	ldrt	r3, [r0], r2, ror #15
    97fc:	6eb113d9 	mrcvs	3, 5, r1, cr1, cr9, {6}
    9800:	11eb3dd4 	ldrdne	r3, [fp, #212]!	; 0xd4
    9804:	15bc2b88 	ldrne	r2, [ip, #2952]!	; 0xb88
    9808:	02bc32c3 	adcseq	r3, ip, #805306380	; 0x3000000c
    980c:	89a6a552 	stmibhi	r6!, {r1, r4, r6, r8, sl, sp, pc}
    9810:	e25b43c2 	subs	r4, fp, #134217731	; 0x8000003
    9814:	74af763b 	strtvc	r7, [pc], #1595	; 981c <jpegdata+0x746c>
    9818:	731b2fd9 	tstvc	fp, #868	; 0x364
    981c:	a8a694f2 	stmiage	r6!, {r1, r4, r5, r6, r7, sl, ip, pc}
    9820:	192605d5 	stmdbne	r6!, {r0, r2, r4, r6, r7, r8, sl}
    9824:	c4d1d33a 	ldrbgt	sp, [r1], #826	; 0x33a
    9828:	c9963854 	ldmibgt	r6, {r2, r4, r6, fp, ip, sp}
    982c:	9b5368b2 	blls	14e3afc <ZAG+0x14d5ce4>
    9830:	09189005 	ldmdbeq	r8, {r0, r2, ip, pc}
    9834:	df2dc7c5 	svcle	0x002dc7c5
    9838:	7300ffef 	movwvc	pc, #4079	; 0xfef	; <UNPREDICTABLE>
    983c:	216a6a65 	cmncs	sl, r5, ror #20
    9840:	8342c02c 	movthi	ip, #8236	; 0x202c
    9844:	021b4a86 	andseq	r4, fp, #548864	; 0x86000
    9848:	342aabcc 	strtcc	sl, [sl], #-3020	; 0xbcc
    984c:	8f245006 	svchi	0x00245006
    9850:	d602ebb9 			; <UNDEFINED> instruction: 0xd602ebb9
    9854:	6ceacaab 	vstmiavs	sl!, {s25-s195}
    9858:	a6b45cda 	ssatge	r5, #21, sl, asr #25
    985c:	2249a069 	subcs	sl, r9, #105	; 0x69
    9860:	b5dd823d 	ldrblt	r8, [sp, #573]	; 0x23d
    9864:	c1beba8c 			; <UNDEFINED> instruction: 0xc1beba8c
    9868:	fa66f114 	blx	19c5cc0 <ZAG+0x19b7ea8>
    986c:	476e5615 			; <UNDEFINED> instruction: 0x476e5615
    9870:	b9112066 	ldmdblt	r1, {r1, r2, r5, r6, sp}
    9874:	fa77bd26 	blx	1df8d14 <ZAG+0x1deaefc>
    9878:	b77dda75 			; <UNDEFINED> instruction: 0xb77dda75
    987c:	a94a13c7 	stmdbge	sl, {r0, r1, r2, r6, r7, r8, r9, ip}^
    9880:	c627944f 	strtgt	r9, [r7], -pc, asr #8
    9884:	5c2c362a 	stcpl	6, cr3, [ip], #-168	; 0xffffff58
    9888:	f25da6a9 	vmax.s16	d26, d29, d25
    988c:	952e0b86 	strls	r0, [lr, #-2950]!	; 0xb86
    9890:	c055a86a 	subsgt	sl, r5, sl, ror #16
    9894:	a709aca7 	strge	sl, [r9, -r7, lsr #25]
    9898:	707acfd6 	ldrsbtvc	ip, [sl], #-246	; 0xffffff0a
    989c:	955abf1d 	ldrbls	fp, [sl, #-3869]	; 0xf1d
    98a0:	ac934b5e 	vldmiage	r3, {d4-<overflow reg d50>}
    98a4:	89e84a3e 	stmibhi	r8!, {r1, r2, r3, r4, r5, r9, fp, lr}^
    98a8:	193f5440 	ldmdbne	pc!, {r6, sl, ip, lr}	; <UNPREDICTABLE>
    98ac:	2857d2a6 	ldmdacs	r7, {r1, r2, r5, r7, r9, ip, lr, pc}^
    98b0:	d5001b25 	strle	r1, [r0, #-2853]	; 0xb25
    98b4:	5686ea55 	pkhtbpl	lr, r6, r5, asr #20
    98b8:	08921428 	ldmeq	r2, {r3, r5, sl, ip}
    98bc:	e6d01c84 	ldrb	r1, [r0], r4, lsl #25
    98c0:	6ffb77ad 	svcvs	0x00fb77ad
    98c4:	c538f46a 	ldrgt	pc, [r8, #-1130]!	; 0x46a
    98c8:	0c1d338a 	ldceq	3, cr3, [sp], {138}	; 0x8a
    98cc:	4b95f1ac 	blmi	fe585f84 <end+0xbe485f84>
    98d0:	c486242d 	strgt	r2, [r6], #1069	; 0x42d
    98d4:	1ec5b2d1 	mcrne	2, 6, fp, cr5, cr1, {6}
    98d8:	e3f1c9ca 	mvns	ip, #3309568	; 0x328000
    98dc:	10304308 	eorsne	r4, r0, r8, lsl #6
    98e0:	c5622727 	strbgt	r2, [r2, #-1831]!	; 0x727
    98e4:	07f725bd 			; <UNDEFINED> instruction: 0x07f725bd
    98e8:	a7b7d369 	ldrge	sp, [r7, r9, ror #6]!
    98ec:	54019f42 	strpl	r9, [r1], #-3906	; 0xf42
    98f0:	fc59fdde 	mrrc2	13, 13, pc, r9, cr14	; <UNPREDICTABLE>
    98f4:	14863043 	strne	r3, [r6], #67	; 0x43
    98f8:	e3b34202 			; <UNDEFINED> instruction: 0xe3b34202
    98fc:	dc27129c 	sfmle	f1, 4, [r7], #-624	; 0xfffffd90
    9900:	18359018 	ldmdane	r5!, {r3, r4, ip, pc}
    9904:	ca1abbe6 	bgt	6b88a4 <ZAG+0x6aaa8c>
    9908:	c2693a9d 	rsbgt	r3, r9, #643072	; 0x9d000
    990c:	aab09b5d 	bge	fec30688 <end+0xbeb30688>
    9910:	3514fee5 	ldrcc	pc, [r4, #-3813]	; 0xee5
    9914:	0802e161 	stmdaeq	r2, {r0, r5, r6, r8, sp, lr, pc}
    9918:	239f6046 	orrscs	r6, pc, #70	; 0x46
    991c:	61992549 	orrsvs	r2, r9, r9, asr #10
    9920:	cae6ca55 	bgt	ff9bc27c <end+0xbf8bc27c>
    9924:	0b5dc9b4 	bleq	177bffc <ZAG+0x176e1e4>
    9928:	2e4d2ad4 	mcrcs	10, 2, r2, cr13, cr4, {6}
    992c:	875bf236 	smmulrhi	fp, r6, r2
    9930:	9e752527 	cdpls	5, 7, cr2, cr5, cr7, {1}
    9934:	e1086ba4 	smlatb	r8, r4, fp, r6
    9938:	ce722720 	cdpgt	7, 7, cr2, cr2, cr0, {1}
    993c:	27a0eedb 	sbfxcs	lr, fp, #29, #1
    9940:	72fbb891 	rscsvc	fp, fp, #9502720	; 0x910000
    9944:	f4b1131b 			; <UNDEFINED> instruction: 0xf4b1131b
    9948:	96e78317 	usatls	r8, #7, r7, lsl #6
    994c:	cbf8eca7 	blgt	ffe44bf0 <end+0xbfd44bf0>
    9950:	2a4aab2a 	bcs	12b4600 <ZAG+0x12a67e8>
    9954:	1c8c951f 	cfstr32ne	mvfx9, [ip], {31}
    9958:	fb92eaa0 	blx	fe4c43e2 <end+0xbe3c43e2>
    995c:	b1007996 			; <UNDEFINED> instruction: 0xb1007996
    9960:	441c572a 	ldrmi	r5, [ip], #-1834	; 0x72a
    9964:	ab530792 	blge	14cb7b4 <ZAG+0x14bd99c>
    9968:	17e5c79e 			; <UNDEFINED> instruction: 0x17e5c79e
    996c:	35f7aab7 	ldrbcc	sl, [r7, #2743]!	; 0xab7
    9970:	8c286c7a 	stchi	12, cr6, [r8], #-488	; 0xfffffe18
    9974:	00203e31 	eoreq	r3, r0, r1, lsr lr
    9978:	640ba8ce 	strvs	sl, [fp], #-2254	; 0x8ce
    997c:	60c92141 	sbcvs	r2, r9, r1, asr #2
    9980:	06374bab 	ldrteq	r4, [r7], -fp, lsr #23
    9984:	8da6a01e 	stchi	0, cr10, [r6, #120]!	; 0x78
    9988:	f7ecd54c 			; <UNDEFINED> instruction: 0xf7ecd54c
    998c:	5c800a19 	vstmiapl	r0, {s0-s24}
    9990:	3f951fa9 	svccc	0x00951fa9
    9994:	bff1c78f 	svclt	0x00f1c78f
    9998:	00ffeffd 	ldrshteq	lr, [pc], #253
    999c:	7deff4d1 	cfstrdvc	mvd15, [pc, #836]!	; 9ce8 <jpegdata+0x7938>
    99a0:	e6e24a6f 	strbt	r4, [r2], pc, ror #20
    99a4:	b512b7a2 	ldrlt	fp, [r2, #-1954]	; 0x7a2
    99a8:	61f3c86a 	mvnsvs	ip, sl, ror #16
    99ac:	8009024f 	andhi	r0, r9, pc, asr #4
    99b0:	425e904b 	subsmi	r9, lr, #75	; 0x4b
    99b4:	c508258f 	strgt	r2, [r8, #-1423]	; 0x58f
    99b8:	552a014c 	strpl	r0, [sl, #-332]!	; 0x14c
    99bc:	ad95ce8c 	ldcge	14, cr12, [r5, #560]	; 0x230
    99c0:	a876851b 	ldmdage	r6!, {r0, r1, r3, r4, r8, sl, pc}^
    99c4:	063dacc8 	ldrteq	sl, [sp], -r8, asr #25
    99c8:	e7e2e50d 	strb	lr, [r2, sp, lsl #10]!
    99cc:	b5875145 	strlt	r5, [r7, #325]	; 0x145
    99d0:	74f2b809 	ldrbtvc	fp, [r2], #2057	; 0x809
    99d4:	3edd4cfe 	mrccc	12, 6, r4, cr13, cr14, {7}
    99d8:	275f3533 	smmlarcs	pc, r3, r5, r3	; <UNPREDICTABLE>
    99dc:	0fbd365a 	svceq	0x00bd365a
    99e0:	2447dccf 	strbcs	sp, [r7], #-3279	; 0xccf
    99e4:	0119f322 	tsteq	r9, r2, lsr #6
    99e8:	10ed3031 	rscne	r3, sp, r1, lsr r0
    99ec:	34827d5b 	strcc	r7, [r2], #3419	; 0xd5b
    99f0:	db6fc76b 	blle	1bfb7a4 <ZAG+0x1bed98c>
    99f4:	88db71c0 	ldmhi	fp, {r6, r7, r8, ip, sp, lr}^
    99f8:	5a1db700 	bpl	777600 <ZAG+0x7697e8>
    99fc:	f1dc9bde 			; <UNDEFINED> instruction: 0xf1dc9bde
    9a00:	e81daeb6 	ldmda	sp, {r1, r2, r4, r5, r7, r9, sl, fp, sp, pc}
    9a04:	a1827110 	orrge	r7, r2, r0, lsl r1
    9a08:	49d18c03 	ldmibmi	r1, {r0, r1, sl, fp, pc}^
    9a0c:	2e7f2082 	cdpcs	0, 7, cr2, cr15, cr2, {4}
    9a10:	0431c523 	ldrteq	ip, [r1], #-1315	; 0x523
    9a14:	038c2512 	orreq	r2, ip, #75497472	; 0x4800000
    9a18:	b851ea55 	ldmdalt	r1, {r0, r2, r4, r6, r9, fp, sp, lr, pc}^
    9a1c:	da9472be 	ble	fe52651c <end+0xbe42651c>
    9a20:	21575112 	cmpcs	r7, r2, lsl r1
    9a24:	9269154d 	rsbls	r1, r9, #322961408	; 0x13400000
    9a28:	0c998229 	lfmeq	f0, 1, [r9], {41}	; 0x29
    9a2c:	a8c45041 	stmiage	r4, {r0, r6, ip, lr}^
    9a30:	b9e0caa8 	stmiblt	r0!, {r3, r5, r7, r9, fp, lr, pc}^
    9a34:	2e855071 	mcrcs	0, 4, r5, cr5, cr1, {3}
    9a38:	f117d1ac 			; <UNDEFINED> instruction: 0xf117d1ac
    9a3c:	50c8dd91 	smullpl	sp, r8, r1, sp
    9a40:	86bcd8d3 	ssathi	sp, #29, r3, asr #17
    9a44:	8bfd3c77 	blhi	fff58c28 <end+0xbfe58c28>
    9a48:	e59e80fa 	ldr	r8, [lr, #250]	; 0xfa
    9a4c:	e23c0fea 	eors	r0, ip, #936	; 0x3a8
    9a50:	f6518c08 			; <UNDEFINED> instruction: 0xf6518c08
    9a54:	f01a9608 			; <UNDEFINED> instruction: 0xf01a9608
    9a58:	7877ce0a 	ldmdavc	r7!, {r1, r3, r9, sl, fp, lr, pc}^
    9a5c:	61b9edb7 			; <UNDEFINED> instruction: 0x61b9edb7
    9a60:	f13e32b8 			; <UNDEFINED> instruction: 0xf13e32b8
    9a64:	88d47ab7 	ldmhi	r4, {r0, r1, r2, r4, r5, r7, r9, fp, ip, sp, lr}^
    9a68:	89a5a6ba 	stmibhi	r5!, {r1, r3, r4, r5, r7, r9, sl, sp, pc}
    9a6c:	98c4a43e 	stmials	r4, {r1, r2, r3, r4, r5, sl, sp, pc}^
    9a70:	117a2011 	cmnne	sl, r1, lsl r0
    9a74:	bace7dbd 	blt	ff3a9170 <end+0xbf2a9170>
    9a78:	d9cea77c 	stmible	lr, {r2, r3, r4, r5, r6, r8, r9, sl, sp, pc}^
    9a7c:	3a857cf1 	bcc	fe168e48 <end+0xbe068e48>
    9a80:	5d7bbd9d 	ldclpl	13, cr11, [fp, #-628]!	; 0xfffffd8c
    9a84:	2055d228 	subscs	sp, r5, r8, lsr #4
    9a88:	aacc5438 	bge	ff31eb70 <end+0xbf21eb70>
    9a8c:	2d18a887 	ldccs	8, cr10, [r8, #-540]	; 0xfffffde4
    9a90:	a0521157 	subsge	r1, r2, r7, asr r1
    9a94:	069c5368 	ldreq	r5, [ip], r8, ror #6
    9a98:	4d473955 	stclmi	9, cr3, [r7, #-340]	; 0xfffffeac
    9a9c:	3bd30fdd 	blcc	ff4cda18 <end+0xbf3cda18>
    9aa0:	5a17a33a 	bpl	5f2790 <ZAG+0x5e4978>
    9aa4:	d4a0d895 	strtle	sp, [r0], #2197	; 0x895
    9aa8:	3d6e2c59 	stclcc	12, cr2, [lr, #-356]!	; 0xfffffe9c
    9aac:	5517f251 	ldrpl	pc, [r7, #-593]	; 0x251
    9ab0:	b24b12a3 	sublt	r1, fp, #805306378	; 0x3000000a
    9ab4:	3c289006 	stccc	0, cr9, [r8], #-24	; 0xffffffe8
    9ab8:	b6c1c903 	strblt	ip, [r1], r3, lsl #18
    9abc:	2d40dd57 	stclcs	13, cr13, [r0, #-348]	; 0xfffffea4
    9ac0:	691890b7 	ldmdbvs	r8, {r0, r1, r2, r4, r5, r7, ip, pc}
    9ac4:	36369772 			; <UNDEFINED> instruction: 0x36369772
    9ac8:	bcef450b 	cfstr64lt	mvdx4, [pc], #44	; 9afc <jpegdata+0x774c>
    9acc:	f6ef03b7 			; <UNDEFINED> instruction: 0xf6ef03b7
    9ad0:	819d20d9 	ldrsbhi	r2, [sp, r9]
    9ad4:	1f333ba9 	svcne	0x00333ba9
    9ad8:	1e38b59e 	mrcne	5, 1, fp, cr8, cr14, {4}
    9adc:	53af9d47 			; <UNDEFINED> instruction: 0x53af9d47
    9ae0:	fe094e90 	mcr2	14, 0, r4, cr9, cr0, {4}
    9ae4:	82c95b11 	sbchi	r5, r9, #17408	; 0x4400
    9ae8:	653144f8 	ldrvs	r4, [r1, #-1272]!	; 0x4f8
    9aec:	03036554 	movweq	r6, #13652	; 0x3554
    9af0:	a91800b2 	ldmdbge	r8, {r1, r4, r5, r7}
    9af4:	3410815c 	ldrcc	r8, [r0], #-348	; 0x15c
    9af8:	8f00ff17 	svchi	0x0000ff17
    9afc:	ad33fab0 	vldmdbge	r3!, {s30-s205}
    9b00:	6a70ca39 	bvs	1c3c3ec <ZAG+0x1c2e5d4>
    9b04:	2be9c52c 	blcs	ffa7afbc <end+0xbf97afbc>
    9b08:	d58839c9 	strle	r3, [r8, #2505]	; 0x9c9
    9b0c:	5e622bc5 	vnmulpl.f64	d18, d18, d5
    9b10:	eda30136 	stfs	f0, [r3, #216]!	; 0xd8
    9b14:	f284b1cc 	vmla.f<illegal width 8>	d11, d20, d0[3]
    9b18:	c30237a5 	movwgt	r3, #10149	; 0x27a5
    9b1c:	a9fb6215 	ldmibge	fp!, {r0, r2, r4, r9, sp, lr}^
    9b20:	4eeb2964 	cdpmi	9, 14, cr2, cr11, cr4, {3}
    9b24:	6d6f159f 	cfstr64vs	mvdx1, [pc, #-636]!	; 98b0 <jpegdata+0x7500>
    9b28:	23c29d56 	biccs	r9, r2, #5504	; 0x1580
    9b2c:	2092991a 	addscs	r9, r2, sl, lsl r9
    9b30:	8dcc1918 	stclhi	9, cr1, [ip, #96]	; 0x60
    9b34:	3f5605e8 	svccc	0x005605e8
    9b38:	04082471 	streq	r2, [r8], #-1137	; 0x471
    9b3c:	cc91a690 	ldcgt	6, cr10, [r1], {144}	; 0x90
    9b40:	cd2ff7f7 	stcgt	7, cr15, [pc, #-988]!	; 976c <jpegdata+0x73bc>
    9b44:	353cd7f1 	ldrcc	sp, [ip, #-2033]!	; 0x7f1
    9b48:	c8665aed 	stmdagt	r6!, {r0, r2, r3, r5, r6, r7, r9, fp, ip, lr}^
    9b4c:	51934450 	orrspl	r4, r3, r0, asr r4
    9b50:	2a7a460d 	bcs	1e9b38c <ZAG+0x1e8d574>
    9b54:	12045498 	andne	r5, r4, #152, 8	; 0x98000000
    9b58:	286bf5ee 	stmdacs	fp!, {r1, r2, r3, r5, r6, r7, r8, sl, ip, sp, lr, pc}^
    9b5c:	5ab94a25 	bpl	fee5c3f8 <end+0xbed5c3f8>
    9b60:	2a4b1d75 	bcs	12d113c <ZAG+0x12c3324>
    9b64:	3885aaa9 	stmcc	r5, {r0, r3, r5, r7, r9, fp, sp, pc}
    9b68:	9a1af97a 	bls	6c8158 <ZAG+0x6ba340>
    9b6c:	a947e386 	stmdbge	r7, {r1, r2, r7, r8, r9, sp, lr, pc}^
    9b70:	cad5c226 	bgt	ff57a410 <end+0xbf47a410>
    9b74:	c1fb153c 	mvnsgt	r1, ip, lsr r5
    9b78:	6d4b48f6 	stclvs	8, cr4, [fp, #-984]	; 0xfffffc28
    9b7c:	953fee1e 	ldrls	lr, [pc, #-3614]!	; 8d66 <jpegdata+0x69b6>
    9b80:	3ff287fd 	svccc	0x00f287fd
    9b84:	e9f3e391 	ldmib	r3!, {r0, r4, r7, r8, r9, sp, lr, pc}^
    9b88:	17bbb92b 	ldrne	fp, [fp, fp, lsr #18]!
    9b8c:	8e5bba8b 	vnmlshi.f32	s23, s23, s22
    9b90:	7d96a941 	ldcvc	9, cr10, [r6, #260]	; 0x104
    9b94:	d4dc28b2 	ldrble	r2, [ip], #2226	; 0x8b2
    9b98:	c7747462 	ldrbgt	r7, [r4, -r2, ror #8]!
    9b9c:	80d8c8c9 	sbcshi	ip, r8, r9, asr #17
    9ba0:	7a02fa24 	bvc	c8438 <ZAG+0xba620>
    9ba4:	aa5fda2d 	bge	1800460 <ZAG+0x17f2648>
    9ba8:	8bd3c6d7 	blhi	ff4fb70c <end+0xbf3fb70c>
    9bac:	3aad4de0 	bcc	feb5d334 <end+0xbea5d334>
    9bb0:	516101bf 	strhpl	r0, [r1, #-31]!	; 0xffffffe1
    9bb4:	803f00aa 	eorshi	r0, pc, sl, lsr #1
    9bb8:	06a33c80 	strteq	r3, [r3], r0, lsl #25
    9bbc:	6a4a5645 	bvs	129f4d8 <ZAG+0x12916c0>
    9bc0:	38b992f3 	ldmcc	r9!, {r0, r1, r4, r5, r6, r7, r9, ip, pc}
    9bc4:	542c96a9 	strtpl	r9, [ip], #-1705	; 0x6a9
    9bc8:	e9ea636a 	stmib	sl!, {r1, r3, r5, r6, r8, r9, sp, lr}^
    9bcc:	4afa3c4d 	bmi	ffe98d08 <end+0xbfd98d08>
    9bd0:	eb9436e6 	bl	fe517770 <end+0xbe417770>
    9bd4:	d648a8a9 	strble	sl, [r8], -r9, lsr #17
    9bd8:	529658ef 	addspl	r5, r6, #15663104	; 0xef0000
    9bdc:	4ec1698f 	cdpmi	9, 12, cr6, cr1, cr15, {4}
    9be0:	fc0e5d45 	stc2	13, cr5, [lr], {69}	; 0x45
    9be4:	10182548 	andsne	r2, r8, r8, asr #10
    9be8:	62035701 	andvs	r5, r3, #262144	; 0x40000
    9bec:	c31d7a3c 	tstgt	sp, #60, 20	; 0x3c000
    9bf0:	3a7b5d76 	bcc	1ee11d0 <ZAG+0x1ed33b8>
    9bf4:	27b9ed95 			; <UNDEFINED> instruction: 0x27b9ed95
    9bf8:	6355ad06 	cmpvs	r5, #384	; 0x180
    9bfc:	9462a948 	strbtls	sl, [r2], #-2376	; 0x948
    9c00:	f8da98c2 			; <UNDEFINED> instruction: 0xf8da98c2
    9c04:	c1d47c12 	bicsgt	r7, r4, r2, lsl ip
    9c08:	6b5b1cc8 	blvs	16d0f30 <ZAG+0x16c3118>
    9c0c:	1fdd23f7 	svcne	0x00dd23f7
    9c10:	33b7fcab 			; <UNDEFINED> instruction: 0x33b7fcab
    9c14:	10efa542 	rscne	sl, pc, r2, asr #10
    9c18:	5109b6cc 	smlabtpl	r9, ip, r6, fp
    9c1c:	e9a6d429 	stmib	r6!, {r0, r3, r5, sl, ip, lr, pc}
    9c20:	0c54c84f 	mrrceq	8, 4, ip, r4, cr15
    9c24:	5c45a2e8 	sfmpl	f2, 3, [r5], {232}	; 0xe8
    9c28:	e4a95260 	strt	r5, [r9], #608	; 0x260
    9c2c:	ac626508 	cfstr64ge	mvdx6, [r2], #-32	; 0xffffffe0
    9c30:	ad0e8924 	stcge	9, cr8, [lr, #-144]	; 0xffffff70
    9c34:	762cd50d 	strtvc	sp, [ip], -sp, lsl #10
    9c38:	4b8fa3ab 	blmi	fe3f2aec <end+0xbe2f2aec>
    9c3c:	371b06cf 	ldrcc	r0, [fp, -pc, asr #13]
    9c40:	1943bb69 	stmdbne	r3, {r0, r3, r5, r6, r8, r9, fp, ip, sp, pc}^
    9c44:	ca93e33c 	bgt	fe50293c <end+0xbe40293c>
    9c48:	8864a411 	stmdahi	r4!, {r0, r4, sl, sp, pc}^
    9c4c:	2cbbbb9d 	fldmiaxcs	fp!, {d11-d88}	;@ Deprecated
    9c50:	7ec41372 	mcrvc	3, 6, r1, cr4, cr2, {3}
    9c54:	d9ed8f11 	stmible	sp!, {r0, r4, r8, r9, sl, fp, pc}^
    9c58:	4fdc4a88 	svcmi	0x00dc4a88
    9c5c:	6b416721 	blvs	10638e8 <ZAG+0x1055ad0>
    9c60:	9089d35d 	addls	sp, r9, sp, asr r3
    9c64:	c510684c 	ldrgt	r6, [r0, #-2124]	; 0x84c
    9c68:	8c32ee77 	ldchi	14, cr14, [r2], #-476	; 0xfffffe24
    9c6c:	44106497 	ldrmi	r6, [r0], #-1175	; 0x497
    9c70:	d5b2be13 	ldrle	fp, [r2, #3603]!	; 0xe13
    9c74:	fc8a78e4 	stc2	8, cr7, [sl], {228}	; 0xe4
    9c78:	2a3e7b8d 	bcs	fa8ab4 <ZAG+0xf9ac9c>
    9c7c:	c44456e4 	strbgt	r5, [r4], #-1764	; 0x6e4
    9c80:	ac6444ab 	cfstrdge	mvd4, [r4], #-684	; 0xfffffd54
    9c84:	490281a1 	stmdbmi	r2, {r0, r5, r7, r8, pc}
    9c88:	30b03811 	adcscc	r3, r0, r1, lsl r8
    9c8c:	2aabc0ca 	bcs	feaf9fbc <end+0xbe9f9fbc>
    9c90:	d52f749d 	strle	r7, [pc, #-1181]!	; 97fb <jpegdata+0x744b>
    9c94:	a853391d 	ldmdage	r3, {r0, r2, r3, r4, r8, fp, ip, sp}^
    9c98:	832d5f7a 	teqhi	sp, #488	; 0x1e8
    9c9c:	dccc759a 	cfstr64le	mvdx7, [ip], {154}	; 0x9a
    9ca0:	52cf314b 	sbcpl	r3, pc, #-1073741806	; 0xc0000012
    9ca4:	b12081c0 	smlawtlt	r0, r0, r1, r8
    9ca8:	391a295e 	ldmdbcc	sl, {r1, r2, r3, r4, r6, r8, fp, sp}
    9cac:	3ba64863 	blcc	fe99be40 <end+0xbe89be40>
    9cb0:	ca2a722b 	bgt	aa6564 <ZAG+0xa9874c>
    9cb4:	20090e92 	mulcs	r9, r2, lr
    9cb8:	2cd2b28f 	lfmcs	f3, 3, [r2], {143}	; 0x8f
    9cbc:	c3f4a581 	mvnsgt	sl, #541065216	; 0x20400000
    9cc0:	e2565fc2 	subs	r5, r6, #776	; 0x308
    9cc4:	940573ee 	strls	r7, [r5], #-1006	; 0x3ee
    9cc8:	3bd0252e 	blcc	ff413188 <end+0xbf313188>
    9ccc:	2513582e 	ldrcs	r5, [r3, #-2094]	; 0x82e
    9cd0:	198cdf80 	stmibne	ip, {r7, r8, r9, sl, fp, ip, lr, pc}
    9cd4:	e42764fe 	strt	r6, [r7], #-1278	; 0x4fe
    9cd8:	d6115450 			; <UNDEFINED> instruction: 0xd6115450
    9cdc:	ad461ed5 	stclge	14, cr1, [r6, #-852]	; 0xfffffcac
    9ce0:	52b8b791 	adcspl	fp, r8, #38010880	; 0x2440000
    9ce4:	84516f7f 	ldrbhi	r6, [r1], #-3967	; 0xf7f
    9ce8:	2b474890 	blcs	11dbf30 <ZAG+0x11ce118>
    9cec:	88402e04 	stmdahi	r0, {r2, r9, sl, fp, sp}^
    9cf0:	b44a5962 	strblt	r5, [sl], #-2402	; 0x962
    9cf4:	330d2410 	movwcc	r2, #54288	; 0xd410
    9cf8:	b35acea4 	cmplt	sl, #164, 28	; 0xa40
    9cfc:	375d79a7 	ldrbcc	r7, [sp, -r7, lsr #19]
    9d00:	1ba4b91d 	blne	fe93817c <end+0xbe83817c>
    9d04:	8a569663 	bhi	15af698 <ZAG+0x15a1880>
    9d08:	c6d18c1b 			; <UNDEFINED> instruction: 0xc6d18c1b
    9d0c:	53c80df2 	bicpl	r0, r8, #15488	; 0x3c80
    9d10:	af2c66da 	svcge	0x002c66da
    9d14:	6e8492b7 	mcrvs	2, 4, r9, cr4, cr7, {5}
    9d18:	c1c310bb 	strhgt	r1, [r3, #11]
    9d1c:	579cd4f5 			; <UNDEFINED> instruction: 0x579cd4f5
    9d20:	d5dc707d 	ldrble	r7, [ip, #125]	; 0x7d
    9d24:	0a2df8ef 	beq	b880e8 <ZAG+0xb7a2d0>
    9d28:	93635ec4 	cmnls	r3, #196, 28	; 0xc40
    9d2c:	4fb0a322 	svcmi	0x00b0a322
    9d30:	30f94910 	rscscc	r4, r9, r0, lsl r9
    9d34:	18898af8 	stmne	r9, {r3, r4, r5, r6, r7, r9, fp, pc}
    9d38:	acc4e0bc 	stclge	0, cr14, [r4], {188}	; 0xbc
    9d3c:	961e404e 	ldrls	r4, [lr], -lr, asr #32
    9d40:	7268e4b1 	rsbvc	lr, r8, #-1325400064	; 0xb1000000
    9d44:	3ee8e196 	mcrcc	1, 7, lr, cr8, cr6, {4}
    9d48:	0d8983cc 	stceq	3, cr8, [r9, #816]	; 0x330
    9d4c:	8055028b 	subshi	r0, r5, fp, lsl #5
    9d50:	c0e25430 	rscgt	r5, r2, r0, lsr r4
    9d54:	7d24d889 	stcvc	8, cr13, [r4, #-548]!	; 0xfffffddc
    9d58:	0187cbfa 	strdeq	ip, [r7, sl]
    9d5c:	499d2e3e 	ldmibmi	sp, {r1, r2, r3, r4, r5, r9, sl, fp, sp}
    9d60:	511b92f2 			; <UNDEFINED> instruction: 0x511b92f2
    9d64:	59468e59 	stmdbpl	r6, {r0, r3, r4, r6, r9, sl, fp, pc}^
    9d68:	1c122f2a 	ldcne	15, cr2, [r2], {42}	; 0x2a
    9d6c:	080231a1 	stmdaeq	r2, {r0, r5, r7, r8, ip, sp}
    9d70:	41450e20 	cmpmi	r5, r0, lsr #28
    9d74:	6f40921b 	svcvs	0x0040921b
    9d78:	abdefa3b 	blge	ff7c866c <end+0xbf6c866c>
    9d7c:	3428dfca 	strtcc	sp, [r8], #-4042	; 0xfca
    9d80:	693235e8 	ldmdbvs	r2!, {r3, r5, r6, r7, r8, sl, ip, sp}
    9d84:	847ad534 	ldrbthi	sp, [sl], #-1332	; 0x534
    9d88:	c1615aa0 	cmngt	r1, r0, lsr #21
    9d8c:	4cb98a72 	vldmiami	r9!, {s16-s129}
    9d90:	ce02c853 	mcrgt	8, 0, ip, cr2, cr3, {2}
    9d94:	d9125ba1 	ldmdble	r2, {r0, r5, r7, r8, r9, fp, ip, lr}
    9d98:	fd4a4702 	stc2l	7, cr4, [sl, #-8]
    9d9c:	5cd6ddb7 	ldclpl	13, cr13, [r6], {183}	; 0xb7
    9da0:	0fefedf5 	svceq	0x00efedf5
    9da4:	36f7db4d 	ldrbtcc	sp, [r7], sp, asr #22
    9da8:	55b255ac 	ldrpl	r5, [r2, #1452]!	; 0x5ac
    9dac:	9451f150 	ldrbls	pc, [r1], #-336	; 0x150	; <UNPREDICTABLE>
    9db0:	b1d90194 			; <UNDEFINED> instruction: 0xb1d90194
    9db4:	64228958 	strtvs	r8, [r2], #-2392	; 0x958
    9db8:	fabaeda4 	blx	feec5450 <end+0xbedc5450>
    9dbc:	ca8a4fc0 	bgt	fe29dcc4 <end+0xbe19dcc4>
    9dc0:	7b18ea6a 	blvc	644770 <ZAG+0x636958>
    9dc4:	776a1d6d 	strbvc	r1, [sl, -sp, ror #26]!
    9dc8:	ce2b3532 	mcrgt	5, 1, r3, cr11, cr2, {1}
    9dcc:	59150021 	ldmdbpl	r5, {r0, r5}
    9dd0:	0ac82125 	beq	ff21226c <end+0xbf11226c>
    9dd4:	13b3e536 			; <UNDEFINED> instruction: 0x13b3e536
    9dd8:	ec7c7ee0 	ldcl	14, cr7, [ip], #-896	; 0xfffffc80
    9ddc:	715f703d 	cmpvc	pc, sp, lsr r0	; <UNPREDICTABLE>
    9de0:	7b00ffaf 	blvc	49ca4 <ZAG+0x3be8c>
    9de4:	a1467571 	hvcge	26449	; 0x6751
    9de8:	e460f275 	strbt	pc, [r0], #-629	; 0x275	; <UNPREDICTABLE>
    9dec:	21889197 			; <UNDEFINED> instruction: 0x21889197
    9df0:	3e6889bc 	mcrcc	9, 3, r8, cr8, cr12, {5}
    9df4:	886a76f0 	stmdahi	sl!, {r4, r5, r6, r7, r9, sl, ip, sp, lr}^
    9df8:	ceec863f 	mcrgt	6, 7, r8, cr12, cr15, {1}
    9dfc:	6dd14dac 	ldclvs	13, cr4, [r1, #688]	; 0x2b0
    9e00:	8df1d8ab 	ldclhi	8, cr13, [r1, #684]!	; 0x2ac
    9e04:	329cde5e 	addscc	sp, ip, #1504	; 0x5e0
    9e08:	20025625 	andcs	r5, r2, r5, lsr #12
    9e0c:	b7fb4f4c 	ldrblt	r4, [fp, ip, asr #30]!
    9e10:	ea3bf7b3 	b	f07ce4 <ZAG+0xef9ecc>
    9e14:	5ad3d3a0 	bpl	ff4fec9c <end+0xbf3fec9c>
    9e18:	90b61cc2 	adcsls	r1, r6, r2, asr #25
    9e1c:	dd193caf 	ldcle	12, cr3, [r9, #-700]	; 0xfffffd44
    9e20:	44ed5a25 	strbtmi	r5, [sp], #2597	; 0xa25
    9e24:	965126a7 	ldrbls	r2, [r1], -r7, lsr #13
    9e28:	2f2f8e56 	svccs	0x002f8e56
    9e2c:	c3282f22 	teqgt	r8, #34, 30	; 0x88
    9e30:	604c24c3 	subvs	r2, ip, r3, asr #9
    9e34:	888c1995 	stmhi	ip, {r0, r2, r4, r7, r8, fp, ip}
    9e38:	da894442 	ble	fe25af48 <end+0xbe15af48>
    9e3c:	5b169921 	blpl	5b02c8 <ZAG+0x5a24b0>
    9e40:	8a8de398 	bhi	fe382ca8 <end+0xbe282ca8>
    9e44:	7a46cd2d 	bvc	11bd300 <ZAG+0x11af4e8>
    9e48:	aa2c4395 	bge	b1aca4 <ZAG+0xb0ce8c>
    9e4c:	880710aa 	stmdahi	r7, {r1, r3, r5, r7, ip}
    9e50:	81c5683b 	bichi	r6, r5, fp, lsr r8
    9e54:	6d8f2461 	cfstrsvs	mvf2, [pc, #388]	; 9fe0 <jpegdata+0x7c30>
    9e58:	681eec94 	ldmdavs	lr, {r2, r4, r7, sl, fp, sp, lr, pc}
    9e5c:	2e6f2de4 	cdpcs	13, 6, cr2, cr15, cr4, {7}
    9e60:	dbea05ae 	blle	ffa8b520 <end+0xbf98b520>
    9e64:	5113272d 	tstpl	r3, sp, lsr #14
    9e68:	23df4e8e 	bicscs	r4, pc, #2272	; 0x8e0
    9e6c:	92982416 	addsls	r2, r8, #369098752	; 0x16000000
    9e70:	15231504 	strne	r1, [r3, #-1284]!	; 0x504
    9e74:	41f6c900 	mvnsmi	ip, r0, lsl #18
    9e78:	8eeb5458 	mcrhi	4, 7, r5, cr11, cr8, {2}
    9e7c:	35abc98d 	strcc	ip, [fp, #2445]!	; 0x98d
    9e80:	0797fa7c 			; <UNDEFINED> instruction: 0x0797fa7c
    9e84:	90d60076 	sbcsls	r0, r6, r6, ror r0
    9e88:	b204bd55 	andlt	fp, r4, #5440	; 0x1540
    9e8c:	2296a8b2 	addscs	sl, r6, #11665408	; 0xb20000
    9e90:	9f3f64c8 	svcls	0x003f64c8
    9e94:	1411f0b2 	ldrne	pc, [r1], #-178	; 0xb2
    9e98:	ee201500 	cfsh64	mvdx1, mvdx0, #0
    9e9c:	8756ee0e 	ldrbhi	lr, [r6, -lr, lsl #28]
    9ea0:	7cdf63fa 	ldclvc	3, cr6, [pc], {250}	; 0xfa
    9ea4:	afd0665f 	svcge	0x00d0665f
    9ea8:	a052b84f 	subsge	fp, r2, pc, asr #16
    9eac:	204d40ab 	subcs	r4, sp, fp, lsr #1
    9eb0:	422d0ba2 	eormi	r0, sp, #165888	; 0x28800
    9eb4:	01255832 	teqeq	r5, r2, lsr r8
    9eb8:	d80c2af6 	stmdale	ip, {r1, r2, r4, r5, r6, r7, r9, fp, sp}
    9ebc:	68c312a9 	stmiavs	r3, {r0, r3, r5, r7, r9, ip}^
    9ec0:	cf71369d 	svcgt	0x0071369d
    9ec4:	a5eeda42 	strbge	sp, [lr, #2626]!	; 0xa42
    9ec8:	aa2231da 	bge	896638 <ZAG+0x888820>
    9ecc:	4905e381 	stmdbmi	r5, {r0, r7, r8, r9, sp, lr, pc}
    9ed0:	eeecec53 	mcr	12, 7, lr, cr12, cr3, {2}
    9ed4:	06800834 			; <UNDEFINED> instruction: 0x06800834
    9ed8:	2b806542 	blcs	fe0233e8 <end+0xbdf233e8>
    9edc:	77e800ff 			; <UNDEFINED> instruction: 0x77e800ff
    9ee0:	15634dca 	strbne	r4, [r3, #-3530]!	; 0xdca
    9ee4:	8785395f 			; <UNDEFINED> instruction: 0x8785395f
    9ee8:	9765c231 			; <UNDEFINED> instruction: 0x9765c231
    9eec:	8ee06e1b 	mcrhi	14, 7, r6, cr0, cr11, {0}
    9ef0:	cac53174 	bgt	ff1564c8 <end+0xbf0564c8>
    9ef4:	00ff2b45 	rscseq	r2, pc, r5, asr #22
    9ef8:	c9a9f2b0 	stmibgt	r9!, {r4, r5, r7, r9, ip, sp, lr, pc}
    9efc:	51e40d0b 	mvnpl	r0, fp, lsl #26
    9f00:	67c5dfb8 			; <UNDEFINED> instruction: 0x67c5dfb8
    9f04:	e349fd9c 	movt	pc, #40348	; 0x9d9c	; <UNPREDICTABLE>
    9f08:	ba84a77b 	blt	fe133cfc <end+0xbe033cfc>
    9f0c:	acb0b2b1 	lfmge	f3, 1, [r0], #708	; 0x2c4
    9f10:	65152bb5 	ldrvs	r2, [r5, #-2997]	; 0xbb5
    9f14:	532b9822 	teqpl	fp, #2228224	; 0x220000
    9f18:	4a1e891a 	bmi	7ac388 <ZAG+0x79e570>
    9f1c:	243ef949 	ldrtcs	pc, [lr], #-2377	; 0x949	; <UNPREDICTABLE>
    9f20:	8028abcc 	eorhi	sl, r8, ip, asr #23
    9f24:	2e344385 	cdpcs	3, 3, cr4, cr4, cr5, {4}
    9f28:	d9cc2f4f 	stmible	ip, {r0, r1, r2, r3, r6, r8, r9, sl, fp, sp}^
    9f2c:	776afdf6 			; <UNDEFINED> instruction: 0x776afdf6
    9f30:	49e3939c 	stmibmi	r3!, {r2, r3, r4, r7, r8, r9, ip, pc}^
    9f34:	00896c40 	addeq	r6, r9, r0, asr #24
    9f38:	6f205862 	svcvs	0x00205862
    9f3c:	099b8128 	ldmibeq	fp, {r3, r5, r8, pc}
    9f40:	48fe3d90 	ldmmi	lr!, {r4, r7, r8, sl, fp, ip, sp}^
    9f44:	993eec93 	ldmdbls	lr!, {r0, r1, r4, r7, sl, fp, sp, lr, pc}
    9f48:	9d684c97 	stclls	12, cr4, [r8, #-604]!	; 0xfffffda4
    9f4c:	aceda937 	stclge	9, cr10, [sp], #220	; 0xdc
    9f50:	15ed3cf9 	strbne	r3, [sp, #3321]!	; 0xcf9
    9f54:	89b55a0d 	ldmibhi	r5!, {r0, r2, r3, r9, fp, ip, lr}
    9f58:	d95cc74a 	ldmdble	ip, {r1, r3, r6, r8, r9, sl, lr, pc}^
    9f5c:	1a79e158 	bne	1e824c4 <ZAG+0x1e746ac>
    9f60:	b0800330 	addlt	r0, r0, r0, lsr r3
    9f64:	70bf61a4 	adcsvc	r6, pc, r4, lsr #3
    9f68:	1fec3f52 	svcne	0x00ec3f52
    9f6c:	af51a55c 	svcge	0x0051a55c
    9f70:	71deab6e 	bicsvc	sl, lr, lr, ror #22
    9f74:	1ca550b4 	stcne	0, cr5, [r5], #720	; 0x2d0
    9f78:	e62ea4a2 	strt	sl, [lr], -r2, lsr #9
    9f7c:	df31759e 	svcle	0x0031759e
    9f80:	f6ed2aa3 			; <UNDEFINED> instruction: 0xf6ed2aa3
    9f84:	11910c30 	orrsne	r0, r1, r0, lsr ip
    9f88:	ef467ed0 	svc	0x00467ed0
    9f8c:	94b9e582 	ldrtls	lr, [r9], #1410	; 0x582
    9f90:	544da966 	strbpl	sl, [sp], #-2406	; 0x966
    9f94:	30dc3486 	sbcscc	r3, ip, r6, lsl #9
    9f98:	100259f2 	strdne	r5, [r2], -r2
    9f9c:	7a8783e5 	bvc	fe1eaf38 <end+0xbe0eaf38>
    9fa0:	a89f108a 	ldmge	pc, {r1, r3, r7, ip}	; <UNPREDICTABLE>
    9fa4:	902085ba 	strhtls	r8, [r0], -sl
    9fa8:	68c6d23a 	stmiavs	r6, {r1, r3, r4, r5, r9, ip, lr, pc}^
    9fac:	504f7efc 	strdpl	r7, [pc], #-236	; <UNPREDICTABLE>
    9fb0:	8802f5e6 	stmdahi	r2, {r1, r2, r5, r6, r7, r8, sl, ip, sp, lr, pc}
    9fb4:	22afda72 	adccs	sp, pc, #466944	; 0x72000
    9fb8:	54b218ab 	ldrtpl	r1, [r2], #2219	; 0x8ab
    9fbc:	44b8988a 	ldrtmi	r9, [r8], #2186	; 0x88a
    9fc0:	8928a66a 	stmdbhi	r8!, {r1, r3, r5, r6, r9, sl, sp, pc}
    9fc4:	629b5d2c 	addsvs	r5, fp, #44, 26	; 0xb00
    9fc8:	c002bb0c 	andgt	fp, r2, ip, lsl #22
    9fcc:	7001919d 	mulvc	r1, sp, r1
    9fd0:	4b792e74 	blmi	1e559a8 <ZAG+0x1e47b90>
    9fd4:	bd6d3caa 	stcllt	12, cr3, [sp, #-680]!	; 0xfffffd58
    9fd8:	d54a5388 	strble	r5, [sl, #-904]	; 0x388
    9fdc:	d500ff49 	strle	pc, [r0, #-3913]	; 0xf49
    9fe0:	5b22e755 	blpl	8c3d3c <ZAG+0x8b5f24>
    9fe4:	90ca4240 	sbcls	r4, sl, r0, asr #4
    9fe8:	c9f17192 	ldmibgt	r1!, {r1, r4, r7, r8, ip, sp, lr}^
    9fec:	76218598 			; <UNDEFINED> instruction: 0x76218598
    9ff0:	f25b828d 	vhsub.s16	d24, d27, d13
    9ff4:	577775ad 	ldrbpl	r7, [r7, -sp, lsr #11]!
    9ff8:	ff8a9122 			; <UNDEFINED> instruction: 0xff8a9122
    9ffc:	2ca13200 	sfmcs	f3, 4, [r1]
    a000:	1027e114 	eorne	lr, r7, r4, lsl r1
    a004:	05f731c4 	ldrbeq	r3, [r7, #452]!	; 0x1c4
    a008:	d27303b2 	rsbsle	r0, r3, #-939524094	; 0xc8000002
    a00c:	adeddd9b 	stclge	13, cr13, [sp, #620]!	; 0x26c
    a010:	15baa66b 	ldrne	sl, [sl, #1643]!	; 0x66b
    a014:	a950c591 	ldmdbge	r0, {r0, r4, r7, r8, sl, lr, pc}^
    a018:	5679b44a 	ldrbtpl	fp, [r9], -sl, asr #8
    a01c:	3f8db3f8 	svccc	0x008db3f8
    a020:	db6c6956 	blle	1b24580 <ZAG+0x1b16768>
    a024:	b058920a 	subslt	r9, r8, sl, lsl #4
    a028:	2bc4c0ef 	blcs	ff13a3ec <end+0xbf03a3ec>
    a02c:	486a95c4 	stmdami	sl!, {r2, r6, r7, r8, sl, ip, pc}^
    a030:	07336e64 	ldreq	r6, [r3, -r4, ror #28]!
    a034:	24566056 	ldrbcs	r6, [r6], #-86	; 0x56
    a038:	b19bc552 	orrslt	ip, fp, r2, asr r5
    a03c:	2eb9ac2d 	cdpcs	12, 11, cr10, cr9, cr13, {1}
    a040:	3b792a75 	blcc	1e54a1c <ZAG+0x1e46c04>
    a044:	64c60553 	strbvs	r0, [r6], #1363	; 0x553
    a048:	46008142 	strmi	r8, [r0], -r2, asr #2
    a04c:	a4c9b99c 	strbge	fp, [r9], #2460	; 0x99c
    a050:	94119e6e 	ldrls	r9, [r1], #-3694	; 0xe6e
    a054:	7b41d7b1 	blvc	107ff20 <ZAG+0x1072108>
    a058:	6ebff5d2 	mrcvs	5, 5, APSR_nzcv, cr15, cr2, {6}
    a05c:	1a6c074d 	bne	1b0bd98 <ZAG+0x1afdf80>
    a060:	6c4bca17 	vmovvs	s14, s15, ip, fp
    a064:	b41c5492 	ldrlt	r5, [ip], #-1170	; 0x492
    a068:	64e60fb0 	strbtvs	r0, [r6], #4016	; 0xfb0
    a06c:	67640482 	strbvs	r0, [r4, -r2, lsl #9]!
    a070:	b37a68bf 	cmnlt	sl, #12517376	; 0xbf0000
    a074:	5fabfaad 	svcpl	0x00abfaad
    a078:	e992fe68 	ldmib	r2, {r3, r5, r6, r9, sl, fp, ip, sp, lr, pc}
    a07c:	6edc959c 	mrcvs	5, 6, r9, cr12, cr12, {4}
    a080:	b923499c 	stmdblt	r3!, {r2, r3, r4, r7, r8, fp, lr}
    a084:	ae8d4390 	mcrge	3, 4, r4, cr13, cr0, {4}
    a088:	24153b06 	ldrcs	r3, [r5], #-2822	; 0xb06
    a08c:	928b3d8b 	addls	r3, fp, #8896	; 0x22c0
    a090:	2c2b224b 	sfmcs	f2, 4, [fp], #-300	; 0xfffffed4
    a094:	ab8bb97d 	blge	fe2f8690 <end+0xbe1f8690>
    a098:	92b11419 	adcsls	r1, r1, #419430400	; 0x19000000
    a09c:	a0bb4335 	adcsge	r4, fp, r5, lsr r3
    a0a0:	bf9d8a37 	svclt	0x009d8a37
    a0a4:	df3797db 	svcle	0x003797db
    a0a8:	16d477e3 	ldrbne	r7, [r4], r3, ror #15
    a0ac:	c50c46a1 	strgt	r4, [ip, #-1697]	; 0x6a1
    a0b0:	3d7ee298 	lfmcc	f6, 3, [lr, #-608]!	; 0xfffffda0
    a0b4:	8170c210 	cmnhi	r0, r0, lsl r2
    a0b8:	8d082c8e 	stchi	12, cr2, [r8, #-568]	; 0xfffffdc8
    a0bc:	a9efc010 	stmibge	pc!, {r4, lr, pc}^	; <UNPREDICTABLE>
    a0c0:	f2cc1fa7 			; <UNDEFINED> instruction: 0xf2cc1fa7
    a0c4:	824a0f16 	subhi	r0, sl, #22, 30	; 0x58
    a0c8:	c2414049 	subgt	r4, r1, #73	; 0x49
    a0cc:	62269007 	eorvs	r9, r6, #7
    a0d0:	d1299f60 	teqle	r9, r0, ror #30
    a0d4:	e875bddf 	ldmda	r5!, {r0, r1, r2, r3, r4, r6, r7, r8, sl, fp, ip, sp, pc}^
    a0d8:	66ea8ff6 			; <UNDEFINED> instruction: 0x66ea8ff6
    a0dc:	4d87c652 	stcmi	6, cr12, [r7, #328]	; 0x148
    a0e0:	d9c49e2f 	stmible	r4, {r0, r1, r2, r3, r5, r9, sl, fp, ip, pc}^
    a0e4:	f309eac2 	vpmax.u8	q7, <illegal reg q12.5>, q1
    a0e8:	b48c596b 	strlt	r5, [ip], #2411	; 0x96b
    a0ec:	87a6388d 	strhi	r3, [r6, sp, lsl #17]!
    a0f0:	5e118985 	cdppl	9, 1, cr8, cr1, cr5, {4}
    a0f4:	56791f46 	ldrbtpl	r1, [r9], -r6, asr #30
    a0f8:	e4082350 	str	r2, [r8], #-848	; 0x350
    a0fc:	0571ed78 	ldrbeq	lr, [r1, #-3448]!	; 0xd78
    a100:	bc3f9283 	lfmlt	f1, 1, [pc], #-524	; 9efc <jpegdata+0x7b4c>
    a104:	a78617bb 			; <UNDEFINED> instruction: 0xa78617bb
    a108:	f6595cc2 			; <UNDEFINED> instruction: 0xf6595cc2
    a10c:	34d4d27d 	ldrbcc	sp, [r4], #637	; 0x27d
    a110:	34a51a15 	strtcc	r1, [r5], #2581	; 0xa15
    a114:	8a516f7a 	bhi	1465f04 <ZAG+0x14580ec>
    a118:	31355639 	teqcc	r5, r9, lsr r6
    a11c:	6ad68721 	bvs	ff5abda8 <end+0xbf4abda8>
    a120:	698ad212 	stmibvs	sl, {r1, r4, r9, ip, lr, pc}
    a124:	1d31adc2 	ldcne	13, cr10, [r1, #-776]!	; 0xfffffcf8
    a128:	68adee55 	stmiavs	sp!, {r0, r2, r4, r6, r9, sl, fp, sp, lr, pc}
    a12c:	00ffbfd1 	ldrsbteq	fp, [pc], #241
    a130:	480f5710 	stmdami	pc, {r4, r8, r9, sl, ip, lr}	; <UNPREDICTABLE>
    a134:	91372c53 	teqls	r7, r3, asr ip
    a138:	aa125006 	bge	49e158 <ZAG+0x490340>
    a13c:	961d1726 	ldrls	r1, [sp], -r6, lsr #14
    a140:	886cf751 	stmdahi	ip!, {r0, r4, r6, r8, r9, sl, ip, sp, lr, pc}^
    a144:	cde17a05 	stclgt	10, cr7, [r1, #20]!
    a148:	c59c0eb5 	ldrgt	r0, [ip, #3765]	; 0xeb5
    a14c:	c1549f39 	cmpgt	r4, r9, lsr pc
    a150:	cbf7722e 	blgt	ffde6a10 <end+0xbfce6a10>
    a154:	bac85cca 	blt	ff221484 <end+0xbf121484>
    a158:	589e4525 	ldmpl	lr, {r0, r2, r5, r8, sl, lr}
    a15c:	892a70a7 	stmdbhi	sl!, {r0, r1, r2, r5, r7, ip, sp, lr}
    a160:	4896f050 	ldmmi	r6, {r4, r6, ip, sp, lr, pc}
    a164:	7ebd8a61 	vcvtrvc.s32.f32	s16, s3
    a168:	4424a445 	strtmi	sl, [r4], #-1093	; 0x445
    a16c:	bccbe8ac 	stcllt	8, cr14, [fp], {172}	; 0xac
    a170:	dc37a47e 	cfldrsle	mvf10, [r7], #-504	; 0xfffffe08
    a174:	d5c62317 	strble	r2, [r6, #791]	; 0x317
    a178:	d40ae5b5 	strle	lr, [sl], #-1461	; 0x5b5
    a17c:	3a25c234 	bcc	97aa54 <ZAG+0x96cc3c>
    a180:	aa15f992 	bge	5887d0 <ZAG+0x57a9b8>
    a184:	5900cce8 	stmdbpl	r0, {r3, r5, r6, r7, sl, fp, lr, pc}
    a188:	8cdcf866 	ldclhi	8, cr15, [ip], {102}	; 0x66
    a18c:	25d2a0d5 	ldrbcs	sl, [r2, #213]	; 0xd5
    a190:	6ad8378c 	bvs	ff617fc8 <end+0xbf517fc8>
    a194:	94a7b6f0 	strtls	fp, [r7], #1776	; 0x6f0
    a198:	5b8252a7 	blpl	fe09ec3c <end+0xbdf9ec3c>
    a19c:	00241f87 	eoreq	r1, r4, r7, lsl #31
    a1a0:	80574810 	subshi	r4, r7, r0, lsl r8
    a1a4:	0612cbae 	ldreq	ip, [r2], -lr, lsr #23
    a1a8:	1278f52d 	rsbsne	pc, r8, #188743680	; 0xb400000
    a1ac:	c3ab2b04 			; <UNDEFINED> instruction: 0xc3ab2b04
    a1b0:	9ea69c0c 	cdpls	12, 10, cr9, cr6, cr12, {0}
    a1b4:	d12065c9 	smlawtle	r0, r9, r5, r6
    a1b8:	c694b159 			; <UNDEFINED> instruction: 0xc694b159
    a1bc:	aee4c7da 	mcrge	7, 7, ip, cr4, cr10, {6}
    a1c0:	28faa756 	ldmcs	sl!, {r1, r2, r4, r6, r8, r9, sl, sp, pc}^
    a1c4:	c12b88aa 	teqgt	fp, sl, lsr #17
    a1c8:	243e8234 	ldrtcs	r8, [lr], #-564	; 0x234
    a1cc:	298c77a9 	stmibcs	ip, {r0, r3, r5, r7, r8, r9, sl, ip, sp, lr}
    a1d0:	3212c06d 	andscc	ip, r2, #109	; 0x6d
    a1d4:	75231ea3 	strvc	r1, [r3, #-3747]!	; 0xea3
    a1d8:	d5a54a1c 	strle	r4, [r5, #2588]!	; 0xa1c
    a1dc:	f6aabfe0 			; <UNDEFINED> instruction: 0xf6aabfe0
    a1e0:	08f301e2 	ldmeq	r3!, {r1, r5, r6, r7, r8}^
    a1e4:	ec0a3241 	sfm	f3, 4, [sl], {65}	; 0x41
    a1e8:	fbd80f64 	blx	ff60df82 <end+0xbf50df82>
    a1ec:	c48ccf00 	strgt	ip, [ip], #3840	; 0xf00
    a1f0:	aaec9b7d 	bge	ffb30fec <end+0xbfa30fec>
    a1f4:	db9b59db 	blle	fe6e0968 <end+0xbe5e0968>
    a1f8:	a2c34933 	sbcge	r4, r3, #835584	; 0xcc000
    a1fc:	13991ab3 	orrsne	r1, r9, #733184	; 0xb3000
    a200:	3be52293 	blcc	ff952c54 <end+0xbf852c54>
    a204:	434cac08 	movtmi	sl, #52232	; 0xcc08
    a208:	d7598d1f 	smmlale	r9, pc, sp, r8	; <UNPREDICTABLE>
    a20c:	04b6a1c9 	ldrteq	sl, [r6], #457	; 0x1c9
    a210:	99d2837a 	ldmibls	r2, {r1, r3, r4, r5, r6, r8, r9, pc}^
    a214:	f95af930 			; <UNDEFINED> instruction: 0xf95af930
    a218:	173a7dac 	ldrne	r7, [sl, -ip, lsr #27]!
    a21c:	e663139b 			; <UNDEFINED> instruction: 0xe663139b
    a220:	11274349 	teqne	r7, r9, asr #6
    a224:	fd30069a 	ldc2	6, cr0, [r0, #-616]!	; 0xfffffd98
    a228:	e68948f8 			; <UNDEFINED> instruction: 0xe68948f8
    a22c:	4a856244 	bmi	fe162b44 <end+0xbe062b44>
    a230:	6fcb93af 	svcvs	0x00cb93af
    a234:	70319220 	eorsvc	r9, r1, r0, lsr #4
    a238:	5628c03d 			; <UNDEFINED> instruction: 0x5628c03d
    a23c:	c74e5841 	strbgt	r5, [lr, -r1, asr #16]
    a240:	8cc60ee2 	stclhi	14, cr0, [r6], {226}	; 0xe2
    a244:	98cc8fc0 	stmials	ip, {r6, r7, r8, r9, sl, fp, pc}^
    a248:	57d3f589 	ldrbpl	pc, [r3, r9, lsl #11]	; <UNPREDICTABLE>
    a24c:	c52dce11 	strgt	ip, [sp, #-3601]!	; 0xe11
    a250:	ecaeb416 	cfstrs	mvf11, [lr], #88	; 0x58
    a254:	19e2aaa2 	stmibne	r2!, {r1, r5, r7, r9, fp, sp, pc}^
    a258:	a9e70d08 	stmibge	r7!, {r3, r8, sl, fp}^
    a25c:	9948e904 	stmdbls	r8, {r2, r8, fp, sp, lr, pc}^
    a260:	ff44e804 			; <UNDEFINED> instruction: 0xff44e804
    a264:	9eab4e00 	cdpls	14, 10, cr4, cr11, cr0, {0}
    a268:	3d70e29f 	lfmcc	f6, 3, [r0, #-636]!	; 0xfffffd84
    a26c:	8cd9d36d 	ldclhi	3, cr13, [r9], {109}	; 0x6d
    a270:	f15898fc 			; <UNDEFINED> instruction: 0xf15898fc
    a274:	a1761ab7 	ldrhge	r1, [r6, #-167]!	; 0xffffff59
    a278:	af68655a 	svcge	0x0068655a
    a27c:	2ad24e51 	bcs	ff49dbc8 <end+0xbf39dbc8>
    a280:	14328aa5 	ldrtne	r8, [r2], #-2725	; 0xaa5
    a284:	76652451 			; <UNDEFINED> instruction: 0x76652451
    a288:	5641615e 			; <UNDEFINED> instruction: 0x5641615e
    a28c:	e3481159 	movt	r1, #33113	; 0x8159
    a290:	3baddcc8 	blcc	feb815b8 <end+0xbea815b8>
    a294:	0bee8e6f 	bleq	ffbadc58 <end+0xbfaadc58>
    a298:	29418e6b 	stmdbcs	r1, {r0, r1, r3, r5, r6, r9, sl, fp, pc}^
    a29c:	d7951a35 			; <UNDEFINED> instruction: 0xd7951a35
    a2a0:	8a1482e3 	bhi	52ae34 <ZAG+0x51d01c>
    a2a4:	055f0061 	ldrbeq	r0, [pc, #-97]	; a24b <jpegdata+0x7e9b>
    a2a8:	09108f88 	ldmdbeq	r0, {r3, r7, r8, r9, sl, fp, pc}
    a2ac:	cbe020f6 	blgt	ff81268c <end+0xbf71268c>
    a2b0:	e57faeef 	ldrb	sl, [pc, #-3823]!	; 93c9 <jpegdata+0x7019>
    a2b4:	667b6fae 	ldrbtvs	r6, [fp], -lr, lsr #31
    a2b8:	d6928de6 	ldrle	r8, [r2], r6, ror #27
    a2bc:	c30e40cd 	movwgt	r4, #57549	; 0xe0cd
    a2c0:	92c81fc9 	sbcls	r1, r8, #804	; 0x324
    a2c4:	4ae4aa52 	bmi	ff934c14 <end+0xbf834c14>
    a2c8:	247132b0 	ldrbtcs	r3, [r1], #-688	; 0x2b0
    a2cc:	8159a582 	cmphi	r9, r2, lsl #11
    a2d0:	359d1998 	ldrcc	r1, [sp, #2456]	; 0x998
    a2d4:	3b4d99d2 	blcc	1370a24 <ZAG+0x1362c0c>
    a2d8:	39747cd4 	ldmdbcc	r4!, {r2, r4, r6, r7, sl, fp, ip, sp, lr}^
    a2dc:	f3aa5d2c 			; <UNDEFINED> instruction: 0xf3aa5d2c
    a2e0:	bfc4712f 	svclt	0x00c4712f
    a2e4:	58768298 	ldmdapl	r6!, {r3, r4, r7, r9, pc}^
    a2e8:	6f089037 	svcvs	0x00089037
    a2ec:	37dc182f 	ldrbcc	r1, [ip, pc, lsr #16]
    a2f0:	483e7682 	ldmdami	lr!, {r1, r7, r9, sl, ip, sp, lr}
    a2f4:	dcd965da 	cfldr64le	mvdx6, [r9], {218}	; 0xda
    a2f8:	f7c4211f 			; <UNDEFINED> instruction: 0xf7c4211f
    a2fc:	eb2bbd2d 	bl	af97b8 <ZAG+0xaeb9a0>
    a300:	19195667 	ldmdbne	r9, {r0, r1, r2, r5, r6, r9, sl, ip, lr}
    a304:	6cfcb8f6 	ldclvs	8, cr11, [ip], #984	; 0x3d8
    a308:	ed20c00e 	stc	0, cr12, [r0, #-56]!	; 0xffffffc8
    a30c:	52684890 	rsbpl	r4, r8, #144, 16	; 0x900000
    a310:	11962071 	orrsne	r2, r6, r1, ror r0
    a314:	1672cdbf 			; <UNDEFINED> instruction: 0x1672cdbf
    a318:	465d9cd7 			; <UNDEFINED> instruction: 0x465d9cd7
    a31c:	3008aab7 			; <UNDEFINED> instruction: 0x3008aab7
    a320:	0839ef23 	ldmdaeq	r9!, {r0, r1, r5, r8, r9, sl, fp, sp, lr, pc}
    a324:	1b3482d1 	blne	d2ae70 <ZAG+0xd1d058>
    a328:	686c6c44 	stmdavs	ip!, {r2, r6, sl, fp, sp, lr}^
    a32c:	d49a8f6d 	ldrle	r8, [sl], #3949	; 0xf6d
    a330:	078662fa 			; <UNDEFINED> instruction: 0x078662fa
    a334:	8eb98f09 	cdphi	15, 11, cr8, cr9, cr9, {0}
    a338:	b13362ed 	teqlt	r3, sp, ror #5
    a33c:	1a2bd48e 	bne	aff57c <ZAG+0xaf1764>
    a340:	dc2a1447 	cfstrsle	mvf1, [sl], #-284	; 0xfffffee4
    a344:	00fb771b 	rscseq	r7, fp, fp, lsl r7
    a348:	6e03199b 	mcrvs	9, 0, r1, cr3, cr11, {4}
    a34c:	3f41ecbb 	svccc	0x0041ecbb
    a350:	c8b9ea91 	ldmgt	r9!, {r0, r4, r7, r9, fp, sp, lr, pc}
    a354:	af053cf3 	svcge	0x00053cf3
    a358:	7367671f 	cmnvc	r7, #8126464	; 0x7c0000
    a35c:	c17b1b43 	cmngt	fp, r3, asr #22
    a360:	aa2aa0e2 	bge	ab26f0 <ZAG+0xaa48d8>
    a364:	f2968983 	vqdmlal.s16	q4, d22, d3
    a368:	69b86001 	ldmibvs	r8!, {r0, sp, lr}
    a36c:	030b8259 	movweq	r8, #45657	; 0xb259
    a370:	2d931e20 	ldccs	14, cr1, [r3, #128]	; 0x80
    a374:	b71a79ac 	ldrlt	r7, [sl, -ip, lsr #19]
    a378:	a9d2eb35 	ldmibge	r2, {r0, r2, r4, r5, r8, r9, fp, sp, lr, pc}^
    a37c:	999d6835 	ldmibls	sp, {r0, r2, r4, r5, fp, sp, lr}
    a380:	40249224 	eormi	r9, r4, r4, lsr #4
    a384:	838899d1 	orrhi	r9, r8, #3424256	; 0x344000
    a388:	b6a96bec 	strtlt	r6, [r9], ip, ror #23
    a38c:	8eb401b6 	mrchi	1, 5, r0, cr4, cr6, {5}
    a390:	9ed3517b 	mrcls	1, 6, r5, cr3, cr11, {3}
    a394:	5af20cd4 	bpl	ffc8d6ec <end+0xbfb8d6ec>
    a398:	f2cc0010 	vshr.s8	d16, d0, #4
    a39c:	bcefb383 	stcllt	3, cr11, [pc], #524	; a5b0 <jpegdata+0x8200>
    a3a0:	928c1864 	addls	r1, ip, #100, 16	; 0x640000
    a3a4:	08366e23 	ldmdaeq	r6!, {r0, r1, r5, r9, sl, fp, sp, lr}
    a3a8:	1ee5b88d 	cdpne	8, 14, cr11, cr5, cr13, {4}
    a3ac:	88b500ff 	ldmhi	r5!, {r0, r1, r2, r3, r4, r5, r6, r7}
    a3b0:	9b78e655 	blls	1e43d0c <ZAG+0x1e35ef4>
    a3b4:	7ef8f4ca 	cdpvc	4, 15, cr15, cr8, cr10, {6}
    a3b8:	556d9230 	strbpl	r9, [sp, #-560]!	; 0x230
    a3bc:	88110081 	ldmdahi	r1, {r0, r7}
    a3c0:	ceac4248 	cdpgt	2, 10, cr4, cr12, cr8, {2}
    a3c4:	05fa028c 	ldrbeq	r0, [sl, #652]!	; 0x28c
    a3c8:	9c3e65b2 	cfldr32ls	mvfx6, [lr], #-712	; 0xfffffd38
    a3cc:	7f919847 	svcvc	0x00919847
    a3d0:	57dc7280 	ldrbpl	r7, [ip, r0, lsl #5]
    a3d4:	4e3e79ee 	cdpmi	9, 3, cr7, cr14, cr14, {7}
    a3d8:	0471b900 	ldrbteq	fp, [r1], #-2304	; 0x900
    a3dc:	4b2e7290 	blmi	ba6e24 <ZAG+0xb9900c>
    a3e0:	42475586 	submi	r5, r7, #562036736	; 0x21800000
    a3e4:	22e80cce 	rsccs	r0, r8, #52736	; 0xce00
    a3e8:	8c543e30 	mrrchi	14, 3, r3, r4, cr0
    a3ec:	9dce31f8 	stflse	f3, [lr, #992]	; 0x3e0
    a3f0:	58a51ccb 	stmiapl	r5!, {r0, r1, r3, r6, r7, sl, fp, ip}
    a3f4:	92e169e7 	rscls	r6, r1, #3784704	; 0x39c000
    a3f8:	c1d20a3b 	bicsgt	r0, r2, fp, lsr sl
    a3fc:	217ec1c5 	cmncs	lr, r5, asr #3
    a400:	03b061b6 	movseq	r6, #-2147483603	; 0x8000002d
    a404:	63575275 	cmpvs	r7, #1342177287	; 0x50000007
    a408:	0c303bb0 	ldceq	11, cr3, [r0], #-704	; 0xfffffd40
    a40c:	6bdd81a1 	blvs	ff76aa98 <end+0xbf66aa98>
    a410:	b516b490 	ldrlt	fp, [r6, #-1168]	; 0x490
    a414:	15a4300d 	strne	r3, [r4, #13]!
    a418:	3131da80 	teqcc	r1, r0, lsl #21
    a41c:	4830fb20 	ldmdami	r0!, {r5, r8, r9, fp, ip, sp, lr, pc}
    a420:	82441299 	subhi	r1, r4, #-1879048183	; 0x90000009
    a424:	0d918a51 	vldreq	s16, [r1, #324]	; 0x144
    a428:	bce95d7c 	stcllt	13, cr5, [r9], #496	; 0x1f0
    a42c:	04972aa6 	ldreq	r2, [r7], #2726	; 0xaa6
    a430:	4cecb23c 	sfmmi	f3, 3, [ip], #240	; 0xf0
    a434:	12d0304c 	sbcsne	r3, r0, #76	; 0x4c
    a438:	0d18c414 	cfldrseq	mvf12, [r8, #-80]	; 0xffffffb0
    a43c:	b8aa2b04 	stmialt	sl!, {r2, r8, r9, fp, sp}
    a440:	31f7af32 	mvnscc	sl, r2, lsr pc
    a444:	a7039baa 	strge	r9, [r3, -sl, lsr #23]
    a448:	195fc1ea 	ldmdbne	pc, {r1, r3, r5, r6, r7, r8, lr, pc}^	; <UNPREDICTABLE>
    a44c:	1233ab35 	eorsne	sl, r3, #54272	; 0xd400
    a450:	66336aad 	ldrtvs	r6, [r3], -sp, lsr #21
    a454:	ef27d43e 	svc	0x0027d43e
    a458:	2e14032a 	cdpcs	3, 1, cr0, cr4, cr10, {1}
    a45c:	521ce726 	andspl	lr, ip, #9961472	; 0x980000
    a460:	b1fb0603 	mvnslt	r0, r3, lsl #12
    a464:	864ffd11 			; <UNDEFINED> instruction: 0x864ffd11
    a468:	f61ade5d 			; <UNDEFINED> instruction: 0xf61ade5d
    a46c:	07b393a5 	ldreq	r9, [r3, r5, lsr #7]!
    a470:	958e4ec5 	strls	r4, [lr, #3781]	; 0xec5
    a474:	d4953e88 	ldrle	r3, [r5], #3720	; 0xe88
    a478:	0b5d4c16 	bleq	175d4d8 <ZAG+0x174f6c0>
    a47c:	2a65384a 	bcs	19585ac <ZAG+0x194a794>
    a480:	0509ca67 	streq	ip, [r9, #-2663]	; 0xa67
    a484:	966aa59a 			; <UNDEFINED> instruction: 0x966aa59a
    a488:	dad5655c 	ble	ff563a00 <end+0xbf463a00>
    a48c:	a300c0d5 	movwge	ip, #213	; 0xd5
    a490:	988c5841 	stmls	ip, {r0, r6, fp, ip, lr}
    a494:	440d6a26 	strmi	r6, [sp], #-2598	; 0xa26
    a498:	489ee92a 	ldmmi	lr, {r1, r3, r5, r8, fp, sp, lr, pc}
    a49c:	2c3300f2 	ldccs	0, cr0, [r3], #-968	; 0xfffffc38
    a4a0:	4eb90c36 	mrcmi	12, 5, r0, cr9, cr6, {1}
    a4a4:	76d04aa5 	ldrbvc	r4, [r0], r5, lsr #21
    a4a8:	1062491a 	rsbne	r4, r2, sl, lsl r9
    a4ac:	33f68980 	mvnscc	r8, #128, 18	; 0x200000
    a4b0:	07600396 			; <UNDEFINED> instruction: 0x07600396
    a4b4:	ffc96d26 			; <UNDEFINED> instruction: 0xffc96d26
    a4b8:	1233fb00 	eorsne	pc, r3, #0, 22
    a4bc:	00ffce7f 	rscseq	ip, pc, pc, ror lr	; <UNPREDICTABLE>
    a4c0:	bc6ad29e 	sfmlt	f5, 3, [sl], #-632	; 0xfffffd88
    a4c4:	e2760a9d 	rsbs	r0, r6, #643072	; 0x9d000
    a4c8:	85ac98c6 	strhi	r9, [ip, #2246]!	; 0x8c6
    a4cc:	1aa32640 	bne	fe8d3dd4 <end+0xbe7d3dd4>
    a4d0:	9313206e 	tstls	r3, #110	; 0x6e
    a4d4:	683931f8 	ldmdavs	r9!, {r3, r4, r5, r6, r7, r8, ip, sp}
    a4d8:	5b59c115 	blpl	167a934 <ZAG+0x166cb1c>
    a4dc:	2f9c20d8 	svccs	0x009c20d8
    a4e0:	b796576d 	ldrlt	r5, [r6, sp, ror #14]
    a4e4:	ea386ca5 	b	e25780 <ZAG+0xe17968>
    a4e8:	5536bd62 	ldrpl	fp, [r6, #-3426]!	; 0xd62
    a4ec:	a466d504 	strbtge	sp, [r6], #-1284	; 0x504
    a4f0:	6f4e0aeb 	svcvs	0x004e0aeb
    a4f4:	2d2736fc 	stccs	6, cr3, [r7, #-1008]!	; 0xfffffc10
    a4f8:	b29aa202 	addslt	sl, sl, #536870912	; 0x20000000
    a4fc:	1f43b03f 	svcne	0x0043b03f
    a500:	6b580b8f 	blvs	160d344 <ZAG+0x15ff52c>
    a504:	dea225bd 	mcrle	5, 5, r2, cr2, cr13, {5}
    a508:	b78e5cd5 			; <UNDEFINED> instruction: 0xb78e5cd5
    a50c:	4ac852c5 	bmi	ff21f028 <end+0xbf11f028>
    a510:	379e9261 	ldrcc	r9, [lr, r1, ror #4]
    a514:	ae95b320 	cdpge	3, 9, cr11, cr5, cr0, {1}
    a518:	ef24b4a7 	svc	0x0024b4a7
    a51c:	91275835 	teqls	r7, r5, lsr r8
    a520:	ddbdac58 	ldcle	12, cr10, [sp, #352]!	; 0x160
    a524:	1a2900d9 	bne	a4a890 <ZAG+0xa3ca78>
    a528:	452e2faa 	strmi	r2, [lr, #-4010]!	; 0xfaa
    a52c:	e13df6e2 	teq	sp, r2, ror #13
    a530:	2be7d2cc 	blcs	ff9ff068 <end+0xbf8ff068>
    a534:	52b6bdd4 	adcspl	fp, r6, #212, 26	; 0x3500
    a538:	814d7c14 	cmphi	sp, r4, lsl ip
    a53c:	51c9ac2a 	bicpl	sl, r9, sl, lsr #24
    a540:	92b494a1 	adcsls	r9, r4, #-1593835520	; 0xa1000000
    a544:	8d405c16 	stclhi	12, cr5, [r0, #-88]	; 0xffffffa8
    a548:	afc24e12 	svcge	0x00c24e12
    a54c:	be3f6e50 	mrclt	14, 1, r6, cr15, cr0, {2}
    a550:	c11dda79 	tstgt	sp, r9, ror sl
    a554:	b5905771 	ldrlt	r5, [r0, #1905]	; 0x771
    a558:	8ba60846 	blhi	fe98c678 <end+0xbe88c678>
    a55c:	35ab4ae0 	strcc	r4, [fp, #2784]!	; 0xae0
    a560:	298b8d3a 	stmibcs	fp, {r1, r3, r4, r5, r8, sl, fp, pc}
    a564:	c985c470 	stmibgt	r5, {r4, r5, r6, sl, lr, pc}
    a568:	499008c4 	ldmibmi	r0, {r2, r6, r7, fp}
    a56c:	37bd0a3b 			; <UNDEFINED> instruction: 0x37bd0a3b
    a570:	32d55c74 	sbcscc	r5, r5, #116, 24	; 0x7400
    a574:	9dd92c50 	ldclls	12, cr2, [r9, #320]	; 0x140
    a578:	67ce8441 	strbvs	r8, [lr, r1, asr #8]
    a57c:	7c1dbfa1 	ldcvc	15, cr11, [sp], {161}	; 0xa1
    a580:	65c4a0b6 	strbvs	sl, [r4, #182]	; 0xb6
    a584:	54422553 	strbpl	r2, [r2], #-1363	; 0x553
    a588:	aaf251da 	bge	ffc9ecf8 <end+0xbfb9ecf8>
    a58c:	2f4a02b2 	svccs	0x004a02b2
    a590:	97205e35 			; <UNDEFINED> instruction: 0x97205e35
    a594:	21cc53da 	ldrdcs	r5, [ip, #58]	; 0x3a
    a598:	ebe6808d 	bl	ff9aa7d4 <end+0xbf8aa7d4>
    a59c:	915dfa4b 	cmpls	sp, fp, asr #20
    a5a0:	2da456cb 	stccs	6, cr5, [r4, #812]!	; 0x32c
    a5a4:	4811483e 	ldmdami	r1, {r1, r2, r3, r4, r5, fp, lr}
    a5a8:	128338ce 	addne	r3, r3, #13500416	; 0xce0000
    a5ac:	2c810109 	stfcss	f0, [r1], {9}
    a5b0:	e20a3037 	and	r3, sl, #55	; 0x37
    a5b4:	ea680954 	b	1a0cb0c <ZAG+0x19fecf4>
    a5b8:	bb1ddeaf 	bllt	78207c <ZAG+0x774264>
    a5bc:	70a07ec8 	adcvc	r7, r0, r8, asr #29
    a5c0:	2f6c7456 	svccs	0x006c7456
    a5c4:	a6660b7e 			; <UNDEFINED> instruction: 0xa6660b7e
    a5c8:	3852a258 	ldmdacc	r2, {r3, r4, r6, r9, sp, pc}^
    a5cc:	303ea8d4 	ldrsbtcc	sl, [lr], -r4
    a5d0:	1435b169 	ldrtne	fp, [r5], #-361	; 0x169
    a5d4:	ca11b5e2 	bgt	477d64 <ZAG+0x469f4c>
    a5d8:	b12ae3e5 	teqlt	sl, r5, ror #7
    a5dc:	a9f5c091 	ldmibge	r5!, {r0, r4, r7, lr, pc}^
    a5e0:	9549c885 	strbls	ip, [r9, #-2181]	; 0x885
    a5e4:	2a453ec3 	bcs	115a0f8 <ZAG+0x114c2e0>
    a5e8:	67593049 	ldrbvs	r3, [r9, -r9, asr #32]
    a5ec:	075c4311 	smmlaeq	ip, r1, r3, r4
    a5f0:	b971c492 	ldmdblt	r1!, {r1, r4, r7, sl, lr, pc}^
    a5f4:	e53791d9 	ldr	r9, [r7, #-473]!	; 0x1d9
    a5f8:	81fc76e5 	mvnshi	r7, r5, ror #13
    a5fc:	446fdfb9 	strbtmi	sp, [pc], #-4025	; a604 <jpegdata+0x8254>
    a600:	dea3feab 	cdple	14, 10, cr15, cr3, cr11, {5}
    a604:	2ead150a 	cdpcs	5, 10, cr1, cr13, cr10, {0}
    a608:	34a80710 	strtcc	r0, [r8], #1808	; 0x710
    a60c:	790a8ae1 	stmdbvc	sl, {r0, r5, r6, r7, r9, fp, pc}
    a610:	b5831f20 	strlt	r1, [r3, #3872]	; 0xf20
    a614:	77ce6969 	strbvc	r6, [lr, r9, ror #18]
    a618:	20d73512 	sbcscs	r3, r7, r2, lsl r5
    a61c:	35a69ff3 	strcc	r9, [r6, #4083]!	; 0xff3
    a620:	bbadfb6c 	bllt	feb893d8 <end+0xbea893d8>
    a624:	32e8c666 	rsccc	ip, r8, #106954752	; 0x6600000
    a628:	534d4d63 	movtpl	r4, #56675	; 0xdd63
    a62c:	f4ace323 	vld4.8	{d14[1],d15[1],d16[1],d17[1]}, [ip], r3
    a630:	013ac215 	teqeq	sl, r5, lsl r2
    a634:	b2e40e90 	rsclt	r0, r4, #144, 28	; 0x900
    a638:	5042f994 	umaalpl	pc, r2, r4, r9	; <UNPREDICTABLE>
    a63c:	f867a1ce 			; <UNDEFINED> instruction: 0xf867a1ce
    a640:	a8bde12b 	popge	{r0, r1, r3, r5, r8, sp, lr, pc}
    a644:	918fa963 	orrls	sl, pc, r3, ror #18
    a648:	3d6320eb 	stclcc	0, cr2, [r3, #-940]!	; 0xfffffc54
    a64c:	362b9247 	strtcc	r9, [fp], -r7, asr #4
    a650:	cb706e56 	blgt	1c25fb0 <ZAG+0x1c18198>
    a654:	630c6cb3 	movwvs	r6, #52403	; 0xccb3
    a658:	ff362a80 			; <UNDEFINED> instruction: 0xff362a80
    a65c:	f9ef2400 			; <UNDEFINED> instruction: 0xf9ef2400
    a660:	ebf4f8f1 	bl	ffd48a2c <end+0xbfc48a2c>
    a664:	7b2ce1da 	blvc	b42dd4 <ZAG+0xb34fbc>
    a668:	ed1cf777 	ldc	7, cr15, [ip, #-476]	; 0xfffffe24
    a66c:	1feb1455 	svcne	0x00eb1455
    a670:	8e611290 	mcrhi	2, 3, r1, cr1, cr0, {4}
    a674:	088b615e 	stmeq	fp, {r1, r2, r3, r4, r6, r8, sp, lr}
    a678:	65c05063 	strbvs	r5, [r0, #99]	; 0x63
    a67c:	21b0a889 	lslscs	sl, r9, #17
    a680:	0e4405a4 	cdpeq	5, 4, cr0, cr4, cr4, {5}
    a684:	69e6840b 	stmibvs	r6!, {r0, r1, r3, sl, pc}^
    a688:	e28d6372 	add	r6, sp, #-939524095	; 0xc8000001
    a68c:	53de33a8 	bicspl	r3, lr, #168, 6	; 0xa0000002
    a690:	1dc65677 	stclne	6, cr5, [r6, #476]	; 0x1dc
    a694:	4106964f 	tstmi	r6, pc, asr #12
    a698:	38330540 	ldmdacc	r3!, {r6, r8, sl}
    a69c:	324acabf 	subcc	ip, sl, #782336	; 0xbf000
    a6a0:	2b293cb4 	blcs	a59978 <ZAG+0xa4bb60>
    a6a4:	941e05d6 	ldrls	r0, [lr], #-1494	; 0x5d6
    a6a8:	9d5b0dea 	ldclls	13, cr0, [fp, #-936]	; 0xfffffc58
    a6ac:	66a62d8f 	strtvs	r2, [r6], pc, lsl #27
    a6b0:	e3c9dccd 	bic	sp, r9, #52480	; 0xcd00
    a6b4:	3c5ecb2a 	mrrccc	11, 2, ip, lr, cr10
    a6b8:	965c7374 			; <UNDEFINED> instruction: 0x965c7374
    a6bc:	903ca39d 	mlasls	ip, sp, r3, sl
    a6c0:	5ca11483 	cfstrspl	mvf1, [r1], #524	; 0x20c
    a6c4:	0a630841 	beq	18cc7d0 <ZAG+0x18be9b8>
    a6c8:	5d007939 	stcpl	9, cr7, [r0, #-228]	; 0xffffff1c
    a6cc:	fec7c6eb 	cdp2	6, 12, cr12, cr7, cr11, {7}
    a6d0:	9a47e225 	bls	1202f6c <ZAG+0x11f5154>
    a6d4:	7570c9a9 	ldrbvc	ip, [r0, #-2473]!	; 0x9a9
    a6d8:	68f1a92c 	ldmvs	r1!, {r2, r3, r5, r8, fp, sp, pc}^
    a6dc:	1c2cb2d5 	sfmne	f3, 1, [ip], #-852	; 0xfffffcac
    a6e0:	28fb67b9 	ldmcs	fp!, {r0, r3, r4, r5, r7, r8, r9, sl, sp, lr}^
    a6e4:	ecf58905 	ldcl	9, cr8, [r5], #20
    a6e8:	a38b02b4 	orrge	r0, fp, #180, 4	; 0x4000000b
    a6ec:	76bfbafd 			; <UNDEFINED> instruction: 0x76bfbafd
    a6f0:	f1ddf013 			; <UNDEFINED> instruction: 0xf1ddf013
    a6f4:	f7dac96f 			; <UNDEFINED> instruction: 0xf7dac96f
    a6f8:	450a252a 	strmi	r2, [sl, #-1322]	; 0x52a
    a6fc:	0a6862a9 	beq	1a231a8 <ZAG+0x1a15390>
    a700:	9a253e74 	bls	95a0d8 <ZAG+0x94c2c0>
    a704:	5fa0d8ae 	svcpl	0x00a0d8ae
    a708:	a728fde2 	strge	pc, [r8, -r2, ror #27]!
    a70c:	1053a925 	subsne	sl, r3, r5, lsr #18
    a710:	f4206900 	vld2.8	{d6,d8}, [r0], r0
    a714:	4bd6ebcc 	blmi	ff5c564c <end+0xbf4c564c>
    a718:	7af2a32b 	bvc	ffcb33cc <end+0xbfbb33cc>
    a71c:	2ca101b7 	stfcss	f0, [r1], #732	; 0x2dc
    a720:	92a7c8e9 	adcls	ip, r7, #15269888	; 0xe90000
    a724:	736b75ac 	cmnvc	fp, #172, 10	; 0x2b000000
    a728:	0e8221a7 	rmfeqdp	f2, f2, f7
    a72c:	dc0c8300 	stcle	3, cr8, [ip], {-0}
    a730:	79c83358 	stmibvc	r8, {r3, r4, r6, r8, r9, ip, sp}^
    a734:	9dbcbc32 	ldcls	12, cr11, [ip, #200]!	; 0xc8
    a738:	00ff6db7 	ldrhteq	r6, [pc], #215
    a73c:	f50ddb2b 			; <UNDEFINED> instruction: 0xf50ddb2b
    a740:	cd77ea78 	vldmdbgt	r7!, {s29-s148}
    a744:	e5ace646 	str	lr, [ip, #1606]!	; 0x646
    a748:	e824924c 	stmda	r4!, {r2, r3, r6, r9, ip, pc}
    a74c:	783f1b93 	ldmdavc	pc!, {r0, r1, r4, r7, r8, r9, fp, ip}	; <UNPREDICTABLE>
    a750:	eb8f88d0 	bl	fe3eca98 <end+0xbe2eca98>
    a754:	f36edc23 			; <UNDEFINED> instruction: 0xf36edc23
    a758:	5ec4a791 	mcrpl	7, 6, sl, cr4, cr1, {4}
    a75c:	c45258dc 	ldrbgt	r5, [r2], #-2268	; 0x8dc
    a760:	d8aa70d0 	stmiale	sl!, {r4, r6, r7, ip, sp, lr}
    a764:	08506508 	ldmdaeq	r0, {r3, r8, sl, sp, lr}^
    a768:	fb824c22 	blx	fe09d7fa <end+0xbdf9d7fa>
    a76c:	3e911339 	mrccc	3, 4, r1, cr1, cr9, {1}
    a770:	1dd34fa5 	ldclne	15, cr4, [r3, #660]	; 0x294
    a774:	7000ff6a 	andvc	pc, r0, sl, ror #30
    a778:	d4157a57 	ldrle	r7, [r5], #-2647	; 0xa57
    a77c:	6bad584b 	blvs	feb608b0 <end+0xbea608b0>
    a780:	f2886a70 			; <UNDEFINED> instruction: 0xf2886a70
    a784:	a35be855 	cmpge	fp, #5570560	; 0x550000
    a788:	1ba30a0d 	blne	fe8ccfc4 <end+0xbe7ccfc4>
    a78c:	a5199a56 	ldrge	r9, [r9, #-2646]	; 0xa56
    a790:	3f79c08a 	svccc	0x0079c08a
    a794:	54374adc 	ldrtpl	r4, [r7], #-2780	; 0xadc
    a798:	63c60d57 	bicvs	r0, r6, #5568	; 0x15c0
    a79c:	1e28e0be 	mcrne	0, 1, lr, cr8, cr14, {5}
    a7a0:	ed4afd0e 	stcl	13, cr15, [sl, #-56]	; 0xffffffc8
    a7a4:	99b18a45 	ldmibls	r1!, {r0, r2, r6, r9, fp, pc}
    a7a8:	ff0ffc88 			; <UNDEFINED> instruction: 0xff0ffc88
    a7ac:	e378bd00 	cmn	r8, #0, 26
    a7b0:	d51c2af8 	ldrle	r2, [ip, #-2808]	; 0xaf8
    a7b4:	42b657b2 	adcsmi	r5, r6, #46661632	; 0x2c80000
    a7b8:	fcc18c8a 	stc2l	12, cr8, [r1], {138}	; 0x8a
    a7bc:	91d276b2 	ldrhls	r7, [r2, #98]	; 0x62
    a7c0:	7650858c 	ldrbvc	r8, [r0], -ip, lsl #11
    a7c4:	130de046 	movwne	lr, #53318	; 0xd046
    a7c8:	c4ed3b3d 	strbtgt	r3, [sp], #2877	; 0xb3d
    a7cc:	3e922632 	mrccc	6, 4, r2, cr2, cr2, {1}
    a7d0:	89bb671c 	ldmibhi	fp!, {r2, r3, r4, r8, r9, sl, sp, lr}
    a7d4:	442ba9fd 	strtmi	sl, [fp], #-2557	; 0x9fd
    a7d8:	775c0e92 			; <UNDEFINED> instruction: 0x775c0e92
    a7dc:	aa1fb363 	bge	7f7570 <ZAG+0x7e9758>
    a7e0:	73070190 	movwvc	r0, #29072	; 0x7190
    a7e4:	bef10ffe 	mrclt	15, 7, r0, cr1, cr14, {7}
    a7e8:	add5fd95 	ldclge	13, cr15, [r5, #596]	; 0x254
    a7ec:	7a7111ad 	bvc	1c4eea8 <ZAG+0x1c41090>
    a7f0:	e411d314 	ldr	sp, [r1], #-788	; 0x314
    a7f4:	f913854a 			; <UNDEFINED> instruction: 0xf913854a
    a7f8:	ea00402c 	b	1a8b0 <ZAG+0xca98>
    a7fc:	f73a990c 			; <UNDEFINED> instruction: 0xf73a990c
    a800:	dac0b513 	ble	ff037c54 <end+0xbef37c54>
    a804:	73710d72 	cmnvc	r1, #7296	; 0x1c80
    a808:	bddec46d 	cfldrdlt	mvd12, [lr, #436]	; 0x1b4
    a80c:	69c6509d 	stmibvs	r6, {r0, r2, r3, r4, r7, ip, lr}^
    a810:	55395413 	ldrpl	r5, [r9, #-1043]!	; 0x413
    a814:	50f80030 	rscspl	r0, r8, r0, lsr r0
    a818:	6c4947b5 	mcrrvs	7, 11, r4, r9, cr5
    a81c:	a052e3d7 	ldrsbge	lr, [r2], #-55	; 0xffffffc9
    a820:	f08c0017 			; <UNDEFINED> instruction: 0xf08c0017
    a824:	b0e7c3ca 	rsclt	ip, r7, sl, asr #7
    a828:	50903354 	addspl	r3, r0, r4, asr r3
    a82c:	1d051187 	stfnes	f1, [r5, #-540]	; 0xfffffde4
    a830:	52397a43 	eorspl	r7, r9, #274432	; 0x43000
    a834:	53a3557a 			; <UNDEFINED> instruction: 0x53a3557a
    a838:	f85d6924 			; <UNDEFINED> instruction: 0xf85d6924
    a83c:	14ea4a33 	strbtne	r4, [sl], #2611	; 0xa33
    a840:	10984605 	addsne	r4, r8, r5, lsl #12
    a844:	8027f30f 	eorhi	pc, r7, pc, lsl #6
    a848:	f16a7dde 			; <UNDEFINED> instruction: 0xf16a7dde
    a84c:	6dee34f7 	cfstrdvs	mvd3, [lr, #988]!	; 0x3dc
    a850:	1620d190 			; <UNDEFINED> instruction: 0x1620d190
    a854:	311efe69 	tstcc	lr, r9, ror #28
    a858:	2789448e 	strcs	r4, [r9, lr, lsl #9]
    a85c:	14504120 	ldrbne	r4, [r0], #-288	; 0x120
    a860:	94a4fab0 	strtls	pc, [r4], #2736	; 0xab0
    a864:	7b0691c4 	blvc	1aef7c <ZAG+0x1a1164>
    a868:	6de482af 	sfmvs	f0, 3, [r4, #700]!	; 0x2bc
    a86c:	bf546bef 	svclt	0x00546bef
    a870:	29b47ab9 	ldmibcs	r4!, {r0, r3, r4, r5, r7, r9, fp, ip, sp, lr}
    a874:	2e955253 	mrccs	2, 4, r5, cr5, cr3, {2}
    a878:	33f2514d 	mvnscc	r5, #1073741843	; 0x40000013
    a87c:	905652d3 	ldrsbls	r5, [r6], #-35	; 0xffffffdd
    a880:	6287593e 	addvs	r5, r7, #1015808	; 0xf8000
    a884:	7f4c7a42 	svcvc	0x004c7a42
    a888:	8d34608a 	ldchi	0, cr6, [r4, #-552]!	; 0xfffffdd8
    a88c:	e9a67e6a 	stmib	r6!, {r1, r3, r5, r6, r9, sl, fp, ip, sp, lr}
    a890:	b79d1f7d 			; <UNDEFINED> instruction: 0xb79d1f7d
    a894:	3675c997 			; <UNDEFINED> instruction: 0x3675c997
    a898:	2594247c 	ldrcs	r2, [r4, #1148]	; 0x47c
    a89c:	1d51f808 	ldclne	8, cr15, [r1, #-32]	; 0xffffffe0
    a8a0:	080cfc5e 	stmdaeq	ip, {r1, r2, r3, r4, r6, sl, fp, ip, sp, lr, pc}
    a8a4:	5c33d24d 	lfmpl	f5, 1, [r3], #-308	; 0xfffffecc
    a8a8:	19b7d8da 	ldmibne	r7!, {r1, r3, r4, r6, r7, fp, ip, lr, pc}
    a8ac:	0e430c01 	cdpeq	12, 4, cr0, cr3, cr1, {0}
    a8b0:	8f4d092e 	svchi	0x004d092e
    a8b4:	683457a2 	ldmdavs	r4!, {r1, r5, r7, r8, r9, sl, ip, lr}
    a8b8:	39ea7c55 	stmibcc	sl!, {r0, r2, r4, r6, sl, fp, ip, sp, lr}^
    a8bc:	f6b10204 			; <UNDEFINED> instruction: 0xf6b10204
    a8c0:	48058986 	stmdami	r5, {r1, r2, r7, r8, fp, pc}
    a8c4:	6423ce20 	strtvs	ip, [r3], #-3616	; 0xe20
    a8c8:	09101318 	ldmdbeq	r0, {r3, r4, r8, r9, ip}
    a8cc:	b91d6e95 	ldmdblt	sp, {r0, r2, r4, r7, r9, sl, fp, sp, lr}
    a8d0:	de96541a 	mrcle	4, 4, r5, cr6, cr10, {0}
    a8d4:	46d59285 	ldrbmi	r9, [r5], r5, lsl #5
    a8d8:	a0267965 	eorge	r7, r6, r5, ror #18
    a8dc:	273e9405 	ldrcs	r9, [lr, -r5, lsl #8]!
    a8e0:	1580a834 	strne	sl, [r0, #2100]	; 0x834
    a8e4:	2e03c20e 	cdpcs	2, 0, cr12, cr3, cr14, {0}
    a8e8:	eab0c0f4 	b	fec3acc0 <end+0xbeb3acc0>
    a8ec:	c6fad391 	usatgt	sp, #26, r1, lsl #7
    a8f0:	57f1caf5 			; <UNDEFINED> instruction: 0x57f1caf5
    a8f4:	7c5157c9 	mrrcvc	7, 12, r5, r1, cr9
    a8f8:	f820d2c6 			; <UNDEFINED> instruction: 0xf820d2c6
    a8fc:	85b62602 	ldrhi	r2, [r6, #1538]!	; 0x602
    a900:	095d4a94 	ldmdbeq	sp, {r2, r4, r7, r9, fp, lr}^
    a904:	a60eb951 			; <UNDEFINED> instruction: 0xa60eb951
    a908:	21164740 	tstcs	r6, r0, asr #14
    a90c:	13371140 	teqne	r7, #64, 2
    a910:	73734bea 	cmnvc	r3, #239616	; 0x3a800
    a914:	067ddcdb 			; <UNDEFINED> instruction: 0x067ddcdb
    a918:	8c7ca3bc 	ldclhi	3, cr10, [ip], #-752	; 0xfffffd10
    a91c:	70888c84 	addvc	r8, r8, r4, lsl #25
    a920:	7a8a1858 	bvc	fe290a88 <end+0xbe190a88>
    a924:	0a48cc50 	beq	123da6c <ZAG+0x122fc54>
    a928:	908c4a15 	addls	r4, ip, r5, lsl sl
    a92c:	727a4802 	rsbsvc	r4, sl, #131072	; 0x20000
    a930:	bffd50ab 	svclt	0x00fd50ab
    a934:	6d577271 	lfmvs	f7, 2, [r7, #-452]	; 0xfffffe3c
    a938:	d363fc6c 	msrle	SPSR_xc, #108, 24	; 0x6c00
    a93c:	132e202b 	teqne	lr, #43	; 0x2b
    a940:	a09ac94c 	addsge	ip, sl, ip, asr #18
    a944:	8ba96254 	blhi	fea6329c <end+0xbe96329c>
    a948:	668667b1 			; <UNDEFINED> instruction: 0x668667b1
    a94c:	ae10835a 	mrcge	3, 0, r8, cr0, cr10, {2}
    a950:	b855012a 	ldmdalt	r5, {r1, r3, r5, r8}^
    a954:	5efe0c96 	mrcpl	12, 7, r0, cr14, cr6, {4}
    a958:	d41c5686 	ldrle	r5, [ip], #-1670	; 0x686
    a95c:	639626f5 	orrsvs	r2, r6, #256901120	; 0xf500000
    a960:	268a26bd 			; <UNDEFINED> instruction: 0x268a26bd
    a964:	1c71ca5e 	ldclne	10, cr12, [r1], #-376	; 0xfffffe88
    a968:	66979423 	ldrvs	r9, [r7], r3, lsr #8
    a96c:	92949591 	addsls	r9, r4, #608174080	; 0x24400000
    a970:	03c18dfb 	biceq	r8, r1, #16064	; 0x3ec0
    a974:	f798c4ce 			; <UNDEFINED> instruction: 0xf798c4ce
    a978:	357cdc21 	ldrbcc	sp, [ip, #-3105]!	; 0xc21
    a97c:	f35972af 	vhsub.u16	d23, d25, d31
    a980:	34364b9c 	ldrtcc	r4, [r6], #-2972	; 0xb9c
    a984:	81002ada 	ldrdhi	r2, [r0, -sl]
    a988:	5d30284b 	ldcpl	8, cr2, [r0, #-300]!	; 0xfffffed4
    a98c:	22fe9564 	rscscs	r9, lr, #100, 10	; 0x19000000
    a990:	85102833 	ldrhi	r2, [r0, #-2099]	; 0x833
    a994:	44569c71 	ldrbmi	r9, [r6], #-3185	; 0xc71
    a998:	dfce3857 	svcle	0x00ce3857
    a99c:	2b382fe4 	blcs	e16934 <ZAG+0xe08b1c>
    a9a0:	a39c178e 	orrsge	r1, ip, #37224448	; 0x2380000
    a9a4:	7fa5ea2a 	svcvc	0x00a5ea2a
    a9a8:	49c4308b 	stmibmi	r4, {r0, r1, r3, r7, ip, sp}^
    a9ac:	5c39854c 	cfldr32pl	mvfx8, [r9], #-304	; 0xfffffed0
    a9b0:	1549431d 	strbne	r4, [r9, #-797]	; 0x31d
    a9b4:	566dcb81 	strbtpl	ip, [sp], -r1, lsl #23
    a9b8:	bab0461a 	blt	fec1c228 <end+0xbeb1c228>
    a9bc:	d534180a 	ldrle	r1, [r4, #-2058]!	; 0x80a
    a9c0:	cdf67209 	lfmgt	f7, 2, [r6, #36]!	; 0x24
    a9c4:	56f980a9 	ldrbtpl	r8, [r9], r9, lsr #1
    a9c8:	6b0c8166 	blvs	32af68 <ZAG+0x31d150>
    a9cc:	c9e766dc 	stmibgt	r7!, {r2, r3, r4, r6, r7, r9, sl, sp, lr}^
    a9d0:	4155ec13 	cmpmi	r5, r3, lsl ip
    a9d4:	d896b43f 	ldmle	r6, {r0, r1, r2, r3, r4, r5, sl, ip, sp, pc}
    a9d8:	49ec587e 	stmibmi	ip!, {r1, r2, r3, r4, r5, r6, fp, ip, lr}^
    a9dc:	f2fbe479 			; <UNDEFINED> instruction: 0xf2fbe479
    a9e0:	af97e7fa 	svcge	0x0097e7fa
    a9e4:	5a505ac2 	bpl	14214f4 <ZAG+0x14136dc>
    a9e8:	14a84eaf 	strtne	r4, [r8], #3759	; 0xeaf
    a9ec:	a3794f8d 	cmnge	r9, #564	; 0x234
    a9f0:	a86a126c 	stmdage	sl!, {r2, r3, r5, r6, r9, ip}^
    a9f4:	20526402 	subscs	r6, r2, r2, lsl #8
    a9f8:	946921ce 	strbtls	r2, [r9], #-462	; 0x1ce
    a9fc:	daa8ca39 	ble	fea3d2e8 <end+0xbe93d2e8>
    aa00:	c731d576 			; <UNDEFINED> instruction: 0xc731d576
    aa04:	ab5beed1 	blge	1706550 <ZAG+0x16f8738>
    aa08:	2db5a097 	ldccs	0, cr10, [r5, #604]!	; 0x25c
    aa0c:	96c23a85 	strbls	r3, [r2], r5, lsl #21
    aa10:	adf0c1c7 	ldfgep	f4, [r0, #796]!	; 0x31c
    aa14:	e5c4d734 	strb	sp, [r4, #1844]	; 0x734
    aa18:	6baac68f 	blvs	feabc45c <end+0xbe9bc45c>
    aa1c:	9a1cb002 	bls	736a2c <ZAG+0x728c14>
    aa20:	a829c8a8 	stmdage	r9!, {r3, r5, r7, fp, lr, pc}
    aa24:	c5a09438 	strgt	r9, [r0, #1080]!	; 0x438
    aa28:	c1a8fe69 			; <UNDEFINED> instruction: 0xc1a8fe69
    aa2c:	f60e966e 			; <UNDEFINED> instruction: 0xf60e966e
    aa30:	28913b4e 	ldmcs	r1, {r1, r2, r3, r6, r8, r9, fp, ip, sp}
    aa34:	d52c3793 	strle	r3, [ip, #-1939]!	; 0x793
    aa38:	2027bdd6 	ldrdcs	fp, [r7], -r6	; <UNPREDICTABLE>
    aa3c:	d619dcae 	ldrle	sp, [r9], -lr, lsr #25
    aa40:	b7c7f84d 	strblt	pc, [r7, sp, asr #16]	; <UNPREDICTABLE>
    aa44:	e5bf8d25 	ldr	r8, [pc, #3365]!	; b771 <jpegdata+0x93c1>
    aa48:	8104b8d8 	ldrdhi	fp, [r4, -r8]
    aa4c:	fff6cbb5 			; <UNDEFINED> instruction: 0xfff6cbb5
    aa50:	5cdc3100 	ldfple	f3, [ip], {0}
    aa54:	5e5ec545 	cdppl	5, 5, cr12, cr14, cr5, {2}
    aa58:	2c79c38f 	ldclcs	3, cr12, [r9], #-572	; 0xfffffdc4
    aa5c:	c30553e0 	movwgt	r5, #21472	; 0x53e0
    aa60:	056a3aa5 	strbeq	r3, [sl, #-2725]!	; 0xaa5
    aa64:	59003b3d 	stmdbpl	r0, {r0, r2, r3, r4, r5, r8, r9, fp, ip, sp}
    aa68:	624980c8 	subvs	r8, r9, #200	; 0xc8
    aa6c:	18208544 	stmdane	r0!, {r2, r6, r8, sl, pc}
    aa70:	a17ec6cd 	cmnge	lr, sp, asr #13
    aa74:	674b70db 			; <UNDEFINED> instruction: 0x674b70db
    aa78:	a217f1c0 	andsge	pc, r7, #192, 2	; 0x30
    aa7c:	698116a7 	stmibvs	r1, {r0, r1, r2, r5, r7, r9, sl, ip}
    aa80:	15077f95 	strne	r7, [r7, #-3989]	; 0xf95
    aa84:	3577d62a 	ldrbcc	sp, [r7, #-1578]!	; 0x62a
    aa88:	b2401a4b 	sublt	r1, r0, #307200	; 0x4b000
    aa8c:	562293a2 	strtpl	r9, [r2], -r2, lsr #7
    aa90:	1e268598 	mcrne	5, 1, r8, cr6, cr8, {4}
    aa94:	baa0370b 	blt	fe8186c8 <end+0xbe7186c8>
    aa98:	ec7494b0 	cfldrd	mvd9, [r4], #-704	; 0xfffffd40
    aa9c:	6dbc313f 	ldfvss	f3, [ip, #252]!	; 0xfc
    aaa0:	db09e420 	blle	283b28 <ZAG+0x275d10>
    aaa4:	62dfb071 	sbcsvs	fp, pc, #113	; 0x71
    aaa8:	b6710708 	ldrbtlt	r0, [r1], -r8, lsl #14
    aaac:	9f0a7efb 	svcls	0x000a7efb
    aab0:	8cebb93e 	stclhi	9, cr11, [fp], #248	; 0xf8
    aab4:	6a757c7a 	bvs	1d69ca4 <ZAG+0x1d5be8c>
    aab8:	d5c8f686 	strble	pc, [r8, #1670]	; 0x686	; <UNPREDICTABLE>
    aabc:	2490cf34 	ldrcs	ip, [r0], #3892	; 0xf34
    aac0:	a4d1068c 	ldrbge	r0, [r1], #1676	; 0x68c
    aac4:	2c938341 	ldccs	3, cr8, [r3], {65}	; 0x41
    aac8:	082b0416 	stmdaeq	fp!, {r1, r2, r4, sl}
    aacc:	bf6a4b2a 	svclt	0x006a4b2a
    aad0:	424e2dc9 	submi	r2, lr, #12864	; 0x3240
    aad4:	5ed93f8d 	cdppl	15, 13, cr3, cr9, cr13, {4}
    aad8:	f1a0428a 			; <UNDEFINED> instruction: 0xf1a0428a
    aadc:	e9cc0620 	stmib	ip, {r5, r9, sl}^
    aae0:	572213d7 			; <UNDEFINED> instruction: 0x572213d7
    aae4:	410a7905 	tstmi	sl, r5, lsl #18
    aae8:	71193265 	tstvc	r9, r5, ror #4
    aaec:	35e97ddf 	strbcc	r7, [r9, #3551]!	; 0xddf
    aaf0:	a70990d5 			; <UNDEFINED> instruction: 0xa70990d5
    aaf4:	561c31b3 			; <UNDEFINED> instruction: 0x561c31b3
    aaf8:	b0615674 	rsblt	r5, r1, r4, ror r6
    aafc:	acfd2920 	ldclge	9, cr2, [sp], #128	; 0x80
    ab00:	3bf511c4 	blcc	ffd4f218 <end+0xbfc4f218>
    ab04:	4b3c64f2 	blmi	f23ed4 <ZAG+0xf160bc>
    ab08:	34f31409 	ldrbtcc	r1, [r3], #1033	; 0x409
    ab0c:	2ef8e2e6 	cdpcs	2, 15, cr14, cr8, cr6, {7}
    ab10:	67b9fd6e 	ldrvs	pc, [r9, lr, ror #26]!
    ab14:	903f92ad 	eorsls	r9, pc, sp, lsr #5
    ab18:	f00fa2a6 			; <UNDEFINED> instruction: 0xf00fa2a6
    ab1c:	e8ad0ec0 	stmia	sp!, {r6, r7, r9, sl, fp}
    ab20:	af82d5ce 	svcge	0x0082d5ce
    ab24:	532498c7 	teqpl	r4, #13041664	; 0xc70000
    ab28:	6ca2d028 	stcvs	0, cr13, [r2], #160	; 0xa0
    ab2c:	c33b97bc 	teqgt	fp, #188, 14	; 0x2f00000
    ab30:	94142f58 	ldrls	r2, [r4], #-3928	; 0xf58
    ab34:	3f9ea871 	svccc	0x009ea871
    ab38:	99871c23 	stmibls	r7, {r0, r1, r5, sl, fp, ip}
    ab3c:	b12f9b26 	teqlt	pc, r6, lsr #22
    ab40:	374b1910 	smlaldcc	r1, fp, r0, r9
    ab44:	0db069c8 	ldceq	9, cr6, [r0, #800]!	; 0x320
    ab48:	b6cb3a50 			; <UNDEFINED> instruction: 0xb6cb3a50
    ab4c:	7ad2b106 	bvc	ff4b6f6c <end+0xbf3b6f6c>
    ab50:	2707f666 	strcs	pc, [r7, -r6, ror #12]
    ab54:	a660ca85 	strbtge	ip, [r0], -r5, lsl #21
    ab58:	c8c88fbf 	stmiagt	r8, {r0, r1, r2, r3, r4, r5, r7, r8, r9, sl, fp, pc}^
    ab5c:	380df770 	stmdacc	sp, {r4, r5, r6, r8, r9, sl, ip, sp, lr, pc}
    ab60:	76526909 	ldrbvc	r6, [r2], -r9, lsl #18
    ab64:	3fdea9ed 	svccc	0x00dea9ed
    ab68:	cac92db4 	bgt	ff256240 <end+0xbf156240>
    ab6c:	032350f3 	teqeq	r3, #243	; 0xf3
    ab70:	83d4f6f7 	bicshi	pc, r4, #258998272	; 0xf700000
    ab74:	ee871f1d 	mcr	15, 4, r1, cr7, cr13, {0}
    ab78:	6e6ee567 	cdpvs	5, 6, cr14, cr14, cr7, {3}
    ab7c:	53568d52 	cmppl	r6, #5248	; 0x1480
    ab80:	2439644b 	ldrtcs	r6, [r9], #-1099	; 0x44b
    ab84:	28580548 	ldmdacs	r8, {r3, r6, r8, sl}^
    ab88:	b2629293 	rsblt	r9, r2, #805306377	; 0x30000009
    ab8c:	ddaec3c0 	stcle	3, cr12, [lr, #768]!	; 0x300
    ab90:	e7e57072 			; <UNDEFINED> instruction: 0xe7e57072
    ab94:	a76c9fbc 			; <UNDEFINED> instruction: 0xa76c9fbc
    ab98:	abd64a0d 	blge	ff59d3d4 <end+0xbf49d3d4>
    ab9c:	1ff25351 	svcne	0x00f25351
    aba0:	fba04016 	blx	fe81ac02 <end+0xbe71ac02>
    aba4:	00124bcd 	andseq	r4, r2, sp, asr #23
    aba8:	2b36994a 	blcs	db10d8 <ZAG+0xda32c0>
    abac:	53cc4d13 	bicpl	r4, ip, #1216	; 0x4c0
    abb0:	2650aa60 	ldrbcs	sl, [r0], -r0, ror #20
    abb4:	6344275e 	movtvs	r2, #18270	; 0x475e
    abb8:	1d73dab1 	vldmdbne	r3!, {s27-s203}
    abbc:	984d5986 	stmdals	sp, {r1, r2, r7, r8, fp, ip, lr}^
    abc0:	282d90f1 	stmdacs	sp!, {r0, r4, r5, r6, r7, ip, pc}
    abc4:	bb22a46c 	bllt	8b3d7c <ZAG+0x8a5f64>
    abc8:	37ea8f94 			; <UNDEFINED> instruction: 0x37ea8f94
    abcc:	1daa2a8c 	stcne	10, cr2, [sl, #560]!	; 0x230
    abd0:	42816297 	addmi	r6, r1, #1879048201	; 0x70000009
    abd4:	0328dca9 	teqeq	r8, #43264	; 0xa900
    abd8:	532e536f 	teqpl	lr, #-1140850687	; 0xbc000001
    abdc:	d45e79bb 	ldrble	r7, [lr], #-2491	; 0x9bb
    abe0:	d8bf2bee 	ldmle	pc!, {r1, r2, r3, r5, r6, r7, r8, r9, fp, sp}	; <UNPREDICTABLE>
    abe4:	abdc1430 	blge	ff70fcac <end+0xbf60fcac>
    abe8:	500a36b5 			; <UNDEFINED> instruction: 0x500a36b5
    abec:	f80ca696 			; <UNDEFINED> instruction: 0xf80ca696
    abf0:	92f33e62 	rscsls	r3, r3, #1568	; 0x620
    abf4:	9a02ce90 	bls	be63c <ZAG+0xb0824>
    abf8:	44f58c85 	ldrbtmi	r8, [r5], #3205	; 0xc85
    abfc:	272eedb0 			; <UNDEFINED> instruction: 0x272eedb0
    ac00:	670b38bc 			; <UNDEFINED> instruction: 0x670b38bc
    ac04:	889a54e4 	ldmhi	sl, {r2, r5, r6, r7, sl, ip, lr}
    ac08:	2e45051d 	mcrcs	5, 2, r0, cr5, cr13, {0}
    ac0c:	c2a8051c 	adcgt	r0, r8, #28, 10	; 0x7000000
    ac10:	be59ca0f 	vnmlslt.f32	s25, s18, s30
    ac14:	08f255d0 	ldmeq	r2!, {r4, r6, r7, r8, sl, ip, lr}^
    ac18:	1d81044b 	cfstrsne	mvf0, [r1, #300]	; 0x12c
    ac1c:	fef4e060 	cdp2	0, 15, cr14, cr4, cr0, {3}
    ac20:	b793942a 	ldrlt	r9, [r3, sl, lsr #8]
    ac24:	aba115ce 	blge	fe850364 <end+0xbe750364>
    ac28:	66198823 	ldrvs	r8, [r9], -r3, lsr #16
    ac2c:	23b063de 	movscs	r6, #2013265923	; 0x78000003
    ac30:	3fb96390 	svccc	0x00b96390
    ac34:	f8dbb053 			; <UNDEFINED> instruction: 0xf8dbb053
    ac38:	eaf1f8f1 	b	ffc89004 <end+0xbfb89004>
    ac3c:	725fcc9d 	subsvc	ip, pc, #40192	; 0x9d00
    ac40:	0eeb3874 	mcreq	8, 7, r3, cr11, cr4, {3}
    ac44:	1587c336 	strne	ip, [r7, #822]	; 0x336
    ac48:	77d3aa9e 	bfivc	sl, lr, (invalid: 21:19)
    ac4c:	53b32915 			; <UNDEFINED> instruction: 0x53b32915
    ac50:	4e1c2356 	mrcmi	3, 0, r2, cr12, cr6, {2}
    ac54:	11294346 	teqne	r9, r6, asr #6
    ac58:	40e3c32e 	rscmi	ip, r3, lr, lsr #6
    ac5c:	9ce963a3 	stclls	3, cr6, [r9], #652	; 0x28c
    ac60:	2bb7bdd8 	blcs	fedfa3c8 <end+0xbecfa3c8>
    ac64:	c75cf2cb 	ldrbgt	pc, [ip, -fp, asr #5]	; <UNPREDICTABLE>
    ac68:	2a1ace2d 	bcs	6be524 <ZAG+0x6b070c>
    ac6c:	fc9a528d 	ldc2	2, cr5, [sl], {141}	; 0x8d
    ac70:	479d1255 			; <UNDEFINED> instruction: 0x479d1255
    ac74:	0b96f940 	bleq	fe5c917c <end+0xbe4c917c>
    ac78:	7394424d 	orrsvc	r4, r4, #-805306364	; 0xd0000004
    ac7c:	f8d314e7 			; <UNDEFINED> instruction: 0xf8d314e7
    ac80:	d53f4bb5 	ldrle	r4, [pc, #-2997]!	; a0d3 <jpegdata+0x7d23>
    ac84:	b8f1b825 	ldmlt	r1!, {r0, r2, r5, fp, ip, sp, pc}^
    ac88:	23d520dc 	bicscs	r2, r5, #220	; 0xdc
    ac8c:	df90713f 	svcle	0x0090713f
    ac90:	3bb52aab 	blcc	fed55744 <end+0xbec55744>
    ac94:	06dd3fe5 	ldrbeq	r3, [sp], r5, ror #31
    ac98:	7123488c 	smlawbvc	r3, ip, r8, r4
    ac9c:	aad41c20 	bge	ff511d24 <end+0xbf411d24>
    aca0:	6dc426cb 	stclvs	6, cr2, [r4, #812]	; 0x32c
    aca4:	ed2300ff 	stc	0, cr0, [r3, #-1020]!	; 0xfffffc04
    aca8:	f24e60f9 	vqadd.s8	q11, q15, <illegal reg q12.5>
    acac:	bc76dced 	ldcllt	12, cr13, [r6], #-948	; 0xfffffc4c
    acb0:	6f8fb54d 	svcvs	0x008fb54d
    acb4:	2a572a59 	bcs	15d5620 <ZAG+0x15c7808>
    acb8:	8a1053ad 	bhi	41fb74 <ZAG+0x411d5c>
    acbc:	54d9c994 	ldrbpl	ip, [r9], #2452	; 0x994
    acc0:	cd62700c 	stclgt	0, cr7, [r2, #-48]!	; 0xffffffd0
    acc4:	466cc19c 			; <UNDEFINED> instruction: 0x466cc19c
    acc8:	e95697c8 	ldmdb	r6, {r3, r6, r7, r8, r9, sl, ip, pc}^
    accc:	c0ab8457 	adcgt	r8, fp, r7, asr r4
    acd0:	6faee556 	svcvs	0x00aee556
    acd4:	a342feb9 	movtge	pc, #11961	; 0x2eb9	; <UNPREDICTABLE>
    acd8:	4e61875b 	mcrmi	7, 3, r8, cr1, cr11, {2}
    acdc:	907aa15a 	rsbsls	sl, sl, sl, asr r1
    ace0:	f3943344 			; <UNDEFINED> instruction: 0xf3943344
    ace4:	9169555c 	cmnls	r9, ip, asr r5
    ace8:	20603221 	rsbcs	r3, r0, r1, lsr #4
    acec:	970d00ff 			; <UNDEFINED> instruction: 0x970d00ff
    acf0:	1ac79baf 	bne	ff1f1bb4 <end+0xbf0f1bb4>
    acf4:	8e4fa99f 	mcrhi	9, 2, sl, cr15, cr15, {4}
    acf8:	48b914e5 	ldmmi	r9!, {r0, r2, r5, r6, r7, sl, ip}
    acfc:	3976a123 	ldmdbcc	r6!, {r0, r1, r5, r8, sp, pc}^
    ad00:	56525e60 	ldrbpl	r5, [r2], -r0, ror #28
    ad04:	9358d68d 	cmpls	r8, #147849216	; 0x8d00000
    ad08:	28b3c8bb 	ldmcs	r3!, {r0, r1, r3, r4, r5, r7, fp, lr, pc}
    ad0c:	76e23190 	usatvc	r3, #2, r0, lsl #3
    ad10:	e1867ddb 	ldrd	r7, [r6, fp]
    ad14:	da4e07d8 	ble	138cc7c <ZAG+0x137ee64>
    ad18:	d6f1caa5 	ldrbtle	ip, [r1], r5, lsr #21
    ad1c:	61f2e8d4 	ldrsbvs	lr, [r2, #132]!	; 0x84
    ad20:	c62eb05a 			; <UNDEFINED> instruction: 0xc62eb05a
    ad24:	92c438a5 	sbcls	r3, r4, #10813440	; 0xa50000
    ad28:	906224d3 	ldrdls	r2, [r2], #-67	; 0xffffffbd	; <UNPREDICTABLE>
    ad2c:	52b533e7 	adcspl	r3, r5, #-1677721597	; 0x9c000003
    ad30:	0c964b25 	fldmiaxeq	r6, {d4-d21}	;@ Deprecated
    ad34:	dcf2ad44 	ldclle	13, cr10, [r2], #272	; 0x110
    ad38:	d63ba5d5 			; <UNDEFINED> instruction: 0xd63ba5d5
    ad3c:	afdaedbe 	svcge	0x00daedbe
    ad40:	5255214d 	subspl	r2, r5, #1073741843	; 0x40000013
    ad44:	8a4196a0 	bhi	10707cc <ZAG+0x10629b4>
    ad48:	532d4689 	teqpl	sp, #143654912	; 0x8900000
    ad4c:	86d4f8e9 	ldrbhi	pc, [r4], r9, ror #17	; <UNPREDICTABLE>
    ad50:	1f0e1dc9 	svcne	0x000e1dc9
    ad54:	a12bd11f 	teqge	fp, pc, lsl r1
    ad58:	66c0aa16 			; <UNDEFINED> instruction: 0x66c0aa16
    ad5c:	4440c5ab 	strbmi	ip, [r0], #-1451	; 0x5ab
    ad60:	b588e7f6 	strlt	lr, [r8, #2038]	; 0x7f6
    ad64:	d452f178 	ldrble	pc, [r2], #-376	; 0x178	; <UNPREDICTABLE>
    ad68:	15bc2759 	ldrne	r2, [ip, #1881]!	; 0x759
    ad6c:	4f823258 	svcmi	0x00823258
    ad70:	3e878302 	cdpcc	3, 8, cr8, cr7, cr2, {0}
    ad74:	914e6e27 	cmpls	lr, r7, lsr #28
    ad78:	29d43c71 	ldmibcs	r4, {r0, r4, r5, r6, sl, fp, ip, sp}^
    ad7c:	5f765e8e 	svcpl	0x00765e8e
    ad80:	2f74f073 	svccs	0x0074f073
    ad84:	532beeae 	teqpl	fp, #2784	; 0xae0
    ad88:	56b6fba7 	ldrtpl	pc, [r6], r7, lsr #23	; <UNPREDICTABLE>
    ad8c:	bef5a86a 	cdplt	8, 15, cr10, cr5, cr10, {3}
    ad90:	9087793a 	addls	r7, r7, sl, lsr r9
    ad94:	4fb61055 	svcmi	0x00b61055
    ad98:	21497cf2 	strdcs	r7, [r9, #-194]	; 0xffffff3e
    ad9c:	12615780 	rsbne	r5, r1, #128, 14	; 0x2000000
    ada0:	bbb2e3e8 	bllt	fecc3d48 <end+0xbebc3d48>
    ada4:	d383fe6a 	orrle	pc, r3, #1696	; 0x6a0
    ada8:	a7b2b4b7 			; <UNDEFINED> instruction: 0xa7b2b4b7
    adac:	a3516951 	cmpge	r1, #1327104	; 0x144000
    adb0:	2a468549 	bcs	11ac2dc <ZAG+0x119e4c4>
    adb4:	655a4115 	ldrbvs	r4, [sl, #-277]	; 0x115
    adb8:	1a276472 	bne	9e3f88 <ZAG+0x9d6170>
    adbc:	0e6658a1 	cdpeq	8, 6, cr5, cr6, cr1, {5}
    adc0:	b199112c 	orrslt	r1, r9, ip, lsr #2
    adc4:	d7b85834 			; <UNDEFINED> instruction: 0xd7b85834
    adc8:	cf3419d5 	svcgt	0x003419d5
    adcc:	387c7c52 	ldmdacc	ip!, {r1, r4, r6, sl, fp, ip, sp, lr}^
    add0:	dbed9383 	blle	ffb6fbe4 <end+0xbfa6fbe4>
    add4:	7aad9c4c 	bvc	feb71f0c <end+0xbea71f0c>
    add8:	68c9d72e 	stmiavs	r9, {r1, r2, r3, r5, r8, r9, sl, ip, lr, pc}^
    addc:	eebe47d4 	mrc	7, 5, r4, cr14, cr4, {6}
    ade0:	304780a5 	subcc	r8, r7, r5, lsr #1
    ade4:	c6dc38ab 	ldrbgt	r3, [ip], fp, lsr #17
    ade8:	0aeba454 	beq	ffaf3f40 <end+0xbf9f3f40>
    adec:	00ff4a12 	rscseq	r4, pc, r2, lsl sl	; <UNPREDICTABLE>
    adf0:	44d7c60f 	ldrbmi	ip, [r7], #1551	; 0x60f
    adf4:	c5ad3c16 	strgt	r3, [sp, #3094]!	; 0xc16
    adf8:	9315d540 	tstls	r5, #64, 10	; 0x10000000
    adfc:	288a1937 	stmcs	sl, {r0, r1, r2, r4, r5, r8, fp, ip}
    ae00:	3abd32d8 	bcc	fef57968 <end+0xbee57968>
    ae04:	61bec46c 			; <UNDEFINED> instruction: 0x61bec46c
    ae08:	191f81aa 	ldmdbne	pc, {r1, r3, r5, r7, r8, pc}	; <UNPREDICTABLE>
    ae0c:	5ce55351 	stclpl	3, cr5, [r5], #324	; 0x144
    ae10:	7a0a04aa 	bvc	28c0c0 <ZAG+0x27e2a8>
    ae14:	4b3c6a9d 	blmi	f25890 <ZAG+0xf17a78>
    ae18:	aa54897f 	bge	152d41c <ZAG+0x151f604>
    ae1c:	8c5f2029 	mrrchi	0, 2, r2, pc, cr9	; <UNPREDICTABLE>
    ae20:	4cc62404 	cfstrdmi	mvd2, [r6], {4}
    ae24:	004d914f 	subeq	r9, sp, pc, asr #2
    ae28:	f0862657 			; <UNDEFINED> instruction: 0xf0862657
    ae2c:	7ad21975 	bvc	ff491408 <end+0xbf391408>
    ae30:	cdf91884 	ldclgt	8, cr1, [r9, #528]!	; 0x210
    ae34:	2f960cea 	svccs	0x00960cea
    ae38:	e331971d 	teq	r1, #7602176	; 0x740000
    ae3c:	c79de9b1 			; <UNDEFINED> instruction: 0xc79de9b1
    ae40:	7bbd9296 	blvc	fef6f8a0 <end+0xbee6f8a0>
    ae44:	3866c7d2 	stmdacc	r6!, {r1, r4, r6, r7, r8, r9, sl, lr, pc}^
    ae48:	814656e4 	smlaltthi	r5, r6, r4, r6
    ae4c:	30588de4 	subscc	r8, r8, r4, ror #27
    ae50:	2745ee75 	smlsldxcs	lr, r5, r5, lr
    ae54:	0fd9af0f 	svceq	0x00d9af0f
    ae58:	2be16507 	blcs	ff86427c <end+0xbf76427c>
    ae5c:	d661a727 	strbtle	sl, [r1], -r7, lsr #14
    ae60:	d045cc4b 	suble	ip, r5, fp, asr #24
    ae64:	2edb236a 	cdpcs	3, 13, cr2, cr11, cr10, {3}
    ae68:	8ebecc4a 	cdphi	12, 11, cr12, cr14, cr10, {2}
    ae6c:	b1652032 	cmnlt	r5, r2, lsr r0
    ae70:	651920b3 	ldrvs	r2, [r9, #-179]	; 0xb3
    ae74:	2ba55306 	blcs	fe95fa94 <end+0xbe85fa94>
    ae78:	a4b7f1ce 	ldrtge	pc, [r7], #462	; 0x1ce	; <UNPREDICTABLE>
    ae7c:	b315458d 	tstlt	r5, #591396864	; 0x23400000
    ae80:	491f8920 	ldmdbmi	pc, {r5, r8, fp, pc}	; <UNPREDICTABLE>
    ae84:	b6ca1dfb 			; <UNDEFINED> instruction: 0xb6ca1dfb
    ae88:	8c8a7d24 	stchi	13, cr7, [sl], {36}	; 0x24
    ae8c:	40bf8f81 	adcsmi	r8, pc, r1, lsl #31
    ae90:	eb4d2fda 	bl	1356e00 <ZAG+0x1348fe8>
    ae94:	1cebb03e 	stclne	0, cr11, [fp], #248	; 0xf8
    ae98:	a9090f0e 	stmdbge	r9, {r1, r2, r3, r8, r9, sl, fp}
    ae9c:	8a99346d 	bhi	fe658058 <end+0xbe558058>
    aea0:	1973e4f3 	ldmdbne	r3!, {r0, r1, r4, r5, r6, r7, sl, sp, lr, pc}^
    aea4:	afa1011b 	svcge	0x00a1011b
    aea8:	4b652b14 	blmi	1955b00 <ZAG+0x1947ce8>
    aeac:	ee0959cb 	cdp	9, 0, cr5, cr9, cr11, {6}
    aeb0:	a090b46d 	addsge	fp, r0, sp, ror #8
    aeb4:	2e65b188 	lgncsd	f3, #0.0
    aeb8:	c9b7cb8b 	ldmibgt	r7!, {r0, r1, r3, r7, r8, r9, fp, lr, pc}
    aebc:	3df03dfd 	ldclcc	13, cr3, [r0, #1012]!	; 0x3f4
    aec0:	964b6da9 	strbls	r6, [fp], -r9, lsr #27
    aec4:	b56ecda2 	strblt	ip, [lr, #-3490]!	; 0xda2
    aec8:	6865d228 	stmdavs	r5!, {r3, r5, r9, ip, lr, pc}^
    aecc:	25566d20 	ldrbcs	r6, [r6, #-3360]	; 0xd20
    aed0:	3f31645e 	svccc	0x0031645e
    aed4:	2489619c 	strcs	r6, [r9], #412	; 0x19c
    aed8:	bc4f23a8 	mcrrlt	3, 10, r2, pc, cr8
    aedc:	8f707b3f 	svchi	0x00707b3f
    aee0:	7fad57c3 	svcvc	0x00ad57c3
    aee4:	88e21245 	stmiahi	r2!, {r0, r2, r6, r9, ip}^
    aee8:	b2694a54 	rsblt	r4, r9, #84, 20	; 0x54000
    aeec:	dc06a4e4 	cfstrsle	mvf10, [r6], {228}	; 0xe4
    aef0:	98599088 	ldmdals	r9, {r3, r7, ip, pc}^
    aef4:	5c66264e 	stclpl	6, cr2, [r6], #-312	; 0xfffffec8
    aef8:	8f0e4da6 	svchi	0x000e4da6
    aefc:	d3b7abfb 			; <UNDEFINED> instruction: 0xd3b7abfb
    af00:	d1539b4e 	cmple	r3, lr, asr #22
    af04:	dcf5b4b7 	cfldrdle	mvd11, [r5], #732	; 0x2dc
    af08:	e4c5ace6 	strb	sl, [r5], #3302	; 0xce6
    af0c:	25a62e86 	strcs	r2, [r6, #3718]!	; 0xe86
    af10:	d5cc908c 	strble	r9, [ip, #140]	; 0x8c
    af14:	b9a920cf 	stmiblt	r9!, {r0, r1, r2, r3, r6, r7, sp}
    af18:	39720f59 	ldmdbcc	r2!, {r0, r3, r4, r6, r8, r9, sl, fp}^
    af1c:	c5458800 	strbgt	r8, [r5, #-2048]	; 0x800
    af20:	288c5676 	stmcs	ip, {r1, r2, r4, r5, r6, r9, sl, ip, lr}
    af24:	ce6e5b3c 	vmovgt.8	d14[5], r5
    af28:	176aedbf 			; <UNDEFINED> instruction: 0x176aedbf
    af2c:	b33d1f37 	teqlt	sp, #55, 30	; 0xdc
    af30:	26052aad 	strcs	r2, [r5], -sp, lsr #21
    af34:	8f881840 	svchi	0x00881840
    af38:	95026240 	strls	r6, [r2, #-576]	; 0x240
    af3c:	66f4c9dc 	usatvs	ip, #20, ip, asr #19
    af40:	9a0f7424 	bls	3e7fd8 <ZAG+0x3da1c0>
    af44:	79e565ed 	stmibvc	r5!, {r0, r2, r3, r5, r6, r7, r8, sl, sp, lr}^
    af48:	b052e407 	subslt	lr, r2, r7, lsl #8
    af4c:	3617554a 	ldrcc	r5, [r7], -sl, asr #10
    af50:	a496117d 	ldrge	r1, [r6], #381	; 0x17d
    af54:	f2305dfb 	vmls.f<illegal width 64>	<illegal reg q2.5>, q8, <illegal reg q13.5>
    af58:	27f24eca 	ldrbcs	r4, [r2, sl, asr #29]!
    af5c:	d1a1ead8 	ldrdle	lr, [r1, r8]!
    af60:	3dd16cdd 	ldclcc	12, cr6, [r1, #884]	; 0x374
    af64:	7097d440 	addsvc	sp, r7, r0, asr #8
    af68:	163b773a 			; <UNDEFINED> instruction: 0x163b773a
    af6c:	374e2757 	smlsldcc	r2, lr, r7, r7
    af70:	86e16896 	usathi	r6, #1, r6, lsl #17
    af74:	d5111c5e 	ldrle	r1, [r1, #-3166]	; 0xc5e
    af78:	a1429619 	cmpge	r2, r9, lsl r6
    af7c:	d865721c 	stmdale	r5!, {r2, r3, r4, r9, ip, sp, lr}^
    af80:	dcf71dab 	ldclle	13, cr1, [r7], #684	; 0x2ac
    af84:	40fa3c6e 	rscsmi	r3, sl, lr, ror #24
    af88:	6c2fe2ba 	sfmvs	f6, 1, [pc], #-744	; aca8 <jpegdata+0x88f8>
    af8c:	c5c5ada8 	strbgt	sl, [r5, #3496]	; 0xda8
    af90:	09a0553c 	stmibeq	r0!, {r2, r3, r4, r5, r8, sl, ip, lr}
    af94:	f5896422 			; <UNDEFINED> instruction: 0xf5896422
    af98:	e33e3432 	teq	lr, #838860800	; 0x32000000
    af9c:	386f4b5d 	stmdacc	pc!, {r0, r2, r3, r4, r6, r8, r9, fp, lr}^	; <UNPREDICTABLE>
    afa0:	a08f434e 	addge	r4, pc, lr, asr #6
    afa4:	b15437b7 	ldrhlt	r3, [r4, #-119]	; 0xffffff89
    afa8:	89248046 	stmdbhi	r4!, {r1, r2, r6, pc}
    afac:	99082692 	stmdbls	r8, {r1, r4, r7, r9, sl, sp}
    afb0:	11d8071a 	bicsne	r0, r8, sl, lsl r7
    afb4:	03a9efe8 			; <UNDEFINED> instruction: 0x03a9efe8
    afb8:	d47dddaf 	ldrbtle	sp, [sp], #-3503	; 0xdaf
    afbc:	67bbb515 			; <UNDEFINED> instruction: 0x67bbb515
    afc0:	e0f918b3 	ldrht	r1, [r9], #131	; 0x83
    afc4:	9ec9f8d0 	mcrls	8, 6, pc, cr9, cr0, {6}	; <UNPREDICTABLE>
    afc8:	c78543a2 	strgt	r4, [r5, r2, lsr #7]
    afcc:	af66b058 	svcge	0x0066b058
    afd0:	cfab0134 	svcgt	0x00ab0134
    afd4:	403acb66 	eorsmi	ip, sl, r6, ror #22
    afd8:	b4115b26 	ldrlt	r5, [r1], #-2854	; 0xb26
    afdc:	8d013262 	sfmhi	f3, 4, [r1, #-392]	; 0xfffffe78
    afe0:	94819f65 	strls	r9, [r1], #3941	; 0xf65
    afe4:	bd997730 	ldclt	7, cr7, [r9, #192]	; 0xc0
    afe8:	a5fa1187 	ldrbge	r1, [sl, #391]!	; 0x187
    afec:	87379ec7 	ldrhi	r9, [r7, -r7, asr #29]!
    aff0:	a8ac5a75 	stmiage	ip!, {r0, r2, r4, r5, r6, r9, fp, ip, lr}
    aff4:	4447ade2 	strbmi	sl, [r7], #-3554	; 0xde2
    aff8:	4f3e5d61 	svcmi	0x003e5d61
    affc:	c4d1d8fe 	ldrbgt	sp, [r1], #2302	; 0x8fe
    b000:	3df129d5 	ldclcc	9, cr2, [r1, #852]!	; 0x354
    b004:	16229f4a 	strtne	r9, [r2], -sl, asr #30
    b008:	d5465249 	strble	r5, [r6, #-585]	; 0x249
    b00c:	0db4a2d7 	lfmeq	f2, 1, [r4, #860]!	; 0x35c
    b010:	f9d56ccf 			; <UNDEFINED> instruction: 0xf9d56ccf
    b014:	482281ee 	stmdami	r2!, {r1, r2, r3, r5, r6, r7, r8, pc}
    b018:	0323012a 	teqeq	r3, #-2147483638	; 0x8000000a
    b01c:	380dd48c 	stmdacc	sp, {r2, r3, r7, sl, ip, lr, pc}
    b020:	89519083 	ldmdbhi	r1, {r0, r1, r7, ip, pc}^
    b024:	1213c100 	andsne	ip, r3, #0, 2
    b028:	387d400f 	ldmdacc	sp!, {r0, r1, r2, r3, lr}^
    b02c:	93fa56d7 	mvnsls	r5, #225443840	; 0xd700000
    b030:	6a53c78d 	bvs	14fce6c <ZAG+0x14ef054>
    b034:	c2d4ead8 	sbcsgt	lr, r4, #216, 20	; 0xd8000
    b038:	a8d2f52c 	ldmge	r2, {r2, r3, r5, r8, sl, ip, sp, lr, pc}^
    b03c:	ee625854 	mcr	8, 3, r5, cr2, cr4, {2}
    b040:	c65c894e 	ldrbgt	r8, [ip], -lr, asr #18
    b044:	8e239e8a 	cdphi	14, 2, cr9, cr3, cr10, {4}
    b048:	477c4e25 	ldrbmi	r4, [ip, -r5, lsr #28]!
    b04c:	90dc0932 	sbcsls	r0, ip, r2, lsr r9
    b050:	0eee9558 	mcreq	5, 7, r9, cr14, cr8, {2}
    b054:	3dfdb0d9 	ldclcc	0, cr11, [sp, #868]!	; 0x364
    b058:	f9e3be4b 			; <UNDEFINED> instruction: 0xf9e3be4b
    b05c:	f8b8d46a 			; <UNDEFINED> instruction: 0xf8b8d46a
    b060:	233e37c5 	teqcs	lr, #51642368	; 0x3140000
    b064:	35902237 	ldrcc	r2, [r0, #567]	; 0x237
    b068:	aafc4146 	bge	fff1b588 <end+0xbfe1b588>
    b06c:	6423fe54 	strtvs	pc, [r3], #-3668	; 0xe54
    b070:	592223d5 	stmdbpl	r2!, {r0, r2, r4, r6, r7, r8, r9, sp}
    b074:	933a9058 	teqls	sl, #88	; 0x58
    b078:	dd97f25f 	lfmle	f7, 1, [r7, #380]	; 0x17c
    b07c:	765bc9e7 	ldrbvc	ip, [fp], -r7, ror #19
    b080:	3f4a44c9 	svccc	0x004a44c9
    b084:	3e186031 	mrccc	0, 0, r6, cr8, cr1, {1}
    b088:	25b61095 	ldrcs	r1, [r6, #149]!	; 0x95
    b08c:	832b8095 	teqhi	fp, #149	; 0x95
    b090:	185c5530 	ldmdane	ip, {r4, r5, r8, sl, ip, lr}^
    b094:	4cb2a000 	ldcmi	0, cr10, [r2]
    b098:	d49be687 	ldrle	lr, [fp], #1671	; 0x687
    b09c:	e158f98c 	cmp	r8, ip, lsl #19
    b0a0:	8dda5a37 	vldrhi	s11, [sl, #220]	; 0xdc
    b0a4:	cb85c8ab 	blgt	fe17d358 <end+0xbe07d358>
    b0a8:	6fe0cf18 	svcvs	0x00e0cf18
    b0ac:	6ee0f3bf 	mcrvs	3, 7, pc, cr0, cr15, {5}	; <UNPREDICTABLE>
    b0b0:	3f00ff7c 	svccc	0x0000ff7c
    b0b4:	82b9fece 	adcshi	pc, r9, #3296	; 0xce0
    b0b8:	b498e7de 	ldrlt	lr, [r8], #2014	; 0x7de
    b0bc:	e4bbb6bd 	ldrt	fp, [fp], #1725	; 0x6bd
    b0c0:	257461c3 	ldrbcs	r6, [r4, #-451]!	; 0x1c3
    b0c4:	c0040b75 	andgt	r0, r4, r5, ror fp
    b0c8:	1b15a32a 	blne	573d78 <ZAG+0x565f60>
    b0cc:	0c7de800 	ldcleq	8, cr14, [sp], #-0
    b0d0:	ab431e08 	blge	10d28f8 <ZAG+0x10c4ae0>
    b0d4:	455c4a9d 	ldrbmi	r4, [ip, #-2717]	; 0xa9d
    b0d8:	a7cda5dd 			; <UNDEFINED> instruction: 0xa7cda5dd
    b0dc:	d45eca18 	ldrble	ip, [lr], #-2584	; 0xa18
    b0e0:	04266fc3 	strteq	r6, [r6], #-4035	; 0xfc3
    b0e4:	e4982109 	ldr	r2, [r8], #265	; 0x109
    b0e8:	9f2452c7 	svcls	0x002452c7
    b0ec:	542648ad 	strtpl	r4, [r6], #-2221	; 0x8ad
    b0f0:	6eeafdf5 	mcrvs	13, 7, pc, cr10, cr5, {7}	; <UNPREDICTABLE>
    b0f4:	a6715d8f 	ldrbtge	r5, [r1], -pc, lsl #27
    b0f8:	dae5c527 	ble	ff97c59c <end+0xbf87c59c>
    b0fc:	c17c2b38 	cmngt	ip, r8, lsr fp
    b100:	96e11634 			; <UNDEFINED> instruction: 0x96e11634
    b104:	1b2bd843 	blne	b01218 <ZAG+0xaf3400>
    b108:	0531a5f6 	ldreq	sl, [r1, #-1526]!	; 0x5f6
    b10c:	8d349821 	ldchi	8, cr9, [r4, #-132]!	; 0xffffff7c
    b110:	2a405219 	bcs	101f97c <ZAG+0x1011b64>
    b114:	712b83c5 	smlawtvc	fp, r5, r3, r8
    b118:	eeb25951 	mrc	9, 5, r5, cr2, cr1, {2}
    b11c:	74af7d0a 	strtvc	r7, [pc], #3338	; b124 <jpegdata+0x8d74>
    b120:	1612a89c 			; <UNDEFINED> instruction: 0x1612a89c
    b124:	b32c3024 	teqlt	ip, #36	; 0x24
    b128:	110b09b0 			; <UNDEFINED> instruction: 0x110b09b0
    b12c:	00ad9204 	adceq	r9, sp, r4, lsl #4
    b130:	c0248883 	eorgt	r8, r4, r3, lsl #17
    b134:	73bf9d91 			; <UNDEFINED> instruction: 0x73bf9d91
    b138:	ad726973 	ldclge	9, cr6, [r2, #-460]!	; 0xfffffe34
    b13c:	daf00e6f 	ble	ffc0eb00 <end+0xbfb0eb00>
    b140:	0f0bb280 	svceq	0x000bb280
    b144:	503a2d19 	eorspl	r2, sl, r9, lsl sp
    b148:	d400ff0c 	strle	pc, [r0], #-3852	; 0xf0c
    b14c:	7a52880f 	bvc	14ad190 <ZAG+0x149f378>
    b150:	860eea45 	strhi	lr, [lr], -r5, asr #20
    b154:	eaacad57 	b	feb366b8 <end+0xbea366b8>
    b158:	6176dce9 	cmnvs	r6, r9, ror #25
    b15c:	9251ef22 	subsls	lr, r1, #34, 30	; 0x88
    b160:	2a17cbdd 	bcs	5fe0dc <ZAG+0x5f02c4>
    b164:	2e1b57ce 	cdpcs	7, 1, cr5, cr11, cr14, {6}
    b168:	d246d0ce 	suble	sp, r6, #206	; 0xce
    b16c:	379ec008 	ldrcc	ip, [lr, r8]
    b170:	c4ee633c 	strbtgt	r6, [lr], #828	; 0x33c
    b174:	8c5d2537 	cfldr64hi	mvdx2, [sp], {55}	; 0x37
    b178:	d528db49 	strle	sp, [r8, #-2889]!	; 0xb49
    b17c:	4ad5af4b 	bmi	ff576eb0 <end+0xbf476eb0>
    b180:	c82b17f6 	stmdagt	fp!, {r1, r2, r4, r5, r6, r7, r8, r9, sl, ip}
    b184:	d3aadcdd 			; <UNDEFINED> instruction: 0xd3aadcdd
    b188:	cab4ca70 	bgt	fed3db50 <end+0xbec3db50>
    b18c:	677c0ab1 			; <UNDEFINED> instruction: 0x677c0ab1
    b190:	95314b48 	ldrls	r4, [r1, #-2888]!	; 0xb48
    b194:	10273104 	eorne	r3, r7, r4, lsl #2
    b198:	0ec840c4 	cdpeq	0, 12, cr4, cr8, cr4, {6}
    b19c:	4beeb89d 	blmi	ffbb9418 <end+0xbfab9418>
    b1a0:	fcaebb94 	stc2	11, cr11, [lr], #592	; 0x250
    b1a4:	83a97ca1 			; <UNDEFINED> instruction: 0x83a97ca1
    b1a8:	0000d38a 	andeq	sp, r0, sl, lsl #7
    b1ac:	7e0e8454 	cfmvsrvc	mvf14, r8
    b1b0:	e632acbf 			; <UNDEFINED> instruction: 0xe632acbf
    b1b4:	67158fb9 			; <UNDEFINED> instruction: 0x67158fb9
    b1b8:	591dcc40 	ldmdbpl	sp, {r6, sl, fp, lr, pc}
    b1bc:	d3c3ba30 	bicle	fp, r3, #48, 20	; 0x30000
    b1c0:	d0351d1a 	eorsle	r1, r5, sl, lsl sp
    b1c4:	0e554d19 	mrceq	13, 2, r4, cr5, cr9, {0}
    b1c8:	f2fa1a1f 	vshll.s32	d17, <illegal reg q7.5>, #26
    b1cc:	9f8b490a 	svcls	0x008b490a
    b1d0:	3772e151 			; <UNDEFINED> instruction: 0x3772e151
    b1d4:	747c56ec 	ldrbtvc	r5, [ip], #-1772	; 0x6ec
    b1d8:	866ab4a2 	strbthi	fp, [sl], -r2, lsr #9
    b1dc:	88caf1bc 	stmiahi	sl, {r2, r3, r4, r5, r7, r8, ip, sp, lr, pc}^
    b1e0:	4e6e5eec 	cdpmi	14, 6, cr5, cr14, cr12, {7}
    b1e4:	fc4614bf 	mcrr2	4, 11, r1, r6, cr15
    b1e8:	f03bb378 			; <UNDEFINED> instruction: 0xf03bb378
    b1ec:	ef567b23 	svc	0x00567b23
    b1f0:	e3eeef81 	mvn	lr, #516	; 0x204
    b1f4:	24b13e6e 	ldrtcs	r3, [r1], #3694	; 0xe6e
    b1f8:	211e57ae 	tstcs	lr, lr, lsr #15
    b1fc:	0066273e 	rsbeq	r2, r6, lr, lsr r7
    b200:	e56273e4 	strb	r7, [r2, #-996]!	; 0x3e4
    b204:	14429c91 	strbne	r9, [r2], #-3217	; 0xc91
    b208:	8a5ad165 	bhi	16bf7a4 <ZAG+0x16b198c>
    b20c:	bf537a55 	svclt	0x00537a55
    b210:	abc7ed66 	blge	ff2067b0 <end+0xbf1067b0>
    b214:	f1d4f1ca 			; <UNDEFINED> instruction: 0xf1d4f1ca
    b218:	18e4dcf9 	stmiane	r4!, {r0, r3, r4, r5, r6, r7, sl, fp, ip, lr, pc}^
    b21c:	5363b8b2 	cmnpl	r3, #11665408	; 0xb20000
    b220:	d93468e4 	ldmdble	r4!, {r2, r5, r6, r7, fp, sp, lr}
    b224:	27105b61 	ldrcs	r5, [r0, -r1, ror #22]
    b228:	029f822c 	addseq	r8, pc, #44, 4	; 0xc0000002
    b22c:	f69f100c 			; <UNDEFINED> instruction: 0xf69f100c
    b230:	331bd3df 	tstcc	fp, #2080374787	; 0x7c000003
    b234:	69ab6c6a 	stmibvs	fp!, {r1, r3, r5, r6, sl, fp, sp, lr}
    b238:	6b5770b8 	blvs	15e7520 <ZAG+0x15d9708>
    b23c:	6ca2d9e0 	stcvs	9, cr13, [r2], #896	; 0x380
    b240:	4133b5a5 	teqmi	r3, r5, lsr #11
    b244:	14416469 	strbne	r6, [r1], #-1129	; 0x469
    b248:	29acf12b 	stmibcs	ip!, {r0, r1, r3, r5, r8, ip, sp, lr, pc}
    b24c:	09c24712 	stmibeq	r2, {r1, r4, r8, r9, sl, lr}^
    b250:	0ee0595d 	mcreq	9, 7, r5, cr0, cr13, {2}
    b254:	7100ff0b 	tstvc	r0, fp, lsl #30
    b258:	59aa1081 	stmibpl	sl!, {r0, r7, ip}
    b25c:	ed9ef7bb 	ldc	7, cr15, [lr, #748]	; 0x2ec
    b260:	a8e3cf8e 	stmiage	r3!, {r1, r2, r3, r7, r8, r9, sl, fp, lr, pc}^
    b264:	aa453db7 	bge	115a948 <ZAG+0x114cb30>
    b268:	69a16225 	stmibvs	r1!, {r0, r2, r5, r9, sp, lr}
    b26c:	d3548c00 	cmple	r4, #0, 24
    b270:	2f4bc858 	svccs	0x004bc858
    b274:	7c5608d2 	mrrcvc	8, 13, r0, r6, cr2
    b278:	25abb6d9 	strcs	fp, [fp, #1753]!	; 0x6d9
    b27c:	2cd81b7a 	vldmiacs	r8, {d17-<overflow reg d77>}
    b280:	54a992c3 	strtpl	r9, [r9], #707	; 0x2c3
    b284:	4608a8b3 			; <UNDEFINED> instruction: 0x4608a8b3
    b288:	4b86cc48 	blmi	fe1be3b0 <end+0xbe0be3b0>
    b28c:	65950029 	ldrvs	r0, [r5, #41]	; 0x29
    b290:	f5986030 			; <UNDEFINED> instruction: 0xf5986030
    b294:	381d89a9 	ldmdacc	sp, {r0, r3, r5, r7, r8, fp, pc}
    b298:	0f6b3af0 	svceq	0x006b3af0
    b29c:	342aad43 	strtcc	sl, [sl], #-3395	; 0xd43
    b2a0:	813f1d92 			; <UNDEFINED> instruction: 0x813f1d92
    b2a4:	0b790cad 	bleq	1e4e560 <ZAG+0x1e40748>
    b2a8:	408a9e6b 	addmi	r9, sl, fp, ror #28
    b2ac:	57e17c71 			; <UNDEFINED> instruction: 0x57e17c71
    b2b0:	51480ab1 	strhpl	r0, [r8, #-161]	; 0xffffff5f
    b2b4:	491099a4 	ldmdbmi	r0, {r2, r5, r7, r8, fp, ip, pc}
    b2b8:	2b0a59da 	blcs	2a1a28 <ZAG+0x293c10>
    b2bc:	07eee013 			; <UNDEFINED> instruction: 0x07eee013
    b2c0:	bcbfb975 	ldclt	9, cr11, [pc], #468	; b49c <jpegdata+0x90ec>
    b2c4:	e388227b 	orr	r2, r8, #-1342177273	; 0xb0000007
    b2c8:	bdb490d7 	ldclt	0, cr9, [r4, #860]!	; 0x35c
    b2cc:	0ff7f6a6 	svceq	0x00f7f6a6
    b2d0:	bdc452f1 	sfmlt	f5, 2, [r4, #964]	; 0x3c4
    b2d4:	0a96dc4c 	beq	fe5c240c <end+0xbe4c240c>
    b2d8:	402df1ab 	eormi	pc, sp, fp, lsr #3
    b2dc:	cc3ea164 	ldfgtd	f2, [lr], #-400	; 0xfffffe70
    b2e0:	47cb277d 			; <UNDEFINED> instruction: 0x47cb277d
    b2e4:	4df76ba4 	ldclmi	11, cr6, [r7, #656]!	; 0x290
    b2e8:	e30e8e6b 	movw	r8, #61035	; 0xee6b
    b2ec:	bd9b5efc 	ldclt	14, cr5, [fp, #1008]	; 0x3f0
    b2f0:	d3ac646a 			; <UNDEFINED> instruction: 0xd3ac646a
    b2f4:	8042f959 	subhi	pc, r2, r9, asr r9	; <UNPREDICTABLE>
    b2f8:	fb80eaca 	blx	fe045e2a <end+0xbdf45e2a>
    b2fc:	5e2eca3e 	mcrpl	10, 1, ip, cr14, cr14, {1}
    b300:	08138540 	ldmdaeq	r3, {r6, r8, sl, pc}
    b304:	69457508 	stmdbvs	r5, {r3, r8, sl, ip, sp, lr}^
    b308:	e2512e75 	subs	r2, r1, #1872	; 0x750
    b30c:	462652d3 			; <UNDEFINED> instruction: 0x462652d3
    b310:	49ce693b 	stmibmi	lr, {r0, r1, r3, r4, r5, r8, fp, sp, lr}^
    b314:	a8e18144 	stmiage	r1!, {r2, r6, r8, pc}^
    b318:	e226a7fb 	eor	sl, r6, #65798144	; 0x3ec0000
    b31c:	43ec0448 	mvnmi	r0, #72, 8	; 0x48000000
    b320:	4b6e0470 	blmi	1b8c4e8 <ZAG+0x1b7e6d0>
    b324:	0472cb93 	ldrbteq	ip, [r2], #-2963	; 0xb93
    b328:	69e08d9f 	stmibvs	r0!, {r0, r1, r2, r3, r4, r7, r8, sl, fp, pc}^
    b32c:	15379671 	ldrne	r9, [r7, #-1649]!	; 0x671
    b330:	59ab9ebb 	stmibpl	fp!, {r0, r1, r3, r4, r5, r7, r9, sl, fp, ip, pc}
    b334:	c707a455 	smlsdgt	r7, r5, r4, sl
    b338:	7536e94d 	ldrvc	lr, [r6, #-2381]!	; 0x94d
    b33c:	0f2054a4 	svceq	0x002054a4
    b340:	8f29ab4c 	svchi	0x0029ab4c
    b344:	95a854c8 	strls	r5, [r8, #1224]!	; 0x4c8
    b348:	2b313512 	blcs	c58798 <ZAG+0xc4a980>
    b34c:	93e76abe 	mvnls	r6, #778240	; 0xbe000
    b350:	b5950de5 	ldrlt	r0, [r5, #3557]	; 0xde5
    b354:	6afb896a 	bvs	ffeed904 <end+0xbfded904>
    b358:	13e15b49 	mvnne	r5, #74752	; 0x12400
    b35c:	75c8a542 	strbvc	sl, [r8, #1346]	; 0x542
    b360:	bb9aa2ae 	bllt	fe6b3e20 <end+0xbe5b3e20>
    b364:	f235bd2a 	vsub.f<illegal width 64>	d11, d5, d26
    b368:	8a50ab55 	bhi	14360c4 <ZAG+0x14282ac>
    b36c:	29c43798 	stmibcs	r4, {r3, r4, r7, r8, r9, sl, ip, sp}^
    b370:	8bd47a9b 	blhi	ff529de4 <end+0xbf429de4>
    b374:	ea410333 	b	104c048 <ZAG+0x103e230>
    b378:	fcd2739d 	ldc2l	3, cr7, [r2], {157}	; 0x9d
    b37c:	8a760c3d 	bhi	1d8e478 <ZAG+0x1d80660>
    b380:	e9c491fe 	stmib	r4, {r1, r2, r3, r4, r5, r6, r7, r8, ip, pc}^
    b384:	375b99fb 	smmlsrcc	fp, fp, r9, r9
    b388:	ad986fb3 	ldcge	15, cr6, [r8, #716]	; 0x2cc
    b38c:	8d2eb271 	sfmhi	f3, 1, [lr, #-452]!	; 0xfffffe3c
    b390:	440d4814 	strmi	r4, [sp], #-2068	; 0x814
    b394:	919976ef 	orrsls	r7, r9, pc, ror #13
    b398:	435e91e1 	cmpmi	lr, #1073741880	; 0x40000038
    b39c:	2b5934c6 	blcs	16586bc <ZAG+0x164a8a4>
    b3a0:	b732d38e 	ldrlt	sp, [r2, -lr, lsl #7]!
    b3a4:	ee8f8371 	mcr	3, 4, r8, cr15, cr1, {3}
    b3a8:	b72f8ecb 	strlt	r8, [pc, -fp, asr #29]!
    b3ac:	9c5b3a2b 	mrrcls	10, 2, r3, fp, cr11
    b3b0:	804a5481 	subhi	r5, sl, r1, lsl #9
    b3b4:	1ca867c8 	stcne	7, cr6, [r8], #800	; 0x320
    b3b8:	0cac2086 	stceq	0, cr2, [ip], #536	; 0x218
    b3bc:	64793d55 	ldrbtvs	r3, [r9], #-3413	; 0xd55
    b3c0:	a927f547 	stmdbge	r7!, {r0, r1, r2, r6, r8, sl, ip, sp, lr, pc}
    b3c4:	17f26de7 	ldrbne	r6, [r2, r7, ror #27]!
    b3c8:	6b61d17d 	blvs	187f9c4 <ZAG+0x1871bac>
    b3cc:	77ba9d5f 	sbfxvc	r9, pc, #26, #27
    b3d0:	56785a7b 			; <UNDEFINED> instruction: 0x56785a7b
    b3d4:	2ccdd46a 	cfstrdcs	mvd13, [sp], {106}	; 0x6a
    b3d8:	83379b16 	teqhi	r7, #22528	; 0x5800
    b3dc:	87c8953e 			; <UNDEFINED> instruction: 0x87c8953e
    b3e0:	0067cbc9 	rsbeq	ip, r7, r9, asr #23
    b3e4:	517948b5 	ldrhpl	r4, [r9, #-133]!	; 0xffffff7b
    b3e8:	8bb794a3 	blhi	fedf067c <end+0xbecf067c>
    b3ec:	9c341ad3 	ldcls	10, cr1, [r4], #-844	; 0xfffffcb4
    b3f0:	4c929a4e 	vldmiami	r2, {s18-s95}
    b3f4:	229f2c92 	addscs	r2, pc, #37376	; 0x9200
    b3f8:	f2342bdc 	vpadd.i<illegal width 64>	q1, q10, q6
    b3fc:	546459ce 	strbtpl	r5, [r4], #-2510	; 0x9ce
    b400:	b41b1088 	ldrlt	r1, [fp], #-136	; 0x88
    b404:	8e51ae8c 	cdphi	14, 5, cr10, cr1, cr12, {4}
    b408:	ff8d37db 			; <UNDEFINED> instruction: 0xff8d37db
    b40c:	2d741e00 	ldclcs	14, cr1, [r4, #-0]
    b410:	ee9fabbb 	vmov.u16	sl, d31[0]
    b414:	62fc36fa 	rscsvs	r3, ip, #262144000	; 0xfa00000
    b418:	1b058a5c 	blne	16dd90 <ZAG+0x15ff78>
    b41c:	a2dab52a 	sbcsge	fp, sl, #176160768	; 0xa800000
    b420:	c41700d1 	ldrgt	r0, [r7], #-209	; 0xd1
    b424:	28ac696e 	stmiacs	ip!, {r1, r2, r3, r5, r6, r8, fp, sp, lr}
    b428:	ee127160 	mufsz	f7, f2, f0
    b42c:	497c5556 	ldmdbmi	ip!, {r1, r2, r4, r6, r8, sl, ip, lr}^
    b430:	604ffc2e 	subvs	pc, pc, lr, lsr #24
    b434:	7d19f7f6 	ldcvc	7, cr15, [r9, #-984]	; 0xfffffc28
    b438:	4582d251 	strmi	sp, [r2, #593]	; 0x251
    b43c:	e5af0a41 	str	r0, [pc, #2625]!	; be85 <jpegdata+0x9ad5>
    b440:	e423f2a8 	strt	pc, [r3], #-680	; 0x2a8
    b444:	2093c924 	addscs	ip, r3, r4, lsr #18
    b448:	cedc297f 	mrcgt	9, 6, r2, cr12, cr15, {3}
    b44c:	d51e8ba2 	ldrle	r8, [lr, #-2978]	; 0xba2
    b450:	eab4c635 	b	fed3cd2c <end+0xbec3cd2c>
    b454:	6bce98e6 	blvs	ff3b17f4 <end+0xbf2b17f4>
    b458:	74964f7a 	ldrvc	r4, [r6], #3962	; 0xf7a
    b45c:	f1f51a8a 			; <UNDEFINED> instruction: 0xf1f51a8a
    b460:	36d6829a 			; <UNDEFINED> instruction: 0x36d6829a
    b464:	fc0c3208 	stc2	2, cr3, [ip], {8}
    b468:	5a51b49e 	bpl	14786e8 <ZAG+0x146a8d0>
    b46c:	39ad4586 	stmibcc	sp!, {r1, r2, r7, r8, sl, lr}
    b470:	c4ba3263 	ldrtgt	r3, [sl], #611	; 0x263
    b474:	18704686 	ldmdane	r0!, {r1, r2, r7, r9, sl, lr}^
    b478:	bd20c71d 	stclt	7, cr12, [r0, #-116]!	; 0xffffff8c
    b47c:	6abfbf2e 	bvs	feffb13c <end+0xbeefb13c>
    b480:	5a53f28d 	bpl	1507ebc <ZAG+0x14fa0a4>
    b484:	ab92938c 	blge	fe4b02bc <end+0xbe3b02bc>
    b488:	b2074a2e 	andlt	r4, r7, #188416	; 0x2e000
    b48c:	03d425c9 	bicseq	r2, r4, #843055104	; 0x32400000
    b490:	b181b2ec 	orrlt	fp, r1, ip, ror #5
    b494:	5fa712f9 	svcpl	0x00a712f9
    b498:	4e3b38b4 	mrcmi	8, 1, r3, cr11, cr4, {5}
    b49c:	d7f1a935 			; <UNDEFINED> instruction: 0xd7f1a935
    b4a0:	901c68ad 	andsls	r6, ip, sp, lsr #17
    b4a4:	2bea0c43 	blcs	ffa8e5b8 <end+0xbf98e5b8>
    b4a8:	c050194c 	subsgt	r1, r0, ip, asr #18
    b4ac:	f88185ac 			; <UNDEFINED> instruction: 0xf88185ac
    b4b0:	544732f7 	strbpl	r3, [r7], #-759	; 0x2f7
    b4b4:	e1cb26ee 	bic	r2, fp, lr, ror #13
    b4b8:	485d5db4 	ldmdami	sp, {r2, r4, r5, r7, r8, sl, fp, ip, lr}^
    b4bc:	d46aab31 	strbtle	sl, [sl], #-2865	; 0xb31
    b4c0:	4f872dd0 	svcmi	0x00872dd0
    b4c4:	a1750490 			; <UNDEFINED> instruction: 0xa1750490
    b4c8:	58c8c861 	stmiapl	r8, {r0, r5, r6, fp, lr, pc}^
    b4cc:	e4092faf 	str	r2, [r9], #-4015	; 0xfaf
    b4d0:	fc6d5685 	stc2l	6, cr5, [sp], #-532	; 0xfffffdec
    b4d4:	5c9f4700 	ldcpl	7, cr4, [pc], {0}
    b4d8:	d97dddcf 	ldmdble	sp!, {r0, r1, r2, r3, r6, r7, r8, sl, fp, ip, lr, pc}^
    b4dc:	835cdd77 	cmphi	ip, #7616	; 0x1dc0
    b4e0:	c3277ff0 	teqgt	r7, #240, 30	; 0x3c0
    b4e4:	0110ad6e 	tsteq	r0, lr, ror #26
    b4e8:	0084512d 	addeq	r5, r4, sp, lsr #2
    b4ec:	391f60a7 	ldmdbcc	pc, {r0, r1, r2, r5, r7, sp, lr}	; <UNPREDICTABLE>
    b4f0:	0814252b 	ldmdaeq	r4, {r0, r1, r3, r5, r8, sl, sp}
    b4f4:	3244652c 	subcc	r6, r4, #44, 10	; 0xb000000
    b4f8:	c7e98ff6 			; <UNDEFINED> instruction: 0xc7e98ff6
    b4fc:	ffb5da1b 			; <UNDEFINED> instruction: 0xffb5da1b
    b500:	d65c7200 	ldrble	r7, [ip], -r0, lsl #4
    b504:	203382b8 	ldrhtcs	r8, [r3], -r8
    b508:	0bfd3d00 	bleq	fff5a910 <end+0xbfe5a910>
    b50c:	091049bc 	ldmdbeq	r0, {r2, r3, r4, r5, r7, r8, fp, lr}
    b510:	154c4c2c 	strbne	r4, [ip, #-3116]	; 0xc2c
    b514:	f455410c 			; <UNDEFINED> instruction: 0xf455410c
    b518:	5727426b 	strpl	r4, [r7, -fp, ror #4]!
    b51c:	e1f3bf3a 	mvns	fp, sl, lsr pc
    b520:	a8b790a5 	ldmge	r7!, {r0, r2, r5, r7, ip, pc}
    b524:	189ee595 	ldmne	lr, {r0, r2, r4, r7, r8, sl, sp, lr, pc}
    b528:	ba124c6b 	blt	49e6dc <ZAG+0x4908c4>
    b52c:	d8c391d7 	stmiale	r3, {r0, r1, r2, r4, r6, r7, r8, ip, pc}^
    b530:	6d031e33 	stcvs	14, cr1, [r3, #-204]	; 0xffffff34
    b534:	b915428a 	ldmdblt	r5, {r1, r3, r7, r9, lr}
    b538:	8b57f2a0 	blhi	1607fc0 <ZAG+0x15fa1a8>
    b53c:	d62c5097 			; <UNDEFINED> instruction: 0xd62c5097
    b540:	95bd85f4 	ldrls	r8, [sp, #1524]!	; 0x5f4
    b544:	a56c7c7a 	strbge	r7, [ip, #-3194]!	; 0xc7a
    b548:	a8f04344 	ldmge	r0!, {r2, r6, r8, r9, lr}^
    b54c:	085630dc 	ldmdaeq	r6, {r2, r3, r4, r6, r7, ip, sp}^
    b550:	30406d09 	subcc	r6, r0, r9, lsl #26
    b554:	e61f8c3c 			; <UNDEFINED> instruction: 0xe61f8c3c
    b558:	ef663d91 	svc	0x00663d91
    b55c:	2d457e4b 	stclcs	14, cr7, [r5, #-300]	; 0xfffffed4
    b560:	a22a2d2c 	eorge	r2, sl, #44, 26	; 0xb00
    b564:	4ed1a2d7 	mrcmi	2, 6, sl, cr1, cr7, {6}
    b568:	f115dbe1 			; <UNDEFINED> instruction: 0xf115dbe1
    b56c:	a96291ca 	stmdbge	r2!, {r1, r3, r6, r7, r8, ip, pc}^
    b570:	c4e29333 	strbtgt	r9, [r2], #819	; 0x333
    b574:	04982661 	ldreq	r2, [r8], #1633	; 0x661
    b578:	145630ac 	ldrbne	r3, [r6], #-172	; 0xac
    b57c:	3af8ac5e 	bcc	ffe366fc <end+0xbfd366fc>
    b580:	150d5c5f 	strne	r5, [sp, #-3167]	; 0xc5f
    b584:	fd1f7736 	ldc2	7, cr7, [pc, #-216]	; b4b4 <jpegdata+0x9104>
    b588:	72166751 	andsvc	r6, r6, #21233664	; 0x1440000
    b58c:	4be8e372 	blmi	ffa4435c <end+0xbf94435c>
    b590:	28a9961c 	stmiacs	r9!, {r2, r3, r4, r9, sl, ip, pc}
    b594:	ae324665 	cfmsuba32ge	mvax3, mvax4, mvfx2, mvfx5
    b598:	2c81c4ed 	cfstrscs	mvf12, [r1], {237}	; 0xed
    b59c:	0fa84b05 	svceq	0x00a84b05
    b5a0:	230e85c8 	movwcs	r8, #58824	; 0xe5c8
    b5a4:	b8cf3962 	stmialt	pc, {r1, r5, r6, r8, fp, ip, sp}^	; <UNPREDICTABLE>
    b5a8:	01b75efb 			; <UNDEFINED> instruction: 0x01b75efb
    b5ac:	dc5dd8c5 	mrrcle	8, 12, sp, sp, cr5	; <UNPREDICTABLE>
    b5b0:	d4b2bccb 	ldrtle	fp, [r2], #3275	; 0xccb
    b5b4:	bc8bd252 	sfmlt	f5, 1, [fp], {82}	; 0x52
    b5b8:	892016d1 	stmdbhi	r0!, {r0, r4, r6, r7, r9, sl, ip}
    b5bc:	2341cb05 	movtcs	ip, #6917	; 0x1b05
    b5c0:	04892029 	streq	r2, [r9], #41	; 0x29
    b5c4:	36f9e198 	usatcc	lr, #25, r8, lsl #3
    b5c8:	a9eee4bb 	stmibge	lr!, {r0, r1, r3, r4, r5, r7, sl, sp, lr, pc}^
    b5cc:	30296a8a 	eorcc	r6, r9, sl, lsl #21
    b5d0:	ab144247 	blge	51bef4 <ZAG+0x50e0dc>
    b5d4:	c672b43f 			; <UNDEFINED> instruction: 0xc672b43f
    b5d8:	058a514e 	streq	r5, [sl, #334]	; 0x14e
    b5dc:	5d18a730 	ldcpl	7, cr10, [r8, #-192]	; 0xffffff40
    b5e0:	e9843095 	stmib	r4, {r0, r2, r4, r7, ip, sp}
    b5e4:	19a803ae 	stmibne	r8!, {r1, r2, r3, r5, r7, r8, r9}
    b5e8:	637da5ac 	cmnvs	sp, #172, 10	; 0x2b000000
    b5ec:	6bd0a967 	blvs	ff435b90 <end+0xbf335b90>
    b5f0:	1c6f2fad 	stclne	15, cr2, [pc], #-692	; b344 <jpegdata+0x8f94>
    b5f4:	63ab63d1 			; <UNDEFINED> instruction: 0x63ab63d1
    b5f8:	04318aa3 	ldrteq	r8, [r1], #-2723	; 0xaa3
    b5fc:	5ea6ccb2 	mcrpl	12, 5, ip, cr6, cr2, {5}
    b600:	2c91c252 	lfmcs	f4, 1, [r1], {82}	; 0x52
    b604:	c6c2aedd 			; <UNDEFINED> instruction: 0xc6c2aedd
    b608:	4b526424 	blmi	14a46a0 <ZAG+0x1496888>
    b60c:	76b8fdcb 	ldrtvc	pc, [r8], fp, asr #27	; <UNPREDICTABLE>
    b610:	7f3bd020 	svcvc	0x003bd020
    b614:	3e5eed90 	mrccc	13, 2, lr, cr14, cr0, {4}
    b618:	ca1bb7e6 	bgt	6f95b8 <ZAG+0x6eb7a0>
    b61c:	94dd7eda 	ldrbls	r7, [sp], #3802	; 0xeda
    b620:	cda0c2e4 	sfmgt	f4, 1, [r0, #912]!	; 0x390
    b624:	496c051f 	stmdbmi	ip!, {r0, r1, r2, r3, r4, r8, sl}^
    b628:	62146a0e 	andsvs	r6, r4, #57344	; 0xe000
    b62c:	09559919 	ldmdbeq	r5, {r0, r3, r4, r8, fp, ip, pc}^
    b630:	f9a8289d 			; <UNDEFINED> instruction: 0xf9a8289d
    b634:	f4ded362 			; <UNDEFINED> instruction: 0xf4ded362
    b638:	ea92fbe3 	b	fe4ca5cc <end+0xbe3ca5cc>
    b63c:	0fc795d6 	svceq	0x00c795d6
    b640:	c469e553 	strbtgt	lr, [r9], #-1363	; 0x553
    b644:	d0c53635 	sbcle	r3, r5, r5, lsr r6
    b648:	a6c40933 			; <UNDEFINED> instruction: 0xa6c40933
    b64c:	50959401 	addspl	r9, r5, r1, lsl #8
    b650:	79208ee5 	stmdbvc	r0!, {r0, r2, r5, r6, r7, r9, sl, fp, pc}
    b654:	71921114 	orrsvc	r1, r2, r4, lsl r1
    b658:	efa893f5 	svc	0x00a893f5
    b65c:	54f24a0f 	ldrbtpl	r4, [r2], #2575	; 0xa0f
    b660:	7c1d2193 	ldfvcs	f2, [sp], {147}	; 0x93
    b664:	5112d8a3 	tstpl	r2, r3, lsr #17
    b668:	598aa79d 	stmibpl	sl, {r0, r2, r3, r4, r7, r8, r9, sl, sp, pc}
    b66c:	ed5e1025 	ldcl	0, cr1, [lr, #-148]	; 0xffffff6c
    b670:	cbf26199 	blgt	ffca3cdc <end+0xbfba3cdc>
    b674:	c86b092a 	stmdagt	fp!, {r1, r3, r5, r8, fp}^
    b678:	424a8e43 	submi	r8, sl, #1072	; 0x430
    b67c:	e840f09f 	stmda	r0, {r0, r1, r2, r3, r4, r7, ip, sp, lr, pc}^
    b680:	daf4033e 	ble	ffd0c380 <end+0xbfc0c380>
    b684:	d1759fc6 	cmnle	r5, r6, asr #31
    b688:	c7076de7 	strgt	r6, [r7, -r7, ror #27]
    b68c:	1a235348 	bne	8e03b4 <ZAG+0x8d259c>
    b690:	4a95096b 	bmi	fe54dc44 <end+0xbe44dc44>
    b694:	483f6544 	ldmdami	pc!, {r2, r6, r8, sl, sp, lr}	; <UNPREDICTABLE>
    b698:	0a3170f0 	beq	c67a60 <ZAG+0xc59c48>
    b69c:	c9a4a13c 	stmibgt	r4!, {r2, r3, r4, r5, r8, sp, pc}
    b6a0:	dc6d69ca 	stclle	9, cr6, [sp], #-808	; 0xfffffcd8
    b6a4:	b7d8ea3c 			; <UNDEFINED> instruction: 0xb7d8ea3c
    b6a8:	5a34736c 	bpl	d28460 <ZAG+0xd1a648>
    b6ac:	a8724ca6 	ldmdage	r2!, {r1, r2, r5, r7, sl, fp, lr}^
    b6b0:	130b89e5 	movwne	r8, #47589	; 0xb9e5
    b6b4:	4802ccf1 	stmdami	r2, {r0, r4, r5, r6, r7, sl, fp, lr, pc}
    b6b8:	188b0571 	stmne	fp, {r0, r4, r5, r6, r8, sl}
    b6bc:	23a501da 			; <UNDEFINED> instruction: 0x23a501da
    b6c0:	ed59a593 	cfldr64	mvdx10, [r9, #-588]	; 0xfffffdb4
    b6c4:	b9a64b53 	stmiblt	r6!, {r0, r1, r4, r6, r8, r9, fp, lr}
    b6c8:	e6553538 			; <UNDEFINED> instruction: 0xe6553538
    b6cc:	e45bbd56 	ldrb	fp, [fp], #-3414	; 0xd56
    b6d0:	f8fcccd6 			; <UNDEFINED> instruction: 0xf8fcccd6
    b6d4:	a53896a6 	ldrge	r9, [r8, #-1702]!	; 0x6a6
    b6d8:	62973080 	addsvs	r3, r7, #128	; 0x80
    b6dc:	86f8281e 	usathi	r2, #24, lr, lsl #16
    b6e0:	2ad82352 	bcs	ff614430 <end+0xbf514430>
    b6e4:	52a32195 	adcpl	r2, r3, #1073741861	; 0x40000025
    b6e8:	77af961b 			; <UNDEFINED> instruction: 0x77af961b
    b6ec:	3c719ffe 	ldclcc	15, cr9, [r1], #-1016	; 0xfffffc08
    b6f0:	c8653f87 	stmdagt	r5!, {r0, r1, r2, r7, r8, r9, sl, fp, ip, sp}^
    b6f4:	54292c71 	strtpl	r2, [r9], #-3185	; 0xc71
    b6f8:	b430c3a0 	ldrtlt	ip, [r0], #-928	; 0x3a0
    b6fc:	7065d4c4 	rsbvc	sp, r5, r4, asr #9
    b700:	e4821877 	str	r1, [r2], #2167	; 0x877
    b704:	62f1c986 	rscsvs	ip, r1, #2195456	; 0x218000
    b708:	00c886c5 	sbceq	r8, r8, r5, asr #13
    b70c:	2fdf0f0c 	svccs	0x00df0f0c
    b710:	f05c5bc4 			; <UNDEFINED> instruction: 0xf05c5bc4
    b714:	2ae18628 	bcs	ff86cfbc <end+0xbf76cfbc>
    b718:	5baac627 	blpl	feabcfbc <end+0xbe9bcfbc>
    b71c:	624afc54 	subvs	pc, sl, #84, 24	; 0x5400
    b720:	10980508 	addsne	r0, r8, r8, lsl #10
    b724:	89215756 	stmdbhi	r1!, {r1, r2, r4, r6, r8, r9, sl, ip, lr}
    b728:	07930c10 			; <UNDEFINED> instruction: 0x07930c10
    b72c:	7ee9035d 	mcrvc	3, 7, r0, cr9, cr13, {2}
    b730:	bd5cc38d 	ldcllt	3, cr12, [ip, #-564]	; 0xfffffdcc
    b734:	d5bdfaab 	ldrle	pc, [sp, #2731]!	; 0xaab
    b738:	4ec1d0ab 	cdpmi	0, 12, cr13, cr1, cr11, {5}
    b73c:	19c5982a 	stmibne	r5, {r1, r3, r5, fp, ip, pc}^
    b740:	4e3ca5cc 	cfsub32mi	mvfx10, mvfx12, mvfx12
    b744:	19d2cc26 	ldmibne	r2, {r1, r2, r5, sl, fp, lr, pc}^
    b748:	e0236025 	eor	r6, r3, r5, lsr #32
    b74c:	0f444880 	svceq	0x00444880
    b750:	275cceb6 			; <UNDEFINED> instruction: 0x275cceb6
    b754:	08ecc831 	stmiaeq	ip!, {r0, r4, r5, fp, lr, pc}^
    b758:	81de5d35 	bicshi	r5, lr, r5, lsr sp
    b75c:	3f923404 	svccc	0x00923404
    b760:	e052bae6 	subs	fp, r2, r6, ror #21
    b764:	d539ac2c 	ldrle	sl, [r9, #-3116]!	; 0xc2c
    b768:	0ae849ab 	beq	ffa1de1c <end+0xbf91de1c>
    b76c:	31ac8c6a 			; <UNDEFINED> instruction: 0x31ac8c6a
    b770:	5e0e2227 	cdppl	2, 0, cr2, cr14, cr7, {1}
    b774:	2249cc2c 	subcs	ip, r9, #44, 24	; 0x2c00
    b778:	f68ef500 			; <UNDEFINED> instruction: 0xf68ef500
    b77c:	3f8da123 	svccc	0x008da123
    b780:	a37a32a9 	cmnge	sl, #-1879048182	; 0x9000000a
    b784:	a6cdd54c 	strbge	sp, [sp], ip, asr #10
    b788:	b5fce81c 	ldrblt	lr, [ip, #2076]!	; 0x81c
    b78c:	784c7ec8 	stmdavc	ip, {r3, r6, r7, r9, sl, fp, ip, sp, lr}^
    b790:	1467a8db 	strbtne	sl, [r7], #-2267	; 0x8db
    b794:	59553e25 	ldmdbpl	r5, {r0, r2, r5, r9, sl, fp, ip, sp}^
    b798:	53658679 	cmnpl	r5, #126877696	; 0x7900000
    b79c:	5c99d9b1 	ldcpl	9, cr13, [r9], {177}	; 0xb1
    b7a0:	6d71838d 	ldclvs	3, cr8, [r1, #-564]!	; 0xfffffdcc
    b7a4:	de5ecdc0 	cdple	13, 5, cr12, cr14, cr0, {6}
    b7a8:	dbabfd9d 	blle	feb0ae24 <end+0xbea0ae24>
    b7ac:	45ad2c5c 	strmi	r2, [sp, #3164]!	; 0xc5c
    b7b0:	c3fdc02a 	mvnsgt	ip, #42	; 0x2a
    b7b4:	76502308 	ldrbvc	r2, [r0], -r8, lsl #6
    b7b8:	f60fda0f 			; <UNDEFINED> instruction: 0xf60fda0f
    b7bc:	1cd624e9 	cfldrdne	mvd2, [r6], {233}	; 0xe9
    b7c0:	da2b2857 	ble	ad5924 <ZAG+0xac7b0c>
    b7c4:	86133fb8 			; <UNDEFINED> instruction: 0x86133fb8
    b7c8:	4cbcbe52 	ldcmi	14, cr11, [ip], #328	; 0x148
    b7cc:	af37c888 	svcge	0x0037c888
    b7d0:	00ff90eb 	rscseq	r9, pc, fp, ror #1
    b7d4:	ff4d36d4 			; <UNDEFINED> instruction: 0xff4d36d4
    b7d8:	f62ead00 			; <UNDEFINED> instruction: 0xf62ead00
    b7dc:	34504c51 	ldrbcc	r4, [r0], #-3153	; 0xc51
    b7e0:	59f70faa 	ldmibpl	r7!, {r1, r3, r5, r7, r8, r9, sl, fp}^
    b7e4:	ec786037 	ldcl	0, cr6, [r8], #-220	; 0xffffff24
    b7e8:	5cfd7f1d 	ldclpl	15, cr7, [sp], #116	; 0x74
    b7ec:	b761b01f 			; <UNDEFINED> instruction: 0xb761b01f
    b7f0:	c18dbf9d 	strexgt	fp, sp, [sp]
    b7f4:	00fff09c 	smlalseq	pc, pc, ip, r0	; <UNPREDICTABLE>
    b7f8:	095f7ca7 	ldmdbeq	pc, {r0, r1, r2, r5, r7, sl, fp, ip, sp, lr}^	; <UNPREDICTABLE>
    b7fc:	b4bd55c8 	ldrtlt	r5, [sp], #1480	; 0x5c8
    b800:	8cb8f8a8 	ldchi	8, cr15, [r8], #672	; 0x2a0
    b804:	b205d009 	andlt	sp, r5, #9
    b808:	294b4c60 	stmdbcs	fp, {r5, r6, sl, fp, lr}^
    b80c:	9d165701 	ldcls	7, cr5, [r6, #-4]
    b810:	05892565 	streq	r2, [r9, #1381]	; 0x565
    b814:	d48fb95f 	strle	fp, [pc], #2399	; b81c <jpegdata+0x946c>
    b818:	e39b578e 	orrs	r5, fp, #37224448	; 0x2380000
    b81c:	535d59a9 	cmppl	sp, #2768896	; 0x2a4000
    b820:	71ce904c 	bicvc	r9, lr, ip, asr #32
    b824:	58c571b2 	stmiapl	r5, {r1, r4, r5, r7, r8, ip, sp, lr}^
    b828:	4b708509 	blmi	1c2cc54 <ZAG+0x1c1ee3c>
    b82c:	c61b4b36 			; <UNDEFINED> instruction: 0xc61b4b36
    b830:	6c438002 	mcrrvs	0, 0, r8, r3, cr2
    b834:	5c4df5e1 	cfstr64pl	mvdx15, [sp], {225}	; 0xe1
    b838:	ac3c96b8 	ldcge	6, cr9, [ip], #-736	; 0xfffffd20
    b83c:	38cb5a8d 	stmiacc	fp, {r0, r2, r3, r7, r9, fp, ip, lr}^
    b840:	2c20e321 	stccs	3, cr14, [r0], #-132	; 0xffffff7c
    b844:	841258ca 	ldrhi	r5, [r2], #-2250	; 0x8ca
    b848:	c61d20b0 			; <UNDEFINED> instruction: 0xc61d20b0
    b84c:	e37d00ff 	cmn	sp, #255	; 0xff
    b850:	90b8e161 	adcsls	lr, r8, r1, ror #2
    b854:	3bad34ae 	blcc	feb58b14 <end+0xbea58b14>
    b858:	b56e971e 	strblt	r9, [lr, #-1822]!	; 0x71e
    b85c:	ab05b64a 	blge	17918c <ZAG+0x16b374>
    b860:	e45b900a 	ldrb	r9, [fp], #-10
    b864:	c8658821 	stmdagt	r5!, {r0, r5, fp, pc}^
    b868:	93428cab 	movtls	r8, #11435	; 0x2cab
    b86c:	887fedb3 	ldmdahi	pc!, {r0, r1, r4, r5, r7, r8, sl, fp, sp, lr, pc}^	; <UNPREDICTABLE>
    b870:	f9840cad 			; <UNDEFINED> instruction: 0xf9840cad
    b874:	df712729 	svcle	0x00712729
    b878:	69913b75 	ldmibvs	r1, {r0, r2, r4, r5, r6, r8, r9, fp, ip, sp}
    b87c:	d182e4d2 	ldrdle	lr, [r2, r2]
    b880:	e317726a 	tst	r7, #-1610612730	; 0xa0000006
    b884:	88ad0cf1 	stmiahi	sp!, {r0, r4, r5, r6, r7, sl, fp}
    b888:	02163964 	andseq	r3, r6, #100, 18	; 0x190000
    b88c:	00fff440 	rscseq	pc, pc, r0, asr #8
    b890:	709565c2 	addsvc	r6, r5, r2, asr #11
    b894:	5abaaeb0 	bpl	feeb735c <end+0xbedb735c>
    b898:	d38c3583 	orrle	r3, ip, #549453824	; 0x20c00000
    b89c:	43a392b4 			; <UNDEFINED> instruction: 0x43a392b4
    b8a0:	3128cd32 	teqcc	r8, r2, lsr sp
    b8a4:	9cd71ac1 	vldmials	r7, {s3-s195}
    b8a8:	eca02828 	stc	8, cr2, [r0], #160	; 0xa0
    b8ac:	a33195c4 	teqge	r1, #196, 10	; 0x31000000
    b8b0:	6566a702 	strbvs	sl, [r6, #-1794]!	; 0x702
    b8b4:	771b4991 			; <UNDEFINED> instruction: 0x771b4991
    b8b8:	ace28611 	stclge	6, cr8, [r2], #68	; 0x44
    b8bc:	bc8f4f7b 	stclt	15, cr4, [pc], {123}	; 0x7b
    b8c0:	a8f15ae4 	ldmge	r1!, {r2, r5, r6, r7, r9, fp, ip, lr}^
    b8c4:	5942352b 	stmdbpl	r2, {r0, r1, r3, r5, r8, sl, ip, sp}^
    b8c8:	e4718899 	ldrbt	r8, [r1], #-2201	; 0x899
    b8cc:	7a082649 	bvc	2151f8 <ZAG+0x2073e0>
    b8d0:	10200379 	eorne	r0, r0, r9, ror r3
    b8d4:	3e9030b8 	mrccc	0, 4, r3, cr0, cr8, {5}
    b8d8:	4c478a3a 	vmovmi	s21, s22, r8, r7
    b8dc:	c8cfbd37 	stmiagt	pc, {r0, r1, r2, r4, r5, r8, sl, fp, ip, sp, pc}^	; <UNPREDICTABLE>
    b8e0:	8206715a 	andhi	r7, r6, #-2147483626	; 0x80000016
    b8e4:	42942857 	addsmi	r2, r4, #5701632	; 0x570000
    b8e8:	1b3fa8aa 	blne	ff5b98 <ZAG+0xfe7d80>
    b8ec:	00aa8078 	adceq	r8, sl, r8, ror r0
    b8f0:	21b34e2d 			; <UNDEFINED> instruction: 0x21b34e2d
    b8f4:	1a435910 	bne	10e1d3c <ZAG+0x10d3f24>
    b8f8:	7c33cc94 	ldcvc	12, cr12, [r3], #-592	; 0xfffffdb0
    b8fc:	5a499994 	bpl	1271f54 <ZAG+0x126413c>
    b900:	ce75bb7a 	vmovgt.s8	fp, d5[7]
    b904:	f7f57e5d 			; <UNDEFINED> instruction: 0xf7f57e5d
    b908:	d7fb755f 	ubfxle	r7, pc, #10, #28
    b90c:	e3d47ddd 	bics	r7, r4, #14144	; 0x3740
    b910:	ba71bfd7 	blt	1c7b874 <ZAG+0x1c6da5c>
    b914:	bc6a436f 	stcllt	3, cr4, [sl], #-444	; 0xfffffe44
    b918:	49680d5e 	stmdbmi	r8!, {r1, r2, r3, r4, r6, r8, sl, fp}^
    b91c:	7b476593 	blvc	11e4f70 <ZAG+0x11d7158>
    b920:	113aa997 			; <UNDEFINED> instruction: 0x113aa997
    b924:	c4785600 	ldrbtgt	r5, [r8], #-1536	; 0x600
    b928:	d801372a 	stmdale	r1, {r1, r3, r5, r8, r9, sl, ip, sp}
    b92c:	12188c48 	andsne	r8, r8, #72, 24	; 0x4800
    b930:	92b76d38 	adcsls	r6, r7, #56, 26	; 0xe00
    b934:	573c1b48 	ldrpl	r1, [ip, -r8, asr #22]!
    b938:	553d9c38 	ldrpl	r9, [sp, #-3128]!	; 0xc38
    b93c:	823fa6b7 	eorshi	sl, pc, #191889408	; 0xb700000
    b940:	a807ca34 	stmdage	r7, {r2, r4, r5, r9, fp, lr, pc}
    b944:	0012055d 	andseq	r0, r2, sp, asr r5
    b948:	c7f65323 	ldrbgt	r5, [r6, r3, lsr #6]!
    b94c:	551d3151 	ldrpl	r3, [sp, #-337]	; 0x151
    b950:	72ca5ffa 	sbcvc	r5, sl, #1000	; 0x3e8
    b954:	bfd5039c 	svclt	0x00d5039c
    b958:	85de9de5 	ldrbhi	r9, [lr, #3557]	; 0xde5
    b95c:	90142ed0 			; <UNDEFINED> instruction: 0x90142ed0
    b960:	ebb69c59 	bl	fedb2acc <end+0xbecb2acc>
    b964:	1627b71c 			; <UNDEFINED> instruction: 0x1627b71c
    b968:	212fb553 	teqcs	pc, r3, asr r5	; <UNPREDICTABLE>
    b96c:	2e5321c9 	rdfcsdm	f2, f3, #1.0
    b970:	f37b970e 	vabd.u<illegal width 64>	d25, d11, d14
    b974:	5c5b7bab 	mrrcpl	11, 10, r7, fp, cr11
    b978:	dac598a5 	ble	ff171c14 <end+0xbf071c14>
    b97c:	55f2d6b6 	ldrbpl	sp, [r2, #1718]!	; 0x6b6
    b980:	ccf2616e 	ldfgte	f6, [r2], #440	; 0x1b8
    b984:	6c614790 	stclvs	7, cr4, [r1], #-576	; 0xfffffdc0
    b988:	52a8642d 	adcpl	r6, r8, #754974720	; 0x2d000000
    b98c:	66dfcac6 	ldrbvs	ip, [pc], r6, asr #21
    b990:	ca02a58d 	bgt	b4fcc <ZAG+0xa71b4>
    b994:	1ced9496 	cfstrdne	mvd9, [sp], #600	; 0x258
    b998:	dd217772 	stcle	7, cr7, [r1, #-456]!	; 0xfffffe38
    b99c:	5cdc5716 	ldclpl	7, cr5, [ip], {22}
    b9a0:	f5c5ad55 			; <UNDEFINED> instruction: 0xf5c5ad55
    b9a4:	1a30ce4b 	bne	c3f2d8 <ZAG+0xc314c0>
    b9a8:	8f8f4874 	svchi	0x008f4874
    b9ac:	4022bfed 	eormi	fp, r2, sp, ror #31
    b9b0:	0a531e93 	beq	14d3404 <ZAG+0x14c55ec>
    b9b4:	22095008 	andcs	r5, r9, #8
    b9b8:	e5715808 	ldrb	r5, [r1, #-2056]!	; 0x808
    b9bc:	2aafac2f 	bcs	febf6a80 <end+0xbeaf6a80>
    b9c0:	28d25832 	ldmcs	r2, {r1, r4, r5, fp, ip, lr}^
    b9c4:	a0038ba5 	andge	r8, r3, r5, lsr #23
    b9c8:	0068aa44 	rsbeq	sl, r8, r4, asr #20
    b9cc:	0162d827 	cmneq	r2, r7, lsr #16
    b9d0:	aa805d66 	bge	fe022f70 <end+0xbdf22f70>
    b9d4:	ee3a59be 	mrc	9, 1, r5, cr10, cr14, {5}
    b9d8:	e67c22f5 			; <UNDEFINED> instruction: 0xe67c22f5
    b9dc:	4370510e 	cmnmi	r0, #-2147483645	; 0x80000003
    b9e0:	3df4be35 	ldclcc	14, cr11, [r4, #212]!	; 0xd4
    b9e4:	ed305a89 	vldmdb	r0!, {s10-s146}
    b9e8:	11f82b58 	mvnsne	r2, r8, asr fp
    b9ec:	0e0fc20f 	cdpeq	2, 0, cr12, cr15, cr15, {0}
    b9f0:	060028bb 			; <UNDEFINED> instruction: 0x060028bb
    b9f4:	29bd0dd8 	ldmibcs	sp!, {r3, r4, r6, r7, r8, sl, fp}
    b9f8:	2aa32992 	bcs	fe8d6048 <end+0xbe7d6048>
    b9fc:	bdfe8328 	ldcllt	3, cr8, [lr, #160]!	; 0xa0
    ba00:	f5715c20 			; <UNDEFINED> instruction: 0xf5715c20
    ba04:	484bab56 	stmdami	fp, {r1, r2, r4, r6, r8, r9, fp, sp, pc}^
    ba08:	0ffcf68f 	svceq	0x00fcf68f
    ba0c:	ba9efec0 	blt	fe7cb514 <end+0xbe6cb514>
    ba10:	f264cad7 	vpmin.s32	q14, q10, <illegal reg q3.5>
    ba14:	e9ce4dbd 	stmib	lr, {r0, r2, r3, r4, r5, r7, r8, sl, fp, lr}^
    ba18:	fe4a177d 	mcr2	7, 2, r1, cr10, cr13, {3}
    ba1c:	2367173b 	cmncs	r7, #15466496	; 0xec0000
    ba20:	4e4efee5 	cdpmi	14, 4, cr15, cr14, cr5, {7}
    ba24:	7b487a3c 	blvc	122a31c <ZAG+0x121c504>
    ba28:	3a1a4591 	bcc	69d074 <ZAG+0x68f25c>
    ba2c:	76f85e72 			; <UNDEFINED> instruction: 0x76f85e72
    ba30:	2e3e627e 	mrccs	2, 1, r6, cr14, cr14, {3}
    ba34:	5406d0cc 	strpl	sp, [r6], #-204	; 0xcc
    ba38:	37454066 	strbcc	r4, [r5, -r6, rrx]
    ba3c:	1b2d2ab0 	blne	b56504 <ZAG+0xb486ec>
    ba40:	14f797da 	ldrbtne	r9, [r7], #2010	; 0x7da
    ba44:	b1d114ce 	bicslt	r1, r1, lr, asr #9
    ba48:	c7484cc5 	strbgt	r4, [r8, -r5, asr #25]
    ba4c:	2924422f 	stmdbcs	r4!, {r0, r1, r2, r3, r5, r9, lr}
    ba50:	40864e12 	addmi	r4, r6, r2, lsl lr
    ba54:	d9742492 	ldmdble	r4!, {r1, r4, r7, sl, sp}^
    ba58:	3c9657d9 	ldccc	7, cr5, [r6], {217}	; 0xd9
    ba5c:	77f72257 	ubfxvc	r2, r7, #4, #24
    ba60:	8c43e8c7 	mcrrhi	8, 12, lr, r3, cr7
    ba64:	81c0d84e 	bichi	sp, r0, lr, asr #16
    ba68:	6f24921a 	svcvs	0x0024921a
    ba6c:	fa1ed95b 	blx	7c1fe0 <ZAG+0x7b41c8>
    ba70:	59b9b2d7 	ldmibpl	r9!, {r0, r1, r2, r4, r6, r7, r9, ip, sp, pc}
    ba74:	2da9d33a 	stccs	3, cr13, [r9, #232]!	; 0xe8
    ba78:	b9c47ce8 	stmiblt	r4, {r3, r5, r6, r7, sl, fp, ip, sp, lr}^
    ba7c:	4d369e1c 	ldcmi	14, cr9, [r6, #-112]!	; 0xffffff90
    ba80:	1a5c9fa2 	bne	1733910 <ZAG+0x1725af8>
    ba84:	02cb20c7 	sbceq	r2, fp, #199	; 0xc7
    ba88:	aefc2c03 	cdpge	12, 15, cr2, cr12, cr3, {0}
    ba8c:	34314420 	ldrtcc	r4, [r1], #-1056	; 0x420
    ba90:	4af88d1b 	bmi	ffe2ef04 <end+0xbfd2ef04>
    ba94:	65d7b7a9 	ldrbvs	fp, [r7, #1961]	; 0x7a9
    ba98:	7ee18d93 	mcrvc	13, 7, r8, cr1, cr3, {4}
    ba9c:	4bd2c621 	blmi	ff4bd328 <end+0xbf3bd328>
    baa0:	d85bc5e4 	ldmdale	fp, {r2, r5, r6, r7, r8, sl, lr, pc}^
    baa4:	473e96a5 	ldrmi	r9, [lr, -r5, lsr #13]!
    baa8:	e464e04b 	strbt	lr, [r4], #-75	; 0x4b
    baac:	3fa9fa1b 	svccc	0x00a9fa1b
    bab0:	17dfac7d 			; <UNDEFINED> instruction: 0x17dfac7d
    bab4:	14551ce1 	ldrbne	r1, [r5], #-3297	; 0xce1
    bab8:	8fe269e4 	svchi	0x00e269e4
    babc:	0fcb51ec 	svceq	0x00cb51ec
    bac0:	19fea523 	ldmibne	lr!, {r0, r1, r5, r8, sl, sp, pc}^
    bac4:	ea6f9093 	b	1befd18 <ZAG+0x1be1f00>
    bac8:	5672a785 	ldrbtpl	sl, [r2], -r5, lsl #15
    bacc:	8c3ed85a 	ldchi	8, cr13, [lr], #-360	; 0xfffffe98
    bad0:	d2252375 	eorle	r2, r5, #-738197503	; 0xd4000001
    bad4:	056f867c 	strbeq	r8, [pc, #-1660]!	; b460 <jpegdata+0x90b0>
    bad8:	a8e9d396 	stmiage	r9!, {r1, r2, r4, r7, r8, r9, ip, lr, pc}^
    badc:	6c52492c 	mrrcvs	9, 2, r4, r2, cr12
    bae0:	6a29ba6c 	bvs	a7a498 <ZAG+0xa6c680>
    bae4:	81489652 	cmphi	r8, r2, asr r6
    bae8:	92562d91 	subsls	r2, r6, #9280	; 0x2440
    baec:	088575cd 	stmeq	r5, {r0, r2, r3, r6, r7, r8, sl, ip, sp, lr}
    baf0:	01b1d10c 			; <UNDEFINED> instruction: 0x01b1d10c
    baf4:	f6d552e4 			; <UNDEFINED> instruction: 0xf6d552e4
    baf8:	963e761e 			; <UNDEFINED> instruction: 0x963e761e
    bafc:	6ddc72eb 	lfmvs	f7, 2, [ip, #940]	; 0x3ac
    bb00:	5da1f53b 	cfstr32pl	mvfx15, [r1, #236]!	; 0xec
    bb04:	0619e31f 			; <UNDEFINED> instruction: 0x0619e31f
    bb08:	0e6032f9 	mcreq	2, 3, r3, cr0, cr9, {7}
    bb0c:	2c56b08a 	mrrccs	0, 8, fp, r6, cr10
    bb10:	a6f4487d 	uxtahge	r4, r4, sp, ror #16
    bb14:	fc4aa51b 	mcrr2	5, 1, sl, sl, cr11
    bb18:	924f13d7 	subls	r1, pc, #1543503875	; 0x5c000003
    bb1c:	6f9a7b4b 	svcvs	0x009a7b4b
    bb20:	0a838cf1 	beq	fe0eeeec <end+0xbdfeeeec>
    bb24:	4507b0b9 	strmi	fp, [r7, #-185]	; 0xb9
    bb28:	3e972318 	mrccc	3, 4, r2, cr7, cr8, {0}
    bb2c:	4cc50381 	stclmi	3, cr0, [r5], {129}	; 0x81
    bb30:	4e00ff3c 	mcrmi	15, 0, pc, cr0, cr12, {1}	; <UNPREDICTABLE>
    bb34:	b32e1994 	teqlt	lr, #148, 18	; 0x250000
    bb38:	54a7ec69 	strtpl	lr, [r7], #3177	; 0xc69
    bb3c:	24073675 	strcs	r3, [r7], #-1653	; 0x675
    bb40:	eba31713 	bl	fe8d1794 <end+0xbe7d1794>
    bb44:	92b1974c 	adcsls	r9, r1, #76, 14	; 0x1300000
    bb48:	6b25ec66 	blvs	986ce8 <ZAG+0x978ed0>
    bb4c:	e415cdf0 	ldr	ip, [r5], #-3568	; 0xdf0
    bb50:	2a3cb18f 	bcs	f38194 <ZAG+0xf2a37c>
    bb54:	80a590dc 	ldrdhi	r9, [r5], ip	; <UNPREDICTABLE>
    bb58:	9185a34a 	orrls	sl, r5, sl, asr #6
    bb5c:	aa3c8861 	bge	f2dce8 <ZAG+0xf1fed0>
    bb60:	e6fab3c0 	ldrbt	fp, [sl], r0, asr #7
    bb64:	23fde77e 	mvnscs	lr, #33030144	; 0x1f80000
    bb68:	caf8e2ba 	bgt	ffe44658 <end+0xbfd44658>
    bb6c:	5269e73c 	rsbpl	lr, r9, #60, 14	; 0xf00000
    bb70:	b232dc7f 	eorslt	sp, r2, #32512	; 0x7f00
    bb74:	a831a255 	ldmdage	r1!, {r0, r2, r4, r6, r9, sp, pc}
    bb78:	18943a05 	ldmne	r4, {r0, r2, r9, fp, ip, sp}
    bb7c:	b2254631 	eorlt	r4, r5, #51380224	; 0x3100000
    bb80:	0a560925 	beq	158e01c <ZAG+0x1580204>
    bb84:	52a972d5 	adcpl	r7, r9, #1342177293	; 0x5000000d
    bb88:	828a9128 	addhi	r9, sl, #40, 2
    bb8c:	3277c6ab 	rsbscc	ip, r7, #179306496	; 0xab00000
    bb90:	4e6b565c 	mcrmi	6, 3, r5, cr11, cr12, {2}
    bb94:	20a09451 	adccs	r9, r0, r1, asr r4
    bb98:	074becab 	strbeq	lr, [fp, -fp, lsr #25]
    bb9c:	02014c04 	andeq	r4, r1, #4, 24	; 0x400
    bba0:	c0428260 	subgt	r8, r2, r0, ror #4
    bba4:	e8c9401e 	stmia	r9, {r1, r2, r3, r4, lr}^
    bba8:	4c078eae 	stcmi	14, cr8, [r7], {174}	; 0xae
    bbac:	9aacf566 	bls	feb4914c <end+0xbea4914c>
    bbb0:	82901787 	addshi	r1, r0, #35389440	; 0x21c0000
    bbb4:	852349c6 	strhi	r4, [r3, #-2502]!	; 0x9c6
    bbb8:	ca4a45ee 	bgt	129d378 <ZAG+0x128f560>
    bbbc:	6d0c4c3a 	stcvs	12, cr4, [ip, #-232]	; 0xffffff18
    bbc0:	5495e4f1 	ldrpl	lr, [r5], #1265	; 0x4f1
    bbc4:	2506bfef 	strcs	fp, [r6, #-4079]	; 0xfef
    bbc8:	c746f009 	strbgt	pc, [r6, -r9]	; <UNPREDICTABLE>
    bbcc:	c50a5562 	strgt	r5, [sl, #-1378]	; 0x562
    bbd0:	9b3bba1f 	blls	efa454 <ZAG+0xeec63c>
    bbd4:	ed76ed85 	ldcl	13, cr14, [r6, #-532]!	; 0xfffffdec
    bbd8:	4b76fb9b 	blmi	1dcaa4c <ZAG+0x1dbcc34>
    bbdc:	d9b42e77 	ldmible	r4!, {r0, r1, r2, r4, r5, r6, r9, sl, fp, sp}
    bbe0:	8a949191 	bhi	fe53022c <end+0xbe43022c>
    bbe4:	b1226b8a 	smlawblt	r2, sl, fp, r6
    bbe8:	32c83000 	sbccc	r3, r8, #0
    bbec:	16c858d4 			; <UNDEFINED> instruction: 0x16c858d4
    bbf0:	4209582a 	andmi	r5, r9, #2752512	; 0x2a0000
    bbf4:	f16db75e 			; <UNDEFINED> instruction: 0xf16db75e
    bbf8:	4b35977c 	blmi	d719f0 <ZAG+0xd63bd8>
    bbfc:	aa814a9a 	bge	fe05e66c <end+0xbdf5e66c>
    bc00:	e98a2153 	stmib	sl, {r0, r1, r4, r6, r8, sp}
    bc04:	904268d7 	ldrdls	r6, [r2], #-135	; 0xffffff79
    bc08:	236d940c 	cmncs	sp, #12, 8	; 0xc000000
    bc0c:	f1f01a06 			; <UNDEFINED> instruction: 0xf1f01a06
    bc10:	1d31b300 	ldcne	3, cr11, [r1, #-0]
    bc14:	4755a7e8 	ldrbmi	sl, [r5, -r8, ror #15]
    bc18:	ab393351 	blge	e58964 <ZAG+0xe4ab4c>
    bc1c:	49c7dab0 	stmibmi	r7, {r4, r5, r7, r9, fp, ip, lr, pc}^
    bc20:	140fac7a 	strne	sl, [pc], #-3194	; bc28 <jpegdata+0x9878>
    bc24:	86a51950 	ssathi	r1, #6, r0, asr #18
    bc28:	b48bdc6a 	strlt	sp, [fp], #3178	; 0xc6a
    bc2c:	63834433 	orrvs	r4, r3, #855638016	; 0x33000000
    bc30:	8d214365 	stchi	3, cr4, [r1, #-404]!	; 0xfffffe6c
    bc34:	125484f9 	subsne	r8, r4, #-117440512	; 0xf9000000
    bc38:	191221c3 	ldmdbne	r2, {r0, r1, r6, r7, r8, sp}
    bc3c:	cff4110c 	svcgt	0x00f4110c
    bc40:	173c7070 			; <UNDEFINED> instruction: 0x173c7070
    bc44:	d06e7fe9 	rsble	r7, lr, r9, ror #31
    bc48:	e80eda4b 	stmda	lr, {r0, r1, r3, r6, r9, fp, ip, lr, pc}
    bc4c:	552101ce 	strpl	r0, [r1, #-462]!	; 0x1ce
    bc50:	c369aab2 	cmngt	r9, #729088	; 0xb2000
    bc54:	00ff933f 	rscseq	r9, pc, pc, lsr r3	; <UNPREDICTABLE>
    bc58:	8c569508 	cfldr64hi	mvdx9, [r6], {8}
    bc5c:	57659058 			; <UNDEFINED> instruction: 0x57659058
    bc60:	c568e443 	strbgt	lr, [r8, #-1091]!	; 0x443
    bc64:	bb630e2b 	bllt	18cf518 <ZAG+0x18c1700>
    bc68:	d4f74ab9 	ldrbtle	r4, [r7], #2745	; 0xab9
    bc6c:	b075fcab 	rsbslt	pc, r5, fp, lsr #25
    bc70:	0a180321 	beq	60c8fc <ZAG+0x5feae4>
    bc74:	9322ab99 	teqls	r2, #156672	; 0x26400
    bc78:	b1c20c4c 	biclt	r0, r2, ip, asr #24
    bc7c:	9808e620 	stmdals	r8, {r5, r9, sl, sp, lr, pc}
    bc80:	6741e190 			; <UNDEFINED> instruction: 0x6741e190
    bc84:	af1edcb5 	svcge	0x001edcb5
    bc88:	c3ee65c5 	mvngt	r6, #826277888	; 0x31400000
    bc8c:	0c17b0a9 	ldceq	0, cr11, [r7], {169}	; 0xa9
    bc90:	620f52b0 	andvs	r5, pc, #176, 4
    bc94:	27369dd6 			; <UNDEFINED> instruction: 0x27369dd6
    bc98:	15053cab 	strne	r3, [r5, #-3243]	; 0xcab
    bc9c:	0865485e 	stmdaeq	r5!, {r1, r2, r3, r4, r6, fp, lr}^
    bca0:	ceac8c8c 	cdpgt	12, 10, cr8, cr12, cr12, {4}
    bca4:	47f73b7b 			; <UNDEFINED> instruction: 0x47f73b7b
    bca8:	dd87b26c 	sfmle	f3, 1, [r7, #432]	; 0x1b0
    bcac:	bbaf440b 	bllt	febdcce0 <end+0xbeadcce0>
    bcb0:	e7b4915f 	sbfx	r9, pc, #2, #21
    bcb4:	9a94f696 	bls	fe549714 <end+0xbe449714>
    bcb8:	bdceec38 	stcllt	12, cr14, [lr, #224]	; 0xe0
    bcbc:	7afc181f 	bvc	fff11d40 <end+0xbfe11d40>
    bcc0:	c92c2063 	stmdbgt	ip!, {r0, r1, r5, r6, sp}
    bcc4:	e602ac9e 			; <UNDEFINED> instruction: 0xe602ac9e
    bcc8:	8d82f1c0 	stfhid	f7, [r2, #768]	; 0x300
    bccc:	e22f89b3 	eor	r8, pc, #2932736	; 0x2cc000
    bcd0:	cc20281c 	stcgt	8, cr2, [r0], #-112	; 0xffffff90
    bcd4:	6490848c 	ldrvs	r8, [r0], #1164	; 0x48c
    bcd8:	76fa720c 	ldrbtvc	r7, [sl], ip, lsl #4
    bcdc:	5f984003 	svcpl	0x00984003
    bce0:	37fe3cea 	ldrbcc	r3, [lr, sl, ror #25]!
    bce4:	95b98d27 	ldrls	r8, [r9, #3367]!	; 0xd27
    bce8:	75fa3dc9 	ldrbvc	r3, [sl, #3529]!	; 0xdc9
    bcec:	43f3c69a 	mvnsmi	ip, #161480704	; 0x9a00000
    bcf0:	d6db4b4a 	ldrble	r4, [fp], sl, asr #22
    bcf4:	f7d9e368 			; <UNDEFINED> instruction: 0xf7d9e368
    bcf8:	bfab7ee0 	svclt	0x00ab7ee0
    bcfc:	8f55b170 	svchi	0x0055b170
    bd00:	5954c2ce 	ldmdbpl	r4, {r1, r2, r3, r6, r7, r9, lr, pc}^
    bd04:	ce9f8050 	mrcgt	0, 4, r8, cr15, cr0, {2}
    bd08:	535fcbb5 	cmppl	pc, #185344	; 0x2d400
    bd0c:	8914b2b0 	ldmdbhi	r4, {r4, r5, r7, r9, ip, sp, pc}
    bd10:	a6089000 	strge	r9, [r8], -r0
    bd14:	df412c49 	svcle	0x00412c49
    bd18:	241620c8 	ldrcs	r2, [r6], #-200	; 0xc8
    bd1c:	fd588242 	ldc2l	2, cr8, [r8, #-264]	; 0xfffffef8
    bd20:	351d4152 	ldrcc	r4, [sp, #-338]	; 0x152
    bd24:	418db670 	orrmi	fp, sp, r0, ror r6
    bd28:	02c4e43e 	sbceq	lr, r4, #1040187392	; 0x3e000000
    bd2c:	5e278271 	mcrpl	2, 1, r8, cr7, cr1, {3}
    bd30:	194060b6 	stmdbne	r0, {r1, r2, r4, r5, r7, sp, lr}^
    bd34:	00ff0316 	rscseq	r0, pc, r6, lsl r3	; <UNPREDICTABLE>
    bd38:	940cc5c6 	strls	ip, [ip], #-1478	; 0x5c6
    bd3c:	180abbdf 	stmdane	sl, {r0, r1, r2, r3, r4, r6, r7, r8, r9, fp, ip, sp, pc}
    bd40:	e9bd7e3c 	ldmib	sp!, {r2, r3, r4, r5, r9, sl, fp, ip, sp, lr}
    bd44:	9b616de5 	blls	18674e0 <ZAG+0x18596c8>
    bd48:	ab19385a 	blge	659eb8 <ZAG+0x64c0a0>
    bd4c:	351cae77 	ldrcc	sl, [ip, #-3703]	; 0xe77
    bd50:	d6acf6da 	ssatle	pc, #13, sl, asr #13	; <UNPREDICTABLE>
    bd54:	85c908ef 	strbhi	r0, [r9, #2287]	; 0x8ef
    bd58:	ec283791 	stc	7, cr3, [r8], #-580	; 0xfffffdbc
    bd5c:	09f70faf 	ldmibeq	r7!, {r0, r1, r2, r3, r5, r7, r8, r9, sl, fp}^
    bd60:	a3dc2a74 	bicsge	r2, ip, #116, 20	; 0x74000
    bd64:	7e954a59 	mrcvc	10, 4, r4, cr5, cr9, {2}
    bd68:	ed25fd9a 	stc	13, cr15, [r5, #-616]!	; 0xfffffd98
    bd6c:	b8b453ee 	ldmlt	r4!, {r1, r2, r3, r5, r6, r7, r8, r9, ip, lr}
    bd70:	2a8555fe 	bcs	fe161570 <end+0xbe061570>
    bd74:	c637eb75 			; <UNDEFINED> instruction: 0xc637eb75
    bd78:	5d803255 	sfmpl	f3, 4, [r0, #340]	; 0x154
    bd7c:	9d619a43 	vstmdbls	r1!, {s19-s85}
    bd80:	a5e70bc8 	strbge	r0, [r7, #3016]!	; 0xbc8
    bd84:	53362701 	teqpl	r6, #262144	; 0x40000
    bd88:	40950098 	umullsmi	r0, r5, r8, r0
    bd8c:	cf461eee 	svcgt	0x00461eee
    bd90:	d46a4b94 	strbtle	r4, [sl], #-2964	; 0xb94
    bd94:	2f2132aa 	svccs	0x002132aa
    bd98:	870c0d0f 	strhi	r0, [ip, -pc, lsl #26]
    bd9c:	0eb06215 	mrceq	2, 5, r6, cr0, cr5, {0}
    bda0:	b14f8240 	cmplt	pc, r0, asr #4
    bda4:	4b10180a 	blmi	411dd4 <ZAG+0x403fbc>
    bda8:	a14be828 	cmpge	fp, r8, lsr #16
    bdac:	60c878fd 	strdvs	r7, [r8], #141	; 0x8d
    bdb0:	0f3fb6f4 	svceq	0x003fb6f4
    bdb4:	632e9992 	teqvs	lr, #2392064	; 0x248000
    bdb8:	b04a7331 	sublt	r7, sl, r1, lsr r3
    bdbc:	ad90aa51 	vldrge	s20, [r0, #324]	; 0x144
    bdc0:	5f8c0ca3 	svcpl	0x008c0ca3
    bdc4:	0c642982 	stcleq	9, cr2, [r4], #-520	; 0xfffffdf8
    bdc8:	42de69a2 	sbcsmi	r6, lr, #2654208	; 0x288000
    bdcc:	f372207f 	vqadd.u64	q9, q1, <illegal reg q15.5>
    bdd0:	5f0f76c5 	svcpl	0x000f76c5
    bdd4:	56a55fa9 	strtpl	r5, [r5], r9, lsr #31
    bdd8:	f65ad23d 			; <UNDEFINED> instruction: 0xf65ad23d
    bddc:	74bdb0d4 	ldrtvc	fp, [sp], #212	; 0xd4
    bde0:	b3cb544a 	biclt	r5, fp, #1241513984	; 0x4a000000
    bde4:	66834b9a 	pkhbtvs	r4, r3, sl, lsl #23
    bde8:	b0abca5d 	adclt	ip, fp, sp, asr sl
    bdec:	03594d63 	cmpeq	r9, #6336	; 0x18c0
    bdf0:	a292c039 	addsge	ip, r2, #57	; 0x39
    bdf4:	d153463e 	cmple	r3, lr, lsr r6
    bdf8:	a0bed07e 	adcsge	sp, lr, lr, ror r0
    bdfc:	c75065bc 			; <UNDEFINED> instruction: 0xc75065bc
    be00:	e350ed2a 	cmp	r0, #2688	; 0xa80
    be04:	670c714d 	strvs	r7, [ip, -sp, asr #2]
    be08:	0095850d 	addseq	r8, r5, sp, lsl #10
    be0c:	aa74920d 	bge	1d30648 <ZAG+0x1d22830>
    be10:	4f07f401 	svcmi	0x0007f401
    be14:	21bdb87a 			; <UNDEFINED> instruction: 0x21bdb87a
    be18:	d832f2af 	ldmdale	r2!, {r0, r1, r2, r3, r5, r7, r9, ip, sp, lr, pc}
    be1c:	90b3e481 	adcsls	lr, r3, r1, lsl #9
    be20:	dc2d4db1 	stcle	13, cr4, [sp], #-708	; 0xfffffd3c
    be24:	c8fc56ad 	ldmgt	ip!, {r0, r2, r3, r5, r7, r9, sl, ip, lr}^
    be28:	406380dd 	ldrdmi	r8, [r3], #-13	; <UNPREDICTABLE>
    be2c:	7152242c 	cmpvc	r2, ip, lsr #8
    be30:	f5c51ce2 			; <UNDEFINED> instruction: 0xf5c51ce2
    be34:	5235c77d 	eorspl	ip, r5, #32768000	; 0x1f40000
    be38:	72046401 	andvc	r6, r4, #16777216	; 0x1000000
    be3c:	f5575e9d 			; <UNDEFINED> instruction: 0xf5575e9d
    be40:	cf2cb023 	svcgt	0x002cb023
    be44:	add4ac1e 	ldclge	12, cr10, [r4, #120]	; 0x78
    be48:	ab322aad 	blge	c96904 <ZAG+0xc88aec>
    be4c:	2589491a 	strcs	r4, [r9, #2330]	; 0x91a
    be50:	4a0d599e 	bmi	3624d0 <ZAG+0x3546b8>
    be54:	4f123a79 	svcmi	0x00123a79
    be58:	8066d496 	mlshi	r6, r6, r4, sp
    be5c:	a40159e2 	strge	r5, [r1], #-2530	; 0x9e2
    be60:	d4f1a955 	ldrbtle	sl, [r1], #2389	; 0x955
    be64:	24c34e4a 	strbcs	r4, [r3], #3658	; 0xe4a
    be68:	2453a332 	ldrbcs	sl, [r3], #-818	; 0x332
    be6c:	993d9038 	ldmdbls	sp!, {r3, r4, r5, ip, pc}
    be70:	47dbc719 	bfimi	ip, r9, #14, #14
    be74:	0e5cadf1 	mrceq	13, 2, sl, cr12, cr1, {7}
    be78:	a797a606 	ldrge	sl, [r7, r6, lsl #12]
    be7c:	136a3894 	cmnne	sl, #148, 16	; 0x940000
    be80:	d1786ea3 	cmnle	r8, r3, lsr #29
    be84:	e4954d9a 	ldr	r4, [r5], #3482	; 0xd9a
    be88:	bb4a3c55 	bllt	129afe4 <ZAG+0x128d1cc>
    be8c:	5fc1e16f 	svcpl	0x00c1e16f
    be90:	c03f903b 	eorsgt	r9, pc, fp, lsr r0	; <UNPREDICTABLE>
    be94:	9ea48721 	cdpls	7, 10, cr8, cr4, cr1, {1}
    be98:	bbafe7e0 	bllt	fec05e20 <end+0xbeb05e20>
    be9c:	fbc5fab2 	blx	ff18a96e <end+0xbf08a96e>
    bea0:	421af18a 	andsmi	pc, sl, #-2147483614	; 0x80000022
    bea4:	4a565983 	bmi	15a24b8 <ZAG+0x15946a0>
    bea8:	bdda6653 	ldcllt	6, cr6, [sl, #332]	; 0x14c
    beac:	9b74c734 	blls	1d3db84 <ZAG+0x1d2fd6c>
    beb0:	ed0a8e33 	stc	14, cr8, [sl, #-204]	; 0xffffff34
    beb4:	6d7a8624 	ldclvs	6, cr8, [sl, #-144]!	; 0xffffff70
    beb8:	5bd2ba49 	blpl	ff4ba7e4 <end+0xbf3ba7e4>
    bebc:	2fb51734 	svccs	0x00b51734
    bec0:	2a3531aa 	bcs	d58570 <ZAG+0xd4a758>
    bec4:	a4755284 	ldrbtge	r5, [r5], #-644	; 0x284
    bec8:	0040c549 	subeq	ip, r0, r9, asr #10
    becc:	493b3368 	ldmdbmi	fp!, {r3, r5, r6, r8, r9, ip, sp}
    bed0:	c8c82596 	stmiagt	r8, {r1, r2, r4, r7, r8, sl, sp}^
    bed4:	4cbd40a8 	ldcmi	0, cr4, [sp], #672	; 0x2a0
    bed8:	f4715d47 			; <UNDEFINED> instruction: 0xf4715d47
    bedc:	cf85a3e0 	svcgt	0x0085a3e0
    bee0:	8e2b63b7 	mcrhi	3, 1, r6, cr11, cr7, {5}
    bee4:	b75833b7 			; <UNDEFINED> instruction: 0xb75833b7
    bee8:	654a16f1 	strbvs	r1, [sl, #-1777]	; 0x6f1
    beec:	80e04792 	smlalhi	r4, r0, r2, r7
    bef0:	c4013228 	strgt	r3, [r1], #-552	; 0x228
    bef4:	c90b24ec 	stmdbgt	fp, {r2, r3, r5, r6, r7, sl, sp}
    bef8:	c7212958 			; <UNDEFINED> instruction: 0xc7212958
    befc:	3f997a20 	svccc	0x00997a20
    bf00:	8fe3da4d 	svchi	0x00e3da4d
    bf04:	d0c07fa5 	sbcle	r7, r0, r5, lsr #31
    bf08:	28b5965a 	ldmcs	r5!, {r1, r3, r4, r6, r9, sl, ip, pc}
    bf0c:	ef486ad3 	svc	0x00486ad3
    bf10:	1059608d 	subsne	r6, r9, sp, lsl #1
    bf14:	9e263e87 	cdpls	14, 2, cr3, cr6, cr7, {4}
    bf18:	dc678945 	stclle	9, cr8, [r7], #-276	; 0xfffffeec
    bf1c:	31806041 	orrcc	r6, r0, r1, asr #32
    bf20:	fffca952 			; <UNDEFINED> instruction: 0xfffca952
    bf24:	df5c6800 	svcle	0x005c6800
    bf28:	0add3ddc 	beq	ff75b6a0 <end+0xbf65b6a0>
    bf2c:	6424eb14 	strtvs	lr, [r4], #-2836	; 0xb14
    bf30:	5a86dc81 	bpl	fe1c313c <end+0xbe0c313c>
    bf34:	4a242e80 	bmi	91793c <ZAG+0x909b24>
    bf38:	26e58db2 			; <UNDEFINED> instruction: 0x26e58db2
    bf3c:	b24a577c 	sublt	r5, sl, #124, 14	; 0x1f00000
    bf40:	27573b46 	ldrbcs	r3, [r7, -r6, asr #22]
    bf44:	4cdc2d9f 	ldclmi	13, cr2, [ip], {159}	; 0x9f
    bf48:	e4698a48 	strbt	r8, [r9], #-2632	; 0xa48
    bf4c:	9e5825a7 	cdpls	5, 5, cr2, cr8, cr7, {5}
    bf50:	a28c355a 	addge	r3, ip, #377487360	; 0x16800000
    bf54:	8c142f0b 	ldchi	15, cr2, [r4], {11}
    bf58:	8b8da651 	blhi	fe3758a4 <end+0xbe2758a4>
    bf5c:	26d2f1ef 	ldrbcs	pc, [r2], pc, ror #3	; <UNPREDICTABLE>
    bf60:	388f7f55 	stmcc	pc, {r0, r2, r4, r6, r8, r9, sl, fp, ip, sp, lr}	; <UNPREDICTABLE>
    bf64:	902ac940 	eorls	ip, sl, r0, asr #18
    bf68:	53ad52dc 			; <UNDEFINED> instruction: 0x53ad52dc
    bf6c:	6761ec84 	strbvs	lr, [r1, -r4, lsl #25]!
    bf70:	fe56d6c7 	cdp2	6, 5, cr13, cr6, cr7, {6}
    bf74:	65cc592d 	strbvs	r5, [ip, #2349]	; 0x92d
    bf78:	ae2ad339 	mcrge	3, 1, sp, cr10, cr9, {1}
    bf7c:	140546ae 	strne	r4, [r5], #-1710	; 0x6ae
    bf80:	6919ac92 	ldmdbvs	r9, {r1, r4, r7, sl, fp, sp, pc}
    bf84:	c888e2fe 	stmgt	r8, {r1, r2, r3, r4, r5, r6, r7, r9, sp, lr, pc}
    bf88:	5a1d4e1a 	bpl	75f7f8 <ZAG+0x7519e0>
    bf8c:	c5ede7a6 	strbgt	lr, [sp, #1958]!	; 0x7a6
    bf90:	747b43d5 	ldrbtvc	r4, [fp], #-981	; 0x3d5
    bf94:	20b73400 	adcscs	r3, r7, r0, lsl #8
    bf98:	95418cb8 	strbls	r8, [r1, #-3256]	; 0xcb8
    bf9c:	27a820f1 			; <UNDEFINED> instruction: 0x27a820f1
    bfa0:	a6e563cf 	strbtge	r6, [r5], pc, asr #7
    bfa4:	19c3c874 	stmibne	r3, {r2, r4, r5, r6, fp, lr, pc}^
    bfa8:	8b1e6a50 	blhi	7a68f0 <ZAG+0x798ad8>
    bfac:	78ec0c6a 	stmiavc	ip!, {r1, r3, r5, r6, sl, fp}^
    bfb0:	54c888e3 	strbpl	r8, [r8], #2275	; 0x8e3
    bfb4:	b51063c7 	ldrlt	r6, [r0, #-967]	; 0x3c7
    bfb8:	efdfc5b6 	svc	0x00dfc5b6
    bfbc:	cf560c4b 	svcgt	0x00560c4b
    bfc0:	83d0fb38 	bicshi	pc, r0, #56, 22	; 0xe000
    bfc4:	103128b3 	ldrhtne	r2, [r1], -r3
    bfc8:	2aee9817 	bcs	ffbb202c <end+0xbfab202c>
    bfcc:	fac4cac8 	blx	ff13eaf4 <end+0xbf03eaf4>
    bfd0:	57eb37a0 	strbpl	r3, [fp, r0, lsr #15]!
    bfd4:	95dc716b 	ldrbls	r7, [ip, #363]	; 0x16b
    bfd8:	f7a4bf56 			; <UNDEFINED> instruction: 0xf7a4bf56
    bfdc:	121c6915 	andsne	r6, ip, #344064	; 0x54000
    bfe0:	b4a734ad 	strtlt	r3, [r7], #1197	; 0x4ad
    bfe4:	37aba42a 	strcc	sl, [fp, sl, lsr #8]!
    bfe8:	7c308bcb 	ldcvc	11, cr8, [r0], #-812	; 0xfffffcd4
    bfec:	53607ac1 	cmnpl	r0, #790528	; 0xc1000
    bff0:	b1f8e93e 	mvnslt	lr, lr, lsr r9
    bff4:	baa09625 	blt	fe831890 <end+0xbe731890>
    bff8:	0eb9947b 	mrceq	4, 5, r9, cr9, cr11, {3}
    bffc:	2d409081 	stclcs	0, cr9, [r0, #-516]	; 0xfffffdfc
    c000:	ee6f3348 	cdp	3, 6, cr3, cr15, cr8, {2}
    c004:	1bc13a58 	blne	ff05a96c <end+0xbef5a96c>
    c008:	96894358 	pkhtbls	r4, r9, r8, asr #6
    c00c:	e405983e 	str	r9, [r5], #-2110	; 0x83e
    c010:	31af058b 			; <UNDEFINED> instruction: 0x31af058b
    c014:	639bee06 	orrsvs	lr, fp, #6, 28	; 0x60
    c018:	f5eaf752 			; <UNDEFINED> instruction: 0xf5eaf752
    c01c:	6777501d 			; <UNDEFINED> instruction: 0x6777501d
    c020:	5e210892 	mcrpl	8, 1, r0, cr1, cr2, {4}
    c024:	585deb4a 	ldmdapl	sp, {r1, r3, r6, r8, r9, fp, sp, lr, pc}^
    c028:	b0b12cf3 	ldrshtlt	r2, [r1], r3
    c02c:	1f091a63 	svcne	0x00091a63
    c030:	db06bb60 	blle	1badb8 <ZAG+0x1acfa0>
    c034:	0e6b9dca 	cdpeq	13, 6, cr9, cr11, cr10, {6}
    c038:	363eefd0 			; <UNDEFINED> instruction: 0x363eefd0
    c03c:	1a5977a7 	bne	1669ee0 <ZAG+0x165c0c8>
    c040:	aa4271ab 	bge	10a86f4 <ZAG+0x109a8dc>
    c044:	0b492983 	bleq	1256658 <ZAG+0x1248840>
    c048:	aa7328b9 	bge	1cd6334 <ZAG+0x1cc851c>
    c04c:	9e87d5b4 	mcrls	5, 4, sp, cr7, cr4, {5}
    c050:	5653cbe5 	ldrbpl	ip, [r3], -r5, ror #23
    c054:	90059ca9 	andls	r9, r5, r9, lsr #25
    c058:	ddbd6ebd 	ldcle	14, cr6, [sp, #756]!	; 0x2f4
    c05c:	00ff561a 	rscseq	r5, pc, sl, lsl r6	; <UNPREDICTABLE>
    c060:	a919d13d 	ldmdbge	r9, {r0, r2, r3, r4, r5, r8, ip, lr, pc}
    c064:	26a38f13 	ssatcs	r8, #4, r3, lsl #30
    c068:	43fa9f14 	mvnsmi	r9, #20, 30	; 0x50
    c06c:	431cf347 	tstmi	ip, #469762049	; 0x1c000001
    c070:	97c4c848 	strbls	ip, [r4, r8, asr #16]
    c074:	8c4eb6e7 	mcrrhi	6, 14, fp, lr, cr7
    c078:	689a5eea 	ldmvs	sl, {r1, r3, r5, r6, r7, r9, sl, fp, ip, lr}
    c07c:	34ccb97b 	strbcc	fp, [ip], #2427	; 0x97b
    c080:	a19efc18 	orrsge	pc, lr, r8, lsl ip	; <UNPREDICTABLE>
    c084:	5c62cecd 	stclpl	14, cr12, [r2], #-820	; 0xfffffccc
    c088:	cc305b8d 	ldcgt	11, cr5, [r0], #-564	; 0xfffffdcc
    c08c:	41c6a895 			; <UNDEFINED> instruction: 0x41c6a895
    c090:	0f5cb68f 	svceq	0x005cb68f
    c094:	3e9798f9 	mrccc	8, 4, r9, cr7, cr9, {7}
    c098:	92b02848 	adcsls	r2, r0, #72, 16	; 0x480000
    c09c:	f901bfa1 			; <UNDEFINED> instruction: 0xf901bfa1
    c0a0:	b2e1bc4a 	rsclt	fp, r1, #18944	; 0x4a00
    c0a4:	83d4db53 	bicshi	sp, r4, #84992	; 0x14c00
    c0a8:	62727254 	rsbsvs	r7, r2, #84, 4	; 0x40000005
    c0ac:	6b2c5052 	blvs	b201fc <ZAG+0xb123e4>
    c0b0:	f72d8117 			; <UNDEFINED> instruction: 0xf72d8117
    c0b4:	a41e00f6 	ldrge	r0, [lr], #-246	; 0xf6
    c0b8:	4e791082 	cdpmi	0, 7, cr1, cr9, cr2, {4}
    c0bc:	aee48e5b 	mcrge	14, 7, r8, cr4, cr11, {2}
    c0c0:	65c62b85 	strbvs	r2, [r6, #2949]	; 0xb85
    c0c4:	247d4ca7 	ldrbtcs	r4, [sp], #-3239	; 0xca7
    c0c8:	b9cf2530 	stmiblt	pc, {r4, r5, r8, sl, sp}^	; <UNPREDICTABLE>
    c0cc:	7d3dfa89 	vldmdbvc	sp!, {s30-s166}
    c0d0:	3db2938c 	ldccc	3, cr9, [r2, #560]!	; 0x230
    c0d4:	faa775af 	blx	fe9e9798 <end+0xbe8e9798>
    c0d8:	5683f459 	pkhtbpl	pc, r3, r9, asr #8	; <UNPREDICTABLE>
    c0dc:	4fce7e51 	svcmi	0x00ce7e51
    c0e0:	d8d48121 	ldmle	r4, {r0, r5, r8, pc}^
    c0e4:	cd335b5c 	vldmdbgt	r3!, {d5-<overflow reg d50>}
    c0e8:	602eb584 	eorvs	fp, lr, r4, lsl #11
    c0ec:	2bc989ac 	blcs	ff26e7a4 <end+0xbf16e7a4>
    c0f0:	5ad69a7c 	bpl	ff5b2ae8 <end+0xbf4b2ae8>
    c0f4:	52892659 	addpl	r2, r9, #93323264	; 0x5900000
    c0f8:	85e04814 	strbhi	r4, [r0, #2068]!	; 0x814
    c0fc:	9921e422 	stmdbls	r1!, {r1, r5, sl, sp, lr, pc}
    c100:	11e8360b 	mvnne	r3, fp, lsl #12
    c104:	ab5b83ab 	blge	16ecfb8 <ZAG+0x16df1a0>
    c108:	beb6357b 	mrclt	5, 5, r3, cr6, cr11, {3}
    c10c:	6654a965 	ldrbvs	sl, [r4], -r5, ror #18
    c110:	5cc0a95d 	stclpl	9, cr10, [r0], {93}	; 0x5d
    c114:	0210938b 	andseq	r9, r0, #738197506	; 0x2c000002
    c118:	d269889c 	rsble	r8, r9, #156, 16	; 0x9c0000
    c11c:	92490c7b 	subls	r0, r9, #31488	; 0x7b00
    c120:	d2ec1225 	rscle	r1, ip, #1342177282	; 0x50000002
    c124:	b4575cab 	ldrblt	r5, [r7], #-3243	; 0xcab
    c128:	0558aa52 	ldrbeq	sl, [r8, #-2642]	; 0xa52
    c12c:	5dc060cf 	stclpl	0, cr6, [r0, #828]	; 0x33c
    c130:	9fc24a79 	svcls	0x00c24a79
    c134:	cb103179 	blgt	418720 <ZAG+0x40a908>
    c138:	5fe901a0 	svcpl	0x00e901a0
    c13c:	c57bc085 	ldrbgt	ip, [fp, #-133]!	; 0x85
    c140:	fcbbd8d6 	ldc2	8, cr13, [fp], #856	; 0x358
    c144:	490d1872 	stmdbmi	sp, {r1, r4, r5, r6, fp, ip}
    c148:	12735ffa 	rsbsne	r5, r3, #1000	; 0x3e8
    c14c:	cc95a69a 	ldcgt	6, cr10, [r5], {154}	; 0x9a
    c150:	917cdc65 	cmnls	ip, r5, ror #24
    c154:	31bf88c6 			; <UNDEFINED> instruction: 0x31bf88c6
    c158:	e925718d 	stmdb	r5!, {r0, r2, r3, r7, r8, ip, sp, lr}
    c15c:	45da71ec 	ldrbmi	r7, [sl, #492]	; 0x1ec
    c160:	82dce38d 	sbcshi	lr, ip, #872415234	; 0x34000002
    c164:	9858c4bb 	ldmdals	r8, {r0, r1, r3, r4, r5, r7, sl, lr, pc}^
    c168:	da2d67dc 	ble	b660e0 <ZAG+0xb582c8>
    c16c:	55374fdc 	ldrpl	r4, [r7, #-4060]!	; 0xfdc
    c170:	0dd2dc6b 	ldcleq	12, cr13, [r2, #428]	; 0x1ac
    c174:	982e4b04 	stmdals	lr!, {r2, r8, r9, fp, lr}
    c178:	8c8869c4 	stchi	9, cr6, [r8], {196}	; 0xc4
    c17c:	2c370084 	ldccs	0, cr0, [r7], #-528	; 0xfffffdf0
    c180:	3341e204 	movtcc	lr, #4612	; 0x1204
    c184:	23b725d3 			; <UNDEFINED> instruction: 0x23b725d3
    c188:	d08bca5a 	addle	ip, fp, sl, asr sl
    c18c:	b06b3475 	rsblt	r3, fp, r5, ror r4
    c190:	d30a0cf1 	movwle	r0, #44273	; 0xacf1
    c194:	4100f5f7 	strdmi	pc, [r0, -r7]
    c198:	fc9189c5 	ldc2	9, cr8, [r1], {197}	; 0xc5
    c19c:	11b38794 			; <UNDEFINED> instruction: 0x11b38794
    c1a0:	a7fa271d 			; <UNDEFINED> instruction: 0xa7fa271d
    c1a4:	5e401316 	mcrpl	3, 2, r1, cr0, cr6, {0}
    c1a8:	39cd69ce 	stmibcc	sp, {r1, r2, r3, r6, r7, r8, fp, sp, lr}^
    c1ac:	1a76357f 	bne	1d997b0 <ZAG+0x1d8b998>
    c1b0:	86e169d9 	usathi	r6, #1, r9, asr #19
    c1b4:	3f146abe 	svccc	0x00146abe
    c1b8:	2a92c6a7 	bcs	fe4bdc5c <end+0xbe3bdc5c>
    c1bc:	5aaf8eb4 	bpl	febefc94 <end+0xbeaefc94>
    c1c0:	0dabdd2e 	stceq	13, cr13, [fp, #184]!	; 0xb8
    c1c4:	690f2956 	stmdbvs	pc, {r1, r2, r4, r6, r8, fp, sp}	; <UNPREDICTABLE>
    c1c8:	89c2ed23 	stmibhi	r2, {r0, r1, r5, r8, sl, fp, sp, lr, pc}^
    c1cc:	dda53413 	cfstrsle	mvf3, [r5, #76]!	; 0x4c
    c1d0:	2cceeb62 	vstmiacs	lr, {d30-<overflow reg d78>}
    c1d4:	692ce553 	stmdbvs	ip!, {r0, r1, r4, r6, r8, sl, sp, lr, pc}
    c1d8:	c160b953 	cmngt	r0, r3, asr r9
    c1dc:	7232c1e9 	eorsvc	ip, r2, #1073741882	; 0x4000003a
    c1e0:	c3b41871 			; <UNDEFINED> instruction: 0xc3b41871
    c1e4:	5b65264c 	blpl	1955b1c <ZAG+0x1947d04>
    c1e8:	26213f29 	strtcs	r3, [r1], -r9, lsr #30
    c1ec:	d2948110 	addsle	r8, r4, #16, 2
    c1f0:	ae6ceeb7 	mcrge	14, 3, lr, cr12, cr7, {5}
    c1f4:	2caec28d 	sfmcs	f4, 1, [lr], #564	; 0x234
    c1f8:	31800c8c 	orrcc	r0, r0, ip, lsl #25
    c1fc:	402cf904 	eormi	pc, ip, r4, lsl #18
    c200:	c74a0cc6 	strbgt	r0, [sl, -r6, asr #25]
    c204:	1da95189 	stfnes	f5, [r9, #548]!	; 0x224
    c208:	638de965 	orrvs	lr, sp, #1654784	; 0x194000
    c20c:	e077d69b 			; <UNDEFINED> instruction: 0xe077d69b
    c210:	c75712d3 	smmlsgt	r7, r3, r2, r1
    c214:	cde52d64 	stclgt	13, cr2, [r5, #400]!	; 0x190
    c218:	ee09555c 	cfrshl32	mvfx9, mvfx12, r5
    c21c:	1cd395d7 	cfldr64ne	mvdx9, [r3], {215}	; 0xd7
    c220:	d0707c38 	rsbsle	r7, r0, r8, lsr ip
    c224:	cb788756 	blgt	1e2df84 <ZAG+0x1e2016c>
    c228:	6eb16db4 	mrcvs	13, 5, r6, cr1, cr4, {5}
    c22c:	fbf2b2c4 	blx	ffcb8d46 <end+0xbfbb8d46>
    c230:	91a7b4c7 			; <UNDEFINED> instruction: 0x91a7b4c7
    c234:	676d7121 	strbvs	r7, [sp, -r1, lsr #2]!
    c238:	6037d0c4 	eorsvs	sp, r7, r4, asr #1
    c23c:	96605a30 			; <UNDEFINED> instruction: 0x96605a30
    c240:	739b59c6 	orrsvc	r5, fp, #3244032	; 0x318000
    c244:	ef5cd0e4 	svc	0x005cd0e4
    c248:	fa08c867 	blx	23e3ec <ZAG+0x2305d4>
    c24c:	36a167fc 			; <UNDEFINED> instruction: 0x36a167fc
    c250:	2eee74f6 	mcrcs	4, 7, r7, cr14, cr6, {7}
    c254:	4553e999 	ldrbmi	lr, [r3, #-2457]	; 0x999
    c258:	c26452a9 	rsbgt	r5, r4, #-1879048182	; 0x9000000a
    c25c:	fccede20 	stc2l	14, cr13, [lr], {32}
    c260:	f3e34f54 	vcvt.u32.f32	q10, q2, #29
    c264:	92eab811 	rscls	fp, sl, #1114112	; 0x110000
    c268:	03f7eca9 	mvnseq	lr, #43264	; 0xa900
    c26c:	2f0ef5ab 	svccs	0x000ef5ab
    c270:	2eb5e454 	mrccs	4, 5, lr, cr5, cr4, {2}
    c274:	46bdd4b2 			; <UNDEFINED> instruction: 0x46bdd4b2
    c278:	b6eda8a5 	strbtlt	sl, [sp], r5, lsr #17
    c27c:	12678636 	rsbne	r8, r7, #56623104	; 0x3600000
    c280:	645e4f5f 	ldrbvs	r4, [lr], #-3935	; 0xf5f
    c284:	687c1c79 	ldmdavs	ip!, {r0, r3, r4, r5, r6, sl, fp, ip}^
    c288:	559a9662 	ldrpl	r9, [sl, #1634]	; 0x662
    c28c:	da954865 	ble	fe55e428 <end+0xbe45e428>
    c290:	a28d5cbb 	addge	r5, sp, #47872	; 0xbb00
    c294:	3cb1ac92 	ldccc	12, cr10, [r1], #584	; 0x248
    c298:	e781c36d 	str	ip, [r1, sp, ror #6]
    c29c:	f7c2eb6b 			; <UNDEFINED> instruction: 0xf7c2eb6b
    c2a0:	fa322a39 	blx	c96b8c <ZAG+0xc88d74>
    c2a4:	4463a52a 	strbtmi	sl, [r3], #-1322	; 0x52a
    c2a8:	07930002 	ldreq	r0, [r3, r2]
    c2ac:	e076e451 	rsbs	lr, r6, r1, asr r4
    c2b0:	3a264064 	bcc	99c448 <ZAG+0x98e630>
    c2b4:	36dba76d 	ldrbcc	sl, [fp], sp, ror #14
    c2b8:	29516f49 	ldmdbcs	r1, {r0, r3, r6, r8, r9, sl, fp, sp, lr}^
    c2bc:	2c9b628a 	lfmcs	f6, 4, [fp], {138}	; 0x8a
    c2c0:	331a5639 	tstcc	sl, #59768832	; 0x3900000
    c2c4:	e622c889 	strt	ip, [r2], -r9, lsl #17
    c2c8:	20069244 	andcs	r9, r6, r4, asr #4
    c2cc:	c8219081 	stmdagt	r1!, {r0, r7, ip, pc}
    c2d0:	66bc6612 	ssatvs	r6, #29, r2, lsl #12
    c2d4:	acd6dd1f 	ldclge	13, cr13, [r6], {31}
    c2d8:	05cd99d6 	strbeq	r9, [sp, #2518]	; 0x9d6
    c2dc:	6bc760a6 	blvs	ff1e457c <end+0xbf0e457c>
    c2e0:	4397b079 	orrsmi	fp, r7, #121	; 0x79
    c2e4:	192fde9c 	stmdbne	pc!, {r2, r3, r4, r7, r9, sl, fp, ip, lr, pc}	; <UNPREDICTABLE>
    c2e8:	334cb187 	movtcc	fp, #49543	; 0xc187
    c2ec:	a0b9fd46 	adcsge	pc, r9, r6, asr #26
    c2f0:	840ac9c8 	strhi	ip, [sl], #-2504	; 0x9c8
    c2f4:	005c8d57 	subseq	r8, ip, r7, asr sp
    c2f8:	f1ec1b1d 			; <UNDEFINED> instruction: 0xf1ec1b1d
    c2fc:	2733abb2 			; <UNDEFINED> instruction: 0x2733abb2
    c300:	d4f462ac 	ldrbtle	r6, [r4], #684	; 0x2ac
    c304:	ffe45570 			; <UNDEFINED> instruction: 0xffe45570
    c308:	f68f4d00 			; <UNDEFINED> instruction: 0xf68f4d00
    c30c:	01f4fad7 	ldrsbeq	pc, [r4, #167]!	; 0xa7	; <UNPREDICTABLE>
    c310:	ceda3abb 	mrcgt	10, 6, r3, cr10, cr11, {5}
    c314:	b5d4e9d9 	ldrblt	lr, [r4, #2521]	; 0x9d9
    c318:	52de1bc1 	sbcspl	r1, lr, #197632	; 0x30400
    c31c:	020c76ac 	andeq	r7, ip, #172, 12	; 0xac00000
    c320:	800039c4 	andhi	r3, r0, r4, asr #19
    c324:	d9035948 	stmdble	r3, {r3, r6, r8, fp, ip, lr}
    c328:	f6e5ea89 			; <UNDEFINED> instruction: 0xf6e5ea89
    c32c:	b6ccd39f 			; <UNDEFINED> instruction: 0xb6ccd39f
    c330:	43bee99a 			; <UNDEFINED> instruction: 0x43bee99a
    c334:	281eee1f 	ldmdacs	lr, {r0, r1, r2, r3, r4, r9, sl, fp, sp, lr, pc}
    c338:	37bb1635 			; <UNDEFINED> instruction: 0x37bb1635
    c33c:	850f6f4f 	strhi	r6, [pc, #-3919]	; b3f5 <jpegdata+0x9045>
    c340:	b790c3c3 	ldrlt	ip, [r0, r3, asr #7]
    c344:	68b0ab82 	ldmvs	r0!, {r1, r7, r8, r9, fp, sp, pc}
    c348:	2b63f3fb 	blcs	190933c <ZAG+0x18fb524>
    c34c:	72962299 	addsvc	r2, r6, #-1879048183	; 0x90000009
    c350:	b2f2fe5d 	rscslt	pc, r2, #1488	; 0x5d0
    c354:	5e184bb4 	vmovpl.s16	r4, d24[0]
    c358:	b1be4a24 			; <UNDEFINED> instruction: 0xb1be4a24
    c35c:	03f1d7bd 	mvnseq	sp, #49545216	; 0x2f40000
    c360:	d21f96b1 	andsle	r9, pc, #185597952	; 0xb100000
    c364:	31b07f62 	rorscc	r7, r2, #30
    c368:	ddd6ef3f 	ldclle	15, cr14, [r6, #252]	; 0xfc
    c36c:	fd526daf 	ldc2l	13, cr6, [r2, #-700]	; 0xfffffd44
    c370:	a4d1d983 	ldrbge	sp, [r1], #2435	; 0x983
    c374:	99588512 	ldmdbls	r8, {r1, r4, r8, sl, pc}^
    c378:	d2e2037c 	rscle	r0, r2, #124, 6	; 0xf0000001
    c37c:	be94993c 	mrclt	9, 4, r9, cr4, cr12, {1}
    c380:	3e4efd2d 	cdpcc	13, 4, cr15, cr14, cr13, {1}
    c384:	d21a3db5 	andsle	r3, sl, #11584	; 0x2d40
    c388:	cedacbe9 	vfnmagt.f64	d28, d26, d25
    c38c:	9af474e2 	bls	ffd2971c <end+0xbfc2971c>
    c390:	e8b2594a 	ldm	r2!, {r1, r3, r6, r8, fp, ip, lr}
    c394:	8bf8ec1e 	blhi	ffe47414 <end+0xbfd47414>
    c398:	ba78f1d7 	blt	1e48afc <ZAG+0x1e3ace4>
    c39c:	888c5b8b 	stmhi	ip, {r0, r1, r3, r7, r8, r9, fp, ip, lr}
    c3a0:	2e092626 	cfmadd32cs	mvax1, mvfx2, mvfx9, mvfx6
    c3a4:	857b5964 	ldrbhi	r5, [fp, #-2404]!	; 0x964
    c3a8:	29236317 	stmdbcs	r3!, {r0, r1, r2, r4, r8, r9, sp, lr}
    c3ac:	5055f973 	subspl	pc, r5, r3, ror r9	; <UNPREDICTABLE>
    c3b0:	5dde0a83 	vldrpl	s1, [lr, #524]	; 0x20c
    c3b4:	fecc9e7c 	mcr2	14, 6, r9, cr12, cr12, {3}
    c3b8:	f647200e 			; <UNDEFINED> instruction: 0xf647200e
    c3bc:	f4fc3ff2 			; <UNDEFINED> instruction: 0xf4fc3ff2
    c3c0:	7669af42 	strbtvc	sl, [r9], -r2, asr #30
    c3c4:	f02bb1d1 			; <UNDEFINED> instruction: 0xf02bb1d1
    c3c8:	070ca4a8 	streq	sl, [ip, -r8, lsr #9]
    c3cc:	16aa5951 	ssatne	r5, #11, r1, asr #18
    c3d0:	e2e78299 	rsc	r8, r7, #-1879048183	; 0x90000009
    c3d4:	7d74a243 	lfmvc	f2, 3, [r4, #-268]!	; 0xfffffef4
    c3d8:	0f90682c 	svceq	0x0090682c
    c3dc:	6f579d5d 	svcvs	0x00579d5d
    c3e0:	62ce9c1d 	sbcvs	r9, lr, #7424	; 0x1d00
    c3e4:	9dac9634 	stcls	6, cr9, [ip, #208]!	; 0xd0
    c3e8:	1917ee74 	ldmdbne	r7, {r2, r4, r5, r6, r9, sl, fp, sp, lr, pc}
    c3ec:	4e3ca20c 	cdpmi	2, 3, cr10, cr12, cr12, {0}
    c3f0:	1635cc32 			; <UNDEFINED> instruction: 0x1635cc32
    c3f4:	f6108ca8 			; <UNDEFINED> instruction: 0xf6108ca8
    c3f8:	d0847c5e 	addle	r7, r4, lr, asr ip
    c3fc:	e2186ecb 	ands	r6, r8, #3248	; 0xcb0
    c400:	b10c6986 	smlabblt	ip, r6, r9, r6
    c404:	a4c5e354 	strbge	lr, [r5], #852	; 0x354
    c408:	1c8524e3 	cfstrsne	mvf2, [r5], {227}	; 0xe3
    c40c:	b73a8b9d 			; <UNDEFINED> instruction: 0xb73a8b9d
    c410:	1a25b306 	bne	979030 <ZAG+0x96b218>
    c414:	00b21379 	adcseq	r1, r2, r9, ror r3
    c418:	ec132df5 	ldc	13, cr2, [r3], {245}	; 0xf5
    c41c:	611f0b12 	tstvs	pc, r2, lsl fp	; <UNPREDICTABLE>
    c420:	4f024876 	svcmi	0x00024876
    c424:	68c79c5a 	stmiavs	r7, {r1, r3, r4, r6, sl, fp, ip, pc}^
    c428:	6ddc97f1 	ldclvs	7, cr9, [ip, #964]	; 0x3c4
    c42c:	25b26a10 	ldrcs	r6, [r2, #2576]!	; 0xa10
    c430:	9b962f3d 	blls	fe59812c <end+0xbe49812c>
    c434:	4a8540c7 	bmi	fe15c758 <end+0xbe05c758>
    c438:	8000ac8a 	andhi	sl, r0, sl, lsl #25
    c43c:	4940ae1a 	stmdbmi	r0, {r1, r3, r4, r9, sl, fp, sp, pc}^
    c440:	27d40620 	ldrbcs	r0, [r4, r0, lsr #12]
    c444:	d6057bee 	strle	r7, [r5], -lr, ror #23
    c448:	66b6887e 	sxtahvs	r8, r6, lr, ror #16
    c44c:	0347563c 	movteq	r5, #30268	; 0x763c
    c450:	5b2674a8 	blpl	9a96f8 <ZAG+0x99b8e0>
    c454:	9e4a1e15 	mcrls	14, 2, r1, cr10, cr5, {0}
    c458:	13e47ca6 	mvnne	r7, #42496	; 0xa600
    c45c:	f114a9db 			; <UNDEFINED> instruction: 0xf114a9db
    c460:	68569176 	ldmdavs	r6, {r1, r2, r4, r5, r6, r8, ip, pc}^
    c464:	66f3a292 	usatvs	sl, #19, r2, lsl #5
    c468:	2961598e 	stmdbcs	r1!, {r1, r2, r3, r7, r8, fp, ip, lr}^
    c46c:	2351665f 	cmpcs	r1, #99614720	; 0x5f00000
    c470:	cd047186 	stfgts	f7, [r4, #-536]	; 0xfffffde8
    c474:	4e3bfb19 	vmovmi.32	pc, d11[1]
    c478:	c635e742 	ldrtgt	lr, [r5], -r2, asr #14
    c47c:	3149ca08 	cmpcc	r9, r8, lsl #20
    c480:	b8914405 	ldmlt	r1, {r0, r2, sl, lr}
    c484:	80098088 	andhi	r8, r9, r8, lsl #1
    c488:	46649815 			; <UNDEFINED> instruction: 0x46649815
    c48c:	ce2b9540 	cfsh64gt	mvdx9, mvdx11, #32
    c490:	7abee1d8 	bvc	fefc4bf8 <end+0xbeec4bf8>
    c494:	a770424f 	ldrbge	r4, [r0, -pc, asr #4]!
    c498:	5e462110 	mcrpl	1, 2, r2, cr6, cr0, {0}
    c49c:	91c7bc45 	bicls	fp, r7, r5, asr #24
    c4a0:	b18d2469 	orrlt	r2, sp, r9, ror #8
    c4a4:	00024025 	andeq	r4, r2, r5, lsr #32
    c4a8:	733a4f00 	teqvc	sl, #0, 30
    c4ac:	ae6c6a55 	mcrge	10, 3, r6, cr12, cr5, {2}
    c4b0:	bb891b1b 	bllt	fe253124 <end+0xbe153124>
    c4b4:	f9b532a9 			; <UNDEFINED> instruction: 0xf9b532a9
    c4b8:	eaaf7734 	b	febea190 <end+0xbeaea190>
    c4bc:	26233f8d 	strtcs	r3, [r3], -sp, lsl #31
    c4c0:	b574a041 	ldrblt	sl, [r4, #-65]!	; 0x41
    c4c4:	e45e8edb 	ldrb	r8, [lr], #-3803	; 0xedb
    c4c8:	a54c0bf1 	strbge	r0, [ip, #-3057]	; 0xbf1
    c4cc:	17bf9015 			; <UNDEFINED> instruction: 0x17bf9015
    c4d0:	94a6dd2a 	strtls	sp, [r6], #3370	; 0xd2a
    c4d4:	f1085024 			; <UNDEFINED> instruction: 0xf1085024
    c4d8:	37911b1e 			; <UNDEFINED> instruction: 0x37911b1e
    c4dc:	18128da2 	ldmdane	r2, {r1, r5, r7, r8, sl, fp, pc}
    c4e0:	130407b2 	movwne	r0, #18354	; 0x47b2
    c4e4:	07a884e4 	streq	r8, [r8, r4, ror #9]!
    c4e8:	1f6723d0 	svcne	0x006723d0
    c4ec:	23273120 	teqcs	r7, #32, 2
    c4f0:	291e2c09 	ldmdbcs	lr, {r0, r3, sl, fp, sp}
    c4f4:	78557158 	ldmdavc	r5, {r3, r4, r6, r8, ip, sp, lr}^
    c4f8:	25b58acf 	ldrcs	r8, [r5, #2767]!	; 0xacf
    c4fc:	62204364 	eorvs	r4, r0, #100, 6	; 0x90000001
    c500:	b5625380 	strblt	r5, [r2, #-896]!	; 0x380
    c504:	f35a4665 	vmax.u16	q10, q5, <illegal reg q10.5>
    c508:	1eb119c5 	cdpne	9, 11, cr1, cr1, cr5, {6}
    c50c:	0ab76340 	beq	fede5214 <end+0xbece5214>
    c510:	35514f09 	ldrbcc	r4, [r1, #-3849]	; 0xf09
    c514:	c424693e 	strtgt	r6, [r4], #-2366	; 0x93e
    c518:	aad87365 	bge	ff6292b4 <end+0xbf5292b4>
    c51c:	bc4ffd99 	mcrrlt	13, 9, pc, pc, cr9	; <UNPREDICTABLE>
    c520:	562e6193 			; <UNDEFINED> instruction: 0x562e6193
    c524:	ad7ac1c8 	ldfgep	f4, [sl, #-800]!	; 0xfffffce0
    c528:	0b16ad68 	bleq	5b7ad0 <ZAG+0x5a9cb8>
    c52c:	fd8e6af3 	stc2	10, cr6, [lr, #972]	; 0x3cc
    c530:	15461a73 	strbne	r1, [r6, #-2675]	; 0xa73
    c534:	14c3bb5a 	strbne	fp, [r3], #2906	; 0xb5a
    c538:	3333f7a5 	teqcc	r3, #43253760	; 0x2940000
    c53c:	ee2514a7 	cdp	4, 2, cr1, cr5, cr7, {5}
    c540:	25904bfb 	ldrcs	r4, [r0, #3067]	; 0xbfb
    c544:	7f6aa870 	svcvc	0x006aa870
    c548:	ca280313 	bgt	a0d19c <ZAG+0x9ff384>
    c54c:	3d0e6304 	stccc	3, cr6, [lr, #-16]
    c550:	60e468f8 	strdvs	r6, [r4], #136	; 0x88	; <UNPREDICTABLE>
    c554:	3c647d00 	stclcc	13, cr7, [r4], #-0
    c558:	7161c5ba 	strhvc	ip, [r1, #-90]!	; 0xffffffa6
    c55c:	d99471c4 	ldmible	r4, {r2, r6, r7, r8, ip, sp, lr}
    c560:	23056d6c 	movwcs	r6, #23916	; 0x5d6c
    c564:	2419040c 	ldrcs	r0, [r9], #-1036	; 0x40c
    c568:	3139cb37 	teqcc	r9, r7, lsr fp
    c56c:	42cd15db 	sbcmi	r1, sp, #918552576	; 0x36c00000
    c570:	251626e5 	ldrcs	r2, [r6, #-1765]	; 0x6e5
    c574:	eb1e3a66 	bl	79af14 <ZAG+0x78d0fc>
    c578:	1dd5aba6 	vldrne	d26, [r5, #664]	; 0x298
    c57c:	0db9d577 	cfldr32eq	mvfx13, [r9, #476]!	; 0x1dc
    c580:	d9109e51 	ldmdble	r0, {r0, r4, r6, r9, sl, fp, ip, pc}
    c584:	f534e4cf 			; <UNDEFINED> instruction: 0xf534e4cf
    c588:	8dbb7d3c 	ldchi	13, cr7, [fp, #240]!	; 0xf0
    c58c:	a6f7b246 	ldrbtge	fp, [r7], r6, asr #4
    c590:	822522ae 	eorhi	r2, r5, #-536870902	; 0xe000000a
    c594:	64995d9e 	ldrvs	r5, [r9], #3486	; 0xd9e
    c598:	8467b768 	strbthi	fp, [r7], #-1896	; 0x768
    c59c:	a02e00c6 	eorge	r0, lr, r6, asr #1
    c5a0:	d1939194 			; <UNDEFINED> instruction: 0xd1939194
    c5a4:	8b9aec94 	blhi	fe6c77fc <end+0xbe5c77fc>
    c5a8:	ca2ce749 	bgt	b462d4 <ZAG+0xb384bc>
    c5ac:	32560696 	subscc	r0, r6, #157286400	; 0x9600000
    c5b0:	99481506 	stmdbls	r8, {r1, r2, r8, sl, ip}^
    c5b4:	e29d4896 	adds	r4, sp, #9830400	; 0x960000
    c5b8:	0cce30ad 	stcleq	0, cr3, [lr], {173}	; 0xad
    c5bc:	8a5c370c 	bhi	171a1f4 <ZAG+0x170c3dc>
    c5c0:	3e91f856 	mrccc	8, 4, APSR_nzcv, cr1, cr6, {2}
    c5c4:	f7bb5094 			; <UNDEFINED> instruction: 0xf7bb5094
    c5c8:	db3f66f7 	blle	fe61ac <ZAG+0xfd8394>
    c5cc:	e3fb6826 	mvns	r6, #2490368	; 0x260000
    c5d0:	05652612 	strbeq	r2, [r5, #-1554]!	; 0x612
    c5d4:	7ae6c09c 	bvc	ff9bc84c <end+0xbf8bc84c>
    c5d8:	8e9aaa77 	mrchi	10, 4, sl, cr10, cr7, {3}
    c5dc:	cac2bf46 	bgt	ff0bc2fc <end+0xbefbc2fc>
    c5e0:	973992d0 			; <UNDEFINED> instruction: 0x973992d0
    c5e4:	c0a8a48b 	adcgt	sl, r8, fp, lsl #9
    c5e8:	63299285 	teqvs	r9, #1342177288	; 0x50000008
    c5ec:	62490991 	subvs	r0, r9, #2375680	; 0x244000
    c5f0:	24916474 	ldrcs	r6, [r1], #1140	; 0x474
    c5f4:	eae8c842 	b	ffa3e704 <end+0xbf93e704>
    c5f8:	09acccca 	stmibeq	ip!, {r1, r3, r6, r7, sl, fp, lr, pc}
    c5fc:	080c3099 	stmdaeq	ip, {r0, r3, r4, r7, ip, sp}
    c600:	23b27e3f 			; <UNDEFINED> instruction: 0x23b27e3f
    c604:	d8c36014 	stmiale	r3, {r2, r4, sp, lr}^
    c608:	68c7e6ea 	stmiavs	r7, {r1, r3, r5, r6, r7, r9, sl, sp, lr, pc}^
    c60c:	3ae5a2de 	bcc	ff97518c <end+0xbf87518c>
    c610:	a575a723 	ldrbge	sl, [r5, #-1827]!	; 0x723
    c614:	1f4d18ea 	svcne	0x004d18ea
    c618:	d844364b 	stmdale	r4, {r0, r1, r3, r6, r9, sl, ip, sp}^
    c61c:	ccecf97a 	stclgt	9, cr15, [ip], #488	; 0x1e8
    c620:	9464ae54 	strbtls	sl, [r4], #-3668	; 0xe54
    c624:	92345e49 	eorsls	r5, r4, #1168	; 0x490
    c628:	85b67d24 	ldrhi	r7, [r6, #3364]!	; 0xd24
    c62c:	ba93c9da 	blt	fe4fed9c <end+0xbe3fed9c>
    c630:	278a05db 			; <UNDEFINED> instruction: 0x278a05db
    c634:	265ed976 			; <UNDEFINED> instruction: 0x265ed976
    c638:	6a1f7c7f 	bvs	7eb83c <ZAG+0x7dda24>
    c63c:	ff7025a7 			; <UNDEFINED> instruction: 0xff7025a7
    c640:	45313b00 	ldrmi	r3, [r1, #-2816]!	; 0xb00
    c644:	cc0c4a07 	stcgt	10, cr4, [ip], {7}
    c648:	60711231 	rsbsvs	r1, r1, r1, lsr r2
    c64c:	89e951a3 	stmibhi	r9!, {r0, r1, r5, r7, r8, ip, lr}^
    c650:	b2530524 	subslt	r0, r3, #36, 10	; 0x9000000
    c654:	282f2e37 	stmdacs	pc!, {r0, r1, r2, r4, r5, r9, sl, fp, sp}	; <UNPREDICTABLE>
    c658:	a4293521 	strtge	r3, [r9], #-1313	; 0x521
    c65c:	e8186ab3 	ldmda	r8, {r0, r1, r4, r5, r7, r9, fp, sp, lr}
    c660:	ffc4fe7a 			; <UNDEFINED> instruction: 0xffc4fe7a
    c664:	fae7b700 	blx	ff9fa26c <end+0xbf8fa26c>
    c668:	c68f3f74 			; <UNDEFINED> instruction: 0xc68f3f74
    c66c:	e5ed49ea 	strb	r4, [sp, #2538]!	; 0x9ea
    c670:	a8993cea 	ldmge	r9, {r1, r3, r5, r6, r7, sl, fp, ip, sp}
    c674:	63f3e907 	mvnsvs	lr, #114688	; 0x1c000
    c678:	71762c75 	cmnvc	r6, r5, ror ip
    c67c:	c3580192 	cmpgt	r8, #-2147483612	; 0x80000024
    c680:	5d4d972c 	stclpl	7, cr9, [sp, #-176]	; 0xffffff50
    c684:	46226495 			; <UNDEFINED> instruction: 0x46226495
    c688:	cd493cfd 	stclgt	12, cr3, [r9, #-1012]	; 0xfffffc0c
    c68c:	671d32d6 			; <UNDEFINED> instruction: 0x671d32d6
    c690:	b22c42e6 	eorlt	r4, ip, #1610612750	; 0x6000000e
    c694:	b5524837 	ldrblt	r4, [r2, #-2103]	; 0x837
    c698:	d408b4b0 	strle	fp, [r8], #-1200	; 0x4b0
    c69c:	929c4055 	addsls	r4, ip, #85	; 0x55
    c6a0:	a920471b 	stmdbge	r0!, {r0, r1, r3, r4, r8, r9, sl, lr}
    c6a4:	00011294 	muleq	r1, r4, r2
    c6a8:	581e4530 	ldmdapl	lr, {r4, r5, r8, sl, lr}
    c6ac:	2a912aa6 	bcs	fe45714c <end+0xbe35714c>
    c6b0:	0adb2cbd 	beq	ff6d79ac <end+0xbf5d79ac>
    c6b4:	f38aaa62 	vmull.u<illegal width 8>	q5, d10, d2[4]
    c6b8:	32a28c84 	adccc	r8, r2, #132, 24	; 0x8400
    c6bc:	de4fdc89 	cdple	12, 4, cr13, cr15, cr9, {4}
    c6c0:	dea74e3d 	mcrle	14, 5, r4, cr7, cr13, {1}
    c6c4:	c77474ba 			; <UNDEFINED> instruction: 0xc77474ba
    c6c8:	3ae9fe26 	bcc	ffa8bf68 <end+0xbf98bf68>
    c6cc:	26197791 			; <UNDEFINED> instruction: 0x26197791
    c6d0:	d3dadc4e 	bicsle	sp, sl, #19968	; 0x4e00
    c6d4:	63f60c2d 	mvnsvs	r0, #11520	; 0x2d00
    c6d8:	1a9694b5 	bne	fe5b19b4 <end+0xbe4b19b4>
    c6dc:	9891fbf5 	ldmls	r1, {r0, r2, r4, r5, r6, r7, r8, r9, fp, ip, sp, lr, pc}
    c6e0:	33796e58 	cmncc	r9, #88, 28	; 0x580
    c6e4:	c2420cc8 	subgt	r0, r2, #200, 24	; 0xc800
    c6e8:	748fa288 	strvc	sl, [pc], #648	; c6f0 <jpegdata+0xa340>
    c6ec:	c60011e1 	strgt	r1, [r0], -r1, ror #3
    c6f0:	5eeb3124 	cdppl	1, 14, cr3, cr11, cr4, {1}
    c6f4:	d5064ed5 	strle	r4, [r6, #-3797]	; 0xed5
    c6f8:	290a105d 	stmdbcs	sl, {r0, r2, r3, r4, r6, ip}
    c6fc:	06930402 	ldreq	r0, [r3], r2, lsl #8
    c700:	136fc87f 	cmnne	pc, #8323072	; 0x7f0000
    c704:	bfe53693 	svclt	0x00e53693
    c708:	6de7269a 	stclvs	6, cr2, [r7, #616]!	; 0x268
    c70c:	bb75dcdf 	bllt	1d83a90 <ZAG+0x1d75c78>
    c710:	b7b2b4d2 	sbfxlt	fp, r2, #9, #19
    c714:	7ea3a065 	cdpvc	0, 10, cr10, cr3, cr5, {3}
    c718:	19d0d1a7 	ldmibne	r0, {r0, r1, r2, r5, r7, r8, ip, lr, pc}^
    c71c:	b1049341 	tstlt	r4, r1, asr #6
    c720:	efd43b69 	svc	0x00d43b69
    c724:	117a48af 	cmnne	sl, pc, lsr #17
    c728:	301d72a0 	andscc	r7, sp, r0, lsr #5
    c72c:	4c0f56e9 	stcmi	6, cr5, [pc], {233}	; 0xe9
    c730:	62ad66e5 	adcvs	r6, sp, #240123904	; 0xe500000
    c734:	00ff1efd 	ldrshteq	r1, [pc], #237
    c738:	cd6c4a72 	vstmdbgt	ip!, {s9-s122}
    c73c:	923ce711 	eorsls	lr, ip, #4456448	; 0x440000
    c740:	4f95250e 	svcmi	0x0095250e
    c744:	81fbc6e1 	mvnshi	ip, r1, ror #13
    c748:	1e517fe7 	cdpne	15, 5, cr7, cr1, cr7, {7}
    c74c:	239ff666 	orrscs	pc, pc, #106954752	; 0x6600000
    c750:	90ea527d 	rscls	r5, sl, sp, ror r2
    c754:	fb3d5a21 	blx	f62fe2 <ZAG+0xf551ca>
    c758:	4fec03d0 	svcmi	0x00ec03d0
    c75c:	7b2ea4e3 	blvc	bb5af0 <ZAG+0xba7cd8>
    c760:	72caa590 	sbcvc	sl, sl, #144, 10	; 0x24000000
    c764:	82e86e35 	rschi	r6, r8, #848	; 0x350
    c768:	2726a215 			; <UNDEFINED> instruction: 0x2726a215
    c76c:	9fd8074a 	svcls	0x00d8074a
    c770:	27afe7c7 	strcs	lr, [pc, r7, asr #15]!
    c774:	a3e4c03d 	mvnge	ip, #61	; 0x3d
    c778:	d4631dd3 	strbtle	r1, [r3], #-3539	; 0xdd3
    c77c:	872399d8 			; <UNDEFINED> instruction: 0x872399d8
    c780:	e6a86056 	ssat	r6, #9, r6, asr #0
    c784:	1e9dfe6f 	cdpne	14, 9, cr15, cr13, cr15, {3}
    c788:	62c9c36e 	sbcvs	ip, r9, #-1207959551	; 0xb8000001
    c78c:	5aa0feba 	bpl	fe84c27c <end+0xbe74c27c>
    c790:	ac589e78 	mrrcge	14, 7, r9, r8, cr8
    c794:	2199f819 	orrscs	pc, r9, r9, lsl r8	; <UNPREDICTABLE>
    c798:	27cd429d 	bfics	r4, sp, #5, #9
    c79c:	9ce45926 	stclls	9, cr5, [r4], #152	; 0x98
    c7a0:	cf4f7224 	svcgt	0x004f7224
    c7a4:	4389dfd5 	orrmi	sp, r9, #852	; 0x354
    c7a8:	509dc65e 	addspl	ip, sp, lr, asr r6
    c7ac:	5965377e 	stmdbpl	r5!, {r1, r2, r3, r4, r5, r6, r8, r9, sl, ip, sp}^
    c7b0:	860f00c4 	strhi	r0, [pc], -r4, asr #1
    c7b4:	f4710588 			; <UNDEFINED> instruction: 0xf4710588
    c7b8:	0a10f141 	beq	448cc4 <ZAG+0x43aeac>
    c7bc:	c7aa2484 	strgt	r2, [sl, r4, lsl #9]!
    c7c0:	390c9548 	stmdbcc	ip, {r3, r6, r8, sl, ip, pc}
    c7c4:	00ffc71e 	rscseq	ip, pc, lr, lsl r7	; <UNPREDICTABLE>
    c7c8:	fdfef33f 	ldc2l	3, cr15, [lr, #252]!	; 0xfc
    c7cc:	240ff02b 	strcs	pc, [pc], #-43	; c7d4 <jpegdata+0xa424>
    c7d0:	6a963214 	bvs	fe599028 <end+0xbe499028>
    c7d4:	b55baee3 	ldrblt	sl, [fp, #-3811]	; 0xee3
    c7d8:	5ad2125e 	bpl	ff491158 <end+0xbf391158>
    c7dc:	6b585782 	blvs	16225ec <ZAG+0x16147d4>
    c7e0:	bc5a9156 	ldfltp	f1, [sl], {86}	; 0x56
    c7e4:	1b405586 	blne	1021e04 <ZAG+0x1013fec>
    c7e8:	15c0f3ec 	strbne	pc, [r0, #1004]	; 0x3ec	; <UNPREDICTABLE>
    c7ec:	f46faa8b 	vld1.32	{d26-d27}, [pc], fp
    c7f0:	00b89365 	adcseq	r9, r8, r5, ror #6
    c7f4:	976c7f23 	strbls	r7, [ip, -r3, lsr #30]!
    c7f8:	60d52861 	sbcsvs	r2, r5, r1, ror #16
    c7fc:	21602517 	cmncs	r0, r7, lsl r5
    c800:	b58c2c49 	strlt	r2, [ip, #3145]	; 0xc49
    c804:	3f0c3216 	svccc	0x000c3216
    c808:	432ecc90 	teqmi	lr, #144, 24	; 0x9000
    c80c:	504646ea 	subpl	r4, r6, sl, ror #13
    c810:	0d55eac3 	vldreq	s29, [r5, #-780]	; 0xfffffcf4
    c814:	d8475922 	stmdale	r7, {r1, r5, r8, fp, ip, lr}^
    c818:	04d1b88f 	ldrbeq	fp, [r1], #2191	; 0x88f
    c81c:	fef9511f 	mrc2	1, 7, r5, cr9, cr15, {0}
    c820:	1204d1c7 	andne	sp, r4, #-1073741775	; 0xc0000031
    c824:	1ff4793a 	svcne	0x00f4793a
    c828:	7f7a6353 	svcvc	0x007a6353
    c82c:	36632f77 	uqsub16cc	r2, r3, r7
    c830:	939475ea 	orrsls	r7, r4, #981467136	; 0x3a800000
    c834:	0a690826 	beq	1a4e8d4 <ZAG+0x1a40abc>
    c838:	2c530998 	mrrccs	9, 9, r0, r3, cr8
    c83c:	14af11cf 	strtne	r1, [pc], #463	; c844 <jpegdata+0xa494>
    c840:	c448094b 	strbgt	r0, [r8], #-2379	; 0x94b
    c844:	619a9d45 	orrsvs	r9, sl, r5, asr #26
    c848:	4652482a 	ldrbmi	r4, [r2], -sl, lsr #16
    c84c:	b8c7ea7a 	stmialt	r7, {r1, r3, r4, r5, r6, r9, fp, sp, lr, pc}^
    c850:	ff417dee 			; <UNDEFINED> instruction: 0xff417dee
    c854:	27bb5600 	ldrcs	r5, [fp, r0, lsl #12]!
    c858:	1babef90 	blne	feb086a0 <end+0xbea086a0>
    c85c:	505d1c5a 	subspl	r1, sp, sl, asr ip
    c860:	428d4d8b 	addmi	r4, sp, #8896	; 0x22c0
    c864:	902852cf 	eorls	r5, r8, pc, asr #5
    c868:	002c89c1 	eoreq	r8, ip, r1, asr #19
    c86c:	bfb02c66 	svclt	0x00b02c66
    c870:	ab8a011b 	blge	fe28cce4 <end+0xbe18cce4>
    c874:	b7e9d0b8 			; <UNDEFINED> instruction: 0xb7e9d0b8
    c878:	1c8ab9b6 	stcne	9, cr11, [sl], {182}	; 0xb6
    c87c:	708f6a3d 	addvc	r6, pc, sp, lsr sl	; <UNPREDICTABLE>
    c880:	0f8d9093 	svceq	0x008d9093
    c884:	a41e4120 	ldrge	r4, [lr], #-288	; 0x120
    c888:	f9730781 			; <UNDEFINED> instruction: 0xf9730781
    c88c:	f4537520 			; <UNDEFINED> instruction: 0xf4537520
    c890:	8f7aad33 	svchi	0x007aad33
    c894:	5a2b7559 	bpl	ae9e00 <ZAG+0xadbfe8>
    c898:	bb91b353 	bllt	fe4795ec <end+0xbe3795ec>
    c89c:	8347c495 	movthi	ip, #29845	; 0x7495
    c8a0:	b1152b8e 	tstlt	r5, lr, lsl #23
    c8a4:	afb59a3a 	svcge	0x00b59a3a
    c8a8:	277b01d3 			; <UNDEFINED> instruction: 0x277b01d3
    c8ac:	765c77e6 	ldrbvc	r7, [ip], -r6, ror #15
    c8b0:	5c3b813b 	ldfpld	f0, [fp], #-236	; 0xffffff14
    c8b4:	2758168c 	ldrbcs	r1, [r8, -ip, lsl #13]
    c8b8:	56c23076 	uxtab16pl	r3, r2, r6
    c8bc:	dcebf846 	stclle	8, cr15, [fp], #280	; 0x118
    c8c0:	765e6b6f 	ldrbvc	r6, [lr], -pc, ror #22
    c8c4:	de4209c7 	cdple	9, 4, cr0, cr2, cr7, {6}
    c8c8:	15f7e7fe 	ldrbne	lr, [r7, #2046]!	; 0x7fe
    c8cc:	7739a3de 			; <UNDEFINED> instruction: 0x7739a3de
    c8d0:	2018080e 	andscs	r0, r8, lr, lsl #16
    c8d4:	cc22d334 	stcgt	3, cr13, [r2], #-208	; 0xffffff30
    c8d8:	356b1cca 	strbcc	r1, [fp, #-3274]!	; 0xcca
    c8dc:	0cb320a7 	ldceq	0, cr2, [r3], #668	; 0x29c
    c8e0:	7305b574 	movwvc	fp, #21876	; 0x5574
    c8e4:	e59db5dc 	ldr	fp, [sp, #1500]	; 0x5dc
    c8e8:	330d9f4a 	movwcc	r9, #57162	; 0xdf4a
    c8ec:	21606048 	cmncs	r0, r8, asr #32
    c8f0:	2f186050 	svccs	0x00186050
    c8f4:	01a9aa24 			; <UNDEFINED> instruction: 0x01a9aa24
    c8f8:	0762f681 	strbeq	pc, [r2, -r1, lsl #13]!	; <UNPREDICTABLE>
    c8fc:	a84eb1bf 	stmdage	lr, {r0, r1, r2, r3, r4, r5, r7, r8, ip, sp, pc}^
    c900:	0d737ad3 	vldmdbeq	r3!, {s15-s225}
    c904:	0c6db5ac 	cfstr64eq	mvdx11, [sp], #-688	; 0xfffffd50
    c908:	2dbe5c35 	ldccs	12, cr5, [lr, #212]!	; 0xd4
    c90c:	46ce55b1 			; <UNDEFINED> instruction: 0x46ce55b1
    c910:	6d1159dd 	ldcvs	9, cr5, [r1, #-884]	; 0xfffffc8c
    c914:	06b2c4a4 	ldrteq	ip, [r2], r4, lsr #9
    c918:	92930891 	addsls	r0, r3, #9502720	; 0x910000
    c91c:	aca4ee29 	stcge	14, cr14, [r4], #164	; 0xa4
    c920:	cf905cec 	svcgt	0x00905cec
    c924:	9a4da1ba 	bls	1375014 <ZAG+0x13671fc>
    c928:	973dde79 			; <UNDEFINED> instruction: 0x973dde79
    c92c:	56ecb847 	strbtpl	fp, [ip], r7, asr #16
    c930:	bd1610b5 	ldclt	0, cr1, [r6, #-724]	; 0xfffffd2c
    c934:	104f6135 	subne	r6, pc, r5, lsr r1	; <UNPREDICTABLE>
    c938:	23dc37a0 	bicscs	r3, ip, #160, 14	; 0x2800000
    c93c:	42901a48 	addsmi	r1, r0, #72, 20	; 0x48000
    c940:	c55228f9 	ldrbgt	r2, [r2, #-2297]	; 0x8f9
    c944:	5ca127b7 	stcpl	7, cr2, [r1], #732	; 0x2dc
    c948:	df8e7507 	svcle	0x008e7507
    c94c:	dc6d2ee6 	stclle	14, cr2, [sp], #-920	; 0xfffffc68
    c950:	d5e0a5b9 	strble	sl, [r0, #1465]!	; 0x5b9
    c954:	80502d33 	subshi	r2, r0, r3, lsr sp
    c958:	e4904c00 	ldr	r4, [r0], #3072	; 0xc00
    c95c:	334a0148 	movtcc	r0, #41288	; 0xa148
    c960:	b8c87248 	stmialt	r8, {r3, r6, r9, ip, sp, lr}^
    c964:	908e9880 	addls	r9, lr, r0, lsl #17
    c968:	133ae13e 	teqne	sl, #-2147483633	; 0x8000000f
    c96c:	c18bb58c 	orrgt	fp, fp, ip, lsl #11
    c970:	a743eae4 	strbge	lr, [r3, -r4, ror #21]
    c974:	29632797 	stmdbcs	r3!, {r0, r1, r2, r4, r7, r8, r9, sl, sp}^
    c978:	b279854b 	rsbslt	r8, r9, #314572800	; 0x12c00000
    c97c:	56bd618e 	ldrtpl	r6, [sp], lr, lsl #3
    c980:	18489435 	stmdane	r8, {r0, r2, r4, r5, sl, ip, pc}^
    c984:	adda73d5 	ldclge	3, cr7, [sl, #852]	; 0x354
    c988:	2cef4012 	stclcs	0, cr4, [pc], #72	; c9d8 <jpegdata+0xa628>
    c98c:	8e55a2a5 	cdphi	2, 5, cr10, cr5, cr5, {5}
    c990:	b7fc3e29 	ldrblt	r3, [ip, r9, lsr #28]!
    c994:	25e98f04 	strbcs	r8, [r9, #3844]!	; 0xf04
    c998:	95f07387 	ldrbls	r7, [r0, #903]!	; 0x387
    c99c:	cb981fae 	blgt	fe61485c <end+0xbe51485c>
    c9a0:	31755ae1 	cmncc	r5, r1, ror #21
    c9a4:	a786aca6 	strge	sl, [r6, r6, lsr #25]
    c9a8:	c34dcfc8 	movtgt	ip, #57288	; 0xdfc8
    c9ac:	d4244e02 	strtle	r4, [r4], #-3586	; 0xe02
    c9b0:	ce190023 	cdpgt	0, 1, cr0, cr9, cr3, {1}
    c9b4:	e132544c 	teq	r2, ip, asr #8
    c9b8:	c59da8be 	ldrgt	sl, [sp, #2238]	; 0x8be
    c9bc:	345f7cdc 	ldrbcc	r7, [pc], #-3292	; c9c4 <jpegdata+0xa614>
    c9c0:	aa2ced94 	bge	b48018 <ZAG+0xb3a200>
    c9c4:	d92a31ab 	stmdble	sl!, {r0, r1, r3, r5, r7, r8, ip, sp}
    c9c8:	d48c0a6a 	strle	r0, [ip], #2666	; 0xa6a
    c9cc:	4921f3fa 	stmdbmi	r1!, {r1, r3, r4, r5, r6, r7, r8, r9, ip, sp, lr, pc}
    c9d0:	49609c24 	stmdbmi	r0!, {r2, r5, sl, fp, ip, pc}^
    c9d4:	4c405a82 	mcrrmi	10, 8, r5, r0, cr2
    c9d8:	d2694d68 	rsble	r4, r9, #104, 26	; 0x1a00
    c9dc:	584a0b3d 	stmdapl	sl, {r0, r2, r3, r4, r5, r8, r9, fp}^
    c9e0:	a8edd326 	stmiage	sp!, {r1, r2, r5, r8, r9, ip, lr, pc}^
    c9e4:	1bc87033 	blne	ff228ab8 <end+0xbf128ab8>
    c9e8:	49842cf5 	stmibmi	r4, {r0, r2, r4, r5, r6, r7, sl, fp, sp}
    c9ec:	9fc8ab66 	svcls	0x00c8ab66
    c9f0:	7867e54e 	stmdavc	r7!, {r1, r2, r3, r6, r8, sl, sp, lr, pc}^
    c9f4:	c1914896 			; <UNDEFINED> instruction: 0xc1914896
    c9f8:	21341479 	teqcs	r4, r9, ror r4
    c9fc:	c72e7ec0 	strgt	r7, [lr, -r0, asr #29]!
    ca00:	fda93e88 	stc2	14, cr3, [r9, #544]!	; 0x220
    ca04:	f7bdd9e1 			; <UNDEFINED> instruction: 0xf7bdd9e1
    ca08:	3ad59cdd 	bcc	ff573d84 <end+0xbf473d84>
    ca0c:	b3a0fcb6 	movlt	pc, #46592	; 0xb600
    ca10:	29e241b1 	stmibcs	r2!, {r0, r4, r5, r7, r8, lr}^
    ca14:	25a8829a 	strcs	r8, [r8, #666]!	; 0x29a
    ca18:	85545d76 	ldrbhi	r5, [r4, #-3446]	; 0xd76
    ca1c:	f9099f76 			; <UNDEFINED> instruction: 0xf9099f76
    ca20:	80da8442 	sbcshi	r8, sl, r2, asr #8
    ca24:	b6fb064b 	ldrbtlt	r0, [fp], fp, asr #12
    ca28:	c9060e39 	stmdbgt	r6, {r0, r3, r4, r5, r9, sl, fp}
    ca2c:	a995bc40 	ldmibge	r5, {r6, sl, fp, ip, sp, pc}
    ca30:	00b932ef 	adcseq	r3, r9, pc, ror #5
    ca34:	1209f141 	andne	pc, r9, #1073741840	; 0x40000010
    ca38:	6e60e647 	cdpvs	6, 6, cr14, cr0, cr7, {2}
    ca3c:	141da577 	ldrne	sl, [sp], #-1399	; 0x577
    ca40:	ea459774 	b	1172818 <ZAG+0x1164a00>
    ca44:	3958acce 	ldmdbcc	r8, {r1, r2, r3, r6, r7, sl, fp, sp, pc}^
    ca48:	ca810d3d 	bgt	fe04ff44 <end+0xbdf4ff44>
    ca4c:	ffac8e5d 			; <UNDEFINED> instruction: 0xffac8e5d
    ca50:	58f50700 	ldmpl	r5!, {r8, r9, sl}^
    ca54:	4e1a41d4 	mrcmi	1, 0, r4, cr10, cr4, {6}
    ca58:	8b8c24c9 	blhi	fe315d84 <end+0xbe215d84>
    ca5c:	f6026029 			; <UNDEFINED> instruction: 0xf6026029
    ca60:	8a5942e3 	bhi	165d5f4 <ZAG+0x164f7dc>
    ca64:	488d64ec 	stmmi	sp, {r2, r3, r5, r6, r7, sl, sp, lr}
    ca68:	5ae7e305 	bpl	ffa05684 <end+0xbf905684>
    ca6c:	cdf1eae5 	ldclgt	10, cr14, [r1, #916]!	; 0x394
    ca70:	3897ad4a 	ldmcc	r7, {r1, r3, r6, r8, sl, fp, sp, pc}
    ca74:	4193dab4 			; <UNDEFINED> instruction: 0x4193dab4
    ca78:	0cc4df08 	stcleq	15, cr13, [r4], {8}
    ca7c:	852c18a3 	strhi	r1, [ip, #-2211]!	; 0x8a3
    ca80:	00f31060 	rscseq	r1, r3, r0, rrx
    ca84:	0c0ea565 	cfstr32eq	mvfx10, [lr], {101}	; 0x65
    ca88:	6fa112e4 	svcvs	0x00a112e4
    ca8c:	e525bcde 	str	fp, [r5, #-3294]!	; 0xcde
    ca90:	c5934fc5 	ldrgt	r4, [r3, #4037]	; 0xfc5
    ca94:	49c54a53 	stmibmi	r5, {r0, r1, r4, r6, r9, fp, lr}^
    ca98:	00944fca 	addseq	r4, r4, sl, asr #31
    ca9c:	a7e20b09 	strbge	r0, [r2, r9, lsl #22]!
    caa0:	02a44e70 	adceq	r4, r4, #112, 28	; 0x700
    caa4:	9d7b663a 	ldclls	6, cr6, [fp, #-232]!	; 0xffffff18
    caa8:	9c8eeac1 	vstmials	lr, {s28-s220}
    caac:	320e86f5 	andcc	r8, lr, #256901120	; 0xf500000
    cab0:	a362c35c 	cmnge	r2, #92, 6	; 0x70000001
    cab4:	3d9c25a7 	cfldr32cc	mvfx2, [ip, #668]	; 0x29c
    cab8:	c82df2aa 	stmdagt	sp!, {r1, r3, r5, r7, r9, ip, sp, lr, pc}
    cabc:	ddb8872c 	ldcle	7, cr8, [r8, #176]!	; 0xb0
    cac0:	8639f2ca 	ldrthi	pc, [r9], -sl, asr #5	; <UNPREDICTABLE>
    cac4:	b0448402 	sublt	r8, r4, r2, lsl #8
    cac8:	c3cd8012 	bicgt	r8, sp, #18
    cacc:	277310b5 			; <UNDEFINED> instruction: 0x277310b5
    cad0:	f68eb878 			; <UNDEFINED> instruction: 0xf68eb878
    cad4:	6be7e997 	blvs	ffa07138 <end+0xbf907138>
    cad8:	a9f43a1b 	ldmibge	r4!, {r0, r1, r3, r4, r9, fp, ip, sp}^
    cadc:	754a2ddb 	strbvc	r2, [sl, #-3547]	; 0xddb
    cae0:	221f5175 	andscs	r5, pc, #1073741853	; 0x4000001d
    cae4:	8d0a8454 	cfstrshi	mvf8, [sl, #-336]	; 0xfffffeb0
    cae8:	10346a4e 	eorsne	r6, r4, lr, asr #20
    caec:	1578584d 	ldrbne	r5, [r8, #-2125]!	; 0x84d
    caf0:	f460a326 	vld2.8	{d26-d29}, [r0 :128], r6
    caf4:	0e1542d5 	mrceq	2, 0, r4, cr5, cr5, {6}
    caf8:	b9e6b8d8 	stmiblt	r6!, {r3, r4, r6, r7, fp, ip, sp, pc}^
    cafc:	9d5d4d9e 	ldclls	13, cr4, [sp, #-632]	; 0xfffffd88
    cb00:	736a1a3e 	cmnvc	sl, #253952	; 0x3e000
    cb04:	8e9c0494 	mrchi	4, 4, r0, cr12, cr4, {4}
    cb08:	26082280 	strcs	r2, [r8], -r0, lsl #5
    cb0c:	52f1da3e 	rscspl	sp, r1, #253952	; 0x3e000
    cb10:	d6748864 	ldrbtle	r8, [r4], -r4, ror #16
    cb14:	a836d59b 	ldmdage	r6!, {r0, r1, r3, r4, r7, r8, sl, ip, lr, pc}
    cb18:	a535d764 	ldrge	sp, [r5, #-1892]!	; 0x764
    cb1c:	4f3da56f 	svcmi	0x003da56f
    cb20:	5793d45e 			; <UNDEFINED> instruction: 0x5793d45e
    cb24:	c2930ccd 	addsgt	r0, r3, #52480	; 0xcd00
    cb28:	11c261ab 	bicne	r6, r2, fp, lsr #3
    cb2c:	af282fdc 	svcge	0x00282fdc
    cb30:	2e72f7c3 	cdpcs	7, 7, cr15, cr2, cr3, {6}
    cb34:	5e9a08bc 	mrcpl	8, 4, r0, cr10, cr12, {5}
    cb38:	6efb61e1 	cdpvs	1, 15, cr6, cr11, cr1, {7}
    cb3c:	02dab835 	sbcseq	fp, sl, #3473408	; 0x350000
    cb40:	34465b82 	strbcc	r5, [r6], #-2946	; 0xb82
    cb44:	aaf10110 	bge	ffc4cf8c <end+0xbfb4cf8c>
    cb48:	485525ae 	ldmdami	r5, {r1, r2, r3, r5, r7, r8, sl, sp}^
    cb4c:	c052000a 	subsgt	r0, r2, sl
    cb50:	15420509 	strbne	r0, [r2, #-1289]	; 0x509
    cb54:	8105a220 	tsthi	r5, r0, lsr #4
    cb58:	4e2e6790 	mcrmi	7, 1, r6, cr14, cr0, {4}
    cb5c:	38e48cd3 	stmiacc	r4!, {r0, r1, r4, r6, r7, sl, fp, pc}^
    cb60:	4a9bdbfb 	bmi	fe703b54 <end+0xbe603b54>
    cb64:	b45595a5 	ldrblt	r9, [r5], #-1445	; 0x5a5
    cb68:	7018dfae 	andsvc	sp, r8, lr, lsr #31
    cb6c:	3828e4a5 	stmdacc	r8!, {r0, r2, r5, r7, sl, sp, lr, pc}
    cb70:	de0c4912 	mcrle	9, 0, r4, cr12, cr2, {0}
    cb74:	2cbf61c1 	ldfcss	f6, [pc], #772	; ce80 <jpegdata+0xaad0>
    cb78:	9dd2c7a5 	ldclls	7, cr12, [r2, #660]	; 0x294
    cb7c:	813aaf77 	teqhi	sl, r7, ror pc
    cb80:	f31732a7 	vhsub.u16	d3, d23, d23
    cb84:	a5ea9569 	strbge	r9, [sl, #1385]!	; 0x569
    cb88:	a8d82f19 	ldmge	r8, {r0, r3, r4, r8, r9, sl, fp, sp}^
    cb8c:	6b0c9832 	blvs	332c5c <ZAG+0x324e44>
    cb90:	2b6322ca 	blcs	18d56c0 <ZAG+0x18c78a8>
    cb94:	90bbbc34 	adcsls	fp, fp, r4, lsr ip
    cb98:	138d802f 	orrne	r8, sp, #47	; 0x2f
    cb9c:	c4c50bc7 	strbgt	r0, [r5], #3015	; 0xbc7
    cba0:	715e84a5 	cmpvc	lr, r5, lsr #9
    cba4:	000b4c88 	andeq	r4, fp, r8, lsl #25
    cba8:	cbd39fee 	blgt	ff4f4b68 <end+0xbf3f4b68>
    cbac:	69b84f0e 	ldmibvs	r8!, {r1, r2, r3, r8, r9, sl, fp, lr}
    cbb0:	5a5c8bf2 	bpl	172fb80 <ZAG+0x1721d68>
    cbb4:	d4a604bd 	strtle	r0, [r6], #1213	; 0x4bd
    cbb8:	b2a092d0 	adclt	r9, r0, #208, 4
    cbbc:	62880599 	addvs	r0, r8, #641728512	; 0x26400000
    cbc0:	7a175776 	bvc	5e29a0 <ZAG+0x5d4b88>
    cbc4:	0e621c6e 	cdpeq	12, 6, cr1, cr2, cr14, {3}
    cbc8:	1fba4b3f 	svcne	0x00ba4b3f
    cbcc:	36d15d69 	ldrbcc	r5, [r1], r9, ror #26
    cbd0:	a90a2935 	stmdbge	sl, {r0, r2, r4, r5, r8, fp, sp}
    cbd4:	9624a04e 	strtls	sl, [r4], -lr, asr #32
    cbd8:	f4d38076 			; <UNDEFINED> instruction: 0xf4d38076
    cbdc:	00ac8285 	adceq	r8, ip, r5, lsl #5
    cbe0:	fb3899dc 	blx	e3335a <ZAG+0xe25542>
    cbe4:	17219413 			; <UNDEFINED> instruction: 0x17219413
    cbe8:	1cea295d 	stclne	9, cr2, [sl], #372	; 0x174
    cbec:	da304e37 	ble	c204d0 <ZAG+0xc126b8>
    cbf0:	574daa56 	smlsldpl	sl, sp, r6, sl
    cbf4:	994176a9 	stmdbls	r1, {r0, r3, r5, r7, r9, sl, ip, sp, lr}^
    cbf8:	068bb870 	sxtab16eq	fp, fp, r0, ror #16
    cbfc:	08918c6c 	ldmeq	r1, {r2, r3, r5, r6, sl, fp, pc}
    cc00:	11e31d6c 	mvnne	r1, ip, ror #26
    cc04:	447200ff 	ldrbtmi	r0, [r2], #-255	; 0xff
    cc08:	1c729b52 	ldclne	11, cr9, [r2], #-328	; 0xfffffeb8
    cc0c:	dce5c7fc 	stclle	7, cr12, [r5], #1008	; 0x3f0
    cc10:	6a57e482 	bvs	1605e20 <ZAG+0x15f8008>
    cc14:	5305a7f6 	movwpl	sl, #22518	; 0x57f6
    cc18:	2e2eefb8 	mcrcs	15, 1, lr, cr14, cr8, {5}
    cc1c:	646dfa38 	strbtvs	pc, [sp], #-2616	; 0xa38	; <UNPREDICTABLE>
    cc20:	4ab542aa 	bmi	fed5d6d0 <end+0xbec5d6d0>
    cc24:	92e5292a 	rscls	r2, r5, #688128	; 0xa8000
    cc28:	0928d809 	stmdbeq	r8!, {r0, r3, fp, ip, lr, pc}
    cc2c:	838811d9 	orrhi	r1, r8, #1073741878	; 0x40000036
    cc30:	05a788e2 	streq	r8, [r7, #2274]!	; 0x8e2
    cc34:	8b5e4eda 	blhi	17a07a4 <ZAG+0x179298c>
    cc38:	e3c2bf57 	bic	fp, r2, #348	; 0x15c
    cc3c:	84a9d2c4 	strthi	sp, [r9], #708	; 0x2c4
    cc40:	1068499c 	mlsne	r8, ip, r9, r4
    cc44:	26a61354 	ssatcs	r1, #7, r4, asr #6
    cc48:	e80fc448 	stmda	pc, {r3, r6, sl, lr, pc}	; <UNPREDICTABLE>
    cc4c:	8f463caa 	svchi	0x00463caa
    cc50:	6a95aeb7 	bvs	fe578734 <end+0xbe478734>
    cc54:	5dd36f0d 	ldclpl	15, cr6, [r3, #52]	; 0x34
    cc58:	9125733d 	teqls	r5, sp, lsr r3
    cc5c:	54b162c9 	ldrtpl	r6, [r1], #713	; 0x2c9
    cc60:	218fdc6c 	orrcs	sp, pc, ip, ror #24
    cc64:	c8c4cd8b 	stmiagt	r4, {r0, r1, r3, r7, r8, sl, fp, lr, pc}^
    cc68:	af2dbe63 	svcge	0x002dbe63
    cc6c:	71b4dcc8 			; <UNDEFINED> instruction: 0x71b4dcc8
    cc70:	7928bf33 	stmdbvc	r8!, {r0, r1, r4, r5, r8, r9, sl, fp, ip, sp, pc}
    cc74:	7a7538c5 	bvc	1d5af90 <ZAG+0x1d4d178>
    cc78:	964672f3 			; <UNDEFINED> instruction: 0x964672f3
    cc7c:	f334ca63 	vpmax.u<illegal width 64>	q6, q2, <illegal reg q9.5>
    cc80:	0e7d9cdc 	mrceq	12, 3, r9, cr13, cr12, {6}
    cc84:	0aadf22e 	beq	feb89544 <end+0xbea89544>
    cc88:	14025354 	strne	r5, [r2], #-852	; 0x354
    cc8c:	206855ad 	rsbcs	r5, r8, sp, lsr #11
    cc90:	0016457c 	andseq	r4, r6, ip, ror r5
    cc94:	3f945025 	svccc	0x00945025
    cc98:	1a2dac1b 	bne	b77d0c <ZAG+0xb69ef4>
    cc9c:	2d2282b4 	sfmcs	f0, 1, [r2, #-720]!	; 0xfffffd30
    cca0:	12d2131f 	sbcsne	r1, r2, #2080374784	; 0x7c000000
    cca4:	3fb8d45e 	svccc	0x00b8d45e
    cca8:	230d313b 	movwcs	r3, #53563	; 0xd13b
    ccac:	646225c6 	strbtvs	r2, [r2], #-1478	; 0x5c6
    ccb0:	00f2fbcc 	rscseq	pc, r2, ip, asr #23
    ccb4:	592c31ec 	stmdbpl	ip!, {r2, r3, r5, r6, r7, r8, ip, sp}
    ccb8:	4f339398 	svcmi	0x00339398
    ccbc:	629232e5 	addsvs	r3, r2, #1342177294	; 0x5000000e
    ccc0:	c6a223ad 	strtgt	r2, [r2], sp, lsr #7
    ccc4:	abb4c19d 	blge	fed3d340 <end+0xbec3d340>
    ccc8:	b8891612 	stmlt	r9, {r1, r4, r9, sl, ip}
    cccc:	0ba2dda6 	bleq	fe8c436c <end+0xbe7c436c>
    ccd0:	77ecc60d 	strbvc	ip, [ip, sp, lsl #12]!
    ccd4:	08c85056 	stmiaeq	r8, {r1, r2, r4, r6, ip, lr}^
    ccd8:	a9077003 	stmdbge	r7, {r0, r1, ip, sp, lr}
    ccdc:	5ad3d5cd 	bpl	ff502418 <end+0xbf402418>
    cce0:	09a00cd4 	stmibeq	r0!, {r2, r4, r6, r7, sl, fp}
    cce4:	309500f7 	ldrshcc	r0, [r5], r7
    cce8:	12090223 	andne	r0, r9, #805306370	; 0x30000002
    ccec:	19cab037 	stmibne	sl, {r0, r1, r2, r4, r5, ip, sp, pc}^
    ccf0:	03480001 	movteq	r0, #32769	; 0x8001
    ccf4:	0fb90aaf 	svceq	0x00b90aaf
    ccf8:	3f00fff9 	svccc	0x0000fff9
    ccfc:	5063e8f7 	strdpl	lr, [r3], #-135	; 0xffffff79	; <UNPREDICTABLE>
    cd00:	bdbabae9 	ldclt	10, cr11, [sl, #932]!	; 0x3a4
    cd04:	92964968 	addsls	r4, r6, #104, 18	; 0x1a0000
    cd08:	ba12461c 	blt	49e580 <ZAG+0x490768>
    cd0c:	93e48272 	mvnls	r8, #536870919	; 0x20000007
    cd10:	f7154fb2 			; <UNDEFINED> instruction: 0xf7154fb2
    cd14:	62095e2d 	andvs	r5, r9, #720	; 0x2d0
    cd18:	6ba7b273 	blvs	fe9f96ec <end+0xbe8f96ec>
    cd1c:	b44fb4bd 	strblt	fp, [pc], #-1213	; cd24 <jpegdata+0xa974>
    cd20:	bb48b2ae 	bllt	12397e0 <ZAG+0x122b9c8>
    cd24:	7da1ed85 	stcvc	13, cr14, [r1, #532]!	; 0x214
    cd28:	25c8368b 	strbcs	r3, [r8, #1675]	; 0x68b
    cd2c:	66109574 			; <UNDEFINED> instruction: 0x66109574
    cd30:	7e436b7d 	vmovvc.8	d3[3], r6
    cd34:	a10113f1 	strdge	r1, [r1, -r1]
    cd38:	95a69f9a 	strls	r9, [r6, #3994]!	; 0xf9a
    cd3c:	5c5a8a8e 	mrrcpl	10, 8, r8, sl, cr14
    cd40:	009aacbd 			; <UNDEFINED> instruction: 0x009aacbd
    cd44:	24629fb3 	strbtcs	r9, [r2], #-4019	; 0xfb3
    cd48:	11c41014 	bicne	r1, r4, r4, lsl r0
    cd4c:	431e83ec 	tstmi	lr, #236, 6	; 0xb0000003
    cd50:	bc0f62c4 	sfmlt	f6, 4, [pc], {196}	; 0xc4
    cd54:	fe35248c 	cdp2	4, 3, cr2, cr5, cr12, {4}
    cd58:	b594c66e 	ldrlt	ip, [r4, #1646]	; 0x66e
    cd5c:	a5b8a67e 	ldrge	sl, [r8, #1662]!	; 0x67e
    cd60:	0216f5ab 	andseq	pc, r6, #717225984	; 0x2ac00000
    cd64:	1d2da534 	cfstr32ne	mvfx10, [sp, #-208]!	; 0xffffff30
    cd68:	bd928c6d 	ldclt	12, cr8, [r2, #436]	; 0x1b4
    cd6c:	9226e63c 	eorls	lr, r6, #60, 12	; 0x3c00000
    cd70:	56b49695 	ssatpl	r9, #21, r5, lsl #13
    cd74:	86b24450 	ssathi	r4, #19, r0, asr #8
    cd78:	ada53e36 	stcge	14, cr3, [r5, #216]!	; 0xd8
    cd7c:	2e1e89ba 	mrccs	9, 0, r8, cr14, cr10, {5}
    cd80:	371d68e4 	ldrcc	r6, [sp, -r4, ror #17]
    cd84:	02f3c3f4 	rscseq	ip, r3, #244, 6	; 0xd0000003
    cd88:	8118c80f 	tsthi	r8, pc, lsl #16
    cd8c:	fb65d01b 	blx	1980e02 <ZAG+0x1972fea>
    cd90:	3f00ffc1 	svccc	0x0000ffc1
    cd94:	7eec83c9 	cdpvc	3, 14, cr8, cr12, cr9, {6}
    cd98:	a6b17c7a 	sxtahge	r7, r1, sl, ror #24
    cd9c:	62af4ab7 	adcvs	r4, pc, #749568	; 0xb7000
    cda0:	90a7d2d4 	ldrdls	sp, [r7], r4	; <UNPREDICTABLE>
    cda4:	53934d6a 	orrspl	r4, r3, #6784	; 0x1a80
    cda8:	a9183266 	ldmdbge	r8, {r1, r2, r5, r6, r9, ip, sp}
    cdac:	ff4ebf92 			; <UNDEFINED> instruction: 0xff4ebf92
    cdb0:	030c8600 	movweq	r8, #50688	; 0xc600
    cdb4:	a9a7128b 	stmibge	r7!, {r0, r1, r3, r7, r9, ip}
    cdb8:	08b5dcaf 	ldmeq	r5!, {r0, r1, r2, r3, r5, r7, sl, fp, ip, lr, pc}
    cdbc:	71037f4e 	tstvc	r3, lr, asr #30
    cdc0:	4d9d0df5 	ldcmi	13, cr0, [sp, #980]	; 0x3d4
    cdc4:	57c6e7a6 	strbpl	lr, [r6, r6, lsr #15]
    cdc8:	be5cb5ca 	cdplt	5, 5, cr11, cr12, cr10, {6}
    cdcc:	62362c2a 	eorsvs	r2, r6, #10752	; 0x2a00
    cdd0:	66668d0a 	strbtvs	r8, [r6], -sl, lsl #26
    cdd4:	c1c39648 	bicgt	r9, r3, r8, asr #12
    cdd8:	ad9597b5 	ldcge	7, cr9, [r5, #724]	; 0x2d4
    cddc:	4c78c6cc 	ldclmi	6, cr12, [r8], #-816	; 0xfffffcd0
    cde0:	b204d9bd 	andlt	sp, r4, #3096576	; 0x2f4000
    cde4:	2bb1acc8 	blcs	fec7810c <end+0xbeb7810c>
    cde8:	ce3ee87a 	mrcgt	8, 1, lr, cr14, cr10, {3}
    cdec:	3f6e3ee4 	svccc	0x006e3ee4
    cdf0:	4ef25315 	mrcmi	3, 7, r5, cr2, cr5, {0}
    cdf4:	0119f52b 	tsteq	r9, fp, lsr #10
    cdf8:	cf601650 	svcgt	0x00601650
    cdfc:	885c00bc 	ldmdahi	ip, {r2, r3, r4, r5, r7}^
    ce00:	a78560c5 	strge	r6, [r5, r5, asr #1]
    ce04:	6f99d8e4 	svcvs	0x0099d8e4
    ce08:	de686439 	mcrle	4, 3, r6, cr8, cr9, {1}
    ce0c:	4ea0803c 	mcrmi	0, 5, r8, cr0, cr12, {1}
    ce10:	69284350 	stmdbvs	r8!, {r4, r6, r8, r9, lr}
    ce14:	f88a0b63 			; <UNDEFINED> instruction: 0xf88a0b63
    ce18:	372a04e5 	strcc	r0, [sl, -r5, ror #9]!
    ce1c:	02638990 	rsbeq	r8, r3, #144, 18	; 0x240000
    ce20:	baece242 	blt	ffb45730 <end+0xbfa45730>
    ce24:	5e0cd556 	cfrshl32pl	mvfx12, mvfx6, sp
    ce28:	cfd7cb96 	svcgt	0x00d7cb96
    ce2c:	c9c07668 	stmibgt	r0, {r3, r5, r6, r9, sl, ip, sp, lr}^
    ce30:	5ab36c6a 	bpl	fece7fe0 <end+0xbebe7fe0>
    ce34:	2c56f299 	lfmcs	f7, 3, [r6], {153}	; 0x99
    ce38:	0bad755c 	bleq	feb6a3b0 <end+0xbea6a3b0>
    ce3c:	58915ec7 	ldmpl	r1, {r0, r1, r2, r6, r7, r9, sl, fp, ip, lr}
    ce40:	40838123 	addmi	r8, r3, r3, lsr #2
    ce44:	06928459 			; <UNDEFINED> instruction: 0x06928459
    ce48:	8e3418e2 	cdphi	8, 3, cr1, cr4, cr2, {7}
    ce4c:	79368a63 	ldmdbvc	r6!, {r0, r1, r5, r6, r9, fp, pc}
    ce50:	cb5497a4 	blgt	1532ce8 <ZAG+0x1524ed0>
    ce54:	6c2d23dc 	stcvs	3, cr2, [sp], #-880	; 0xfffffc90
    ce58:	01051de3 	smlatteq	r5, r3, sp, r1
    ce5c:	0c4b9865 	mcrreq	8, 6, r9, fp, cr5
    ce60:	161a008b 	ldrne	r0, [sl], -fp, lsl #1
    ce64:	6d8cfd14 	stcvs	13, cr15, [ip, #80]	; 0x50
    ce68:	64a7a59b 	strtvs	sl, [r7], #1435	; 0x59b
    ce6c:	c7380672 			; <UNDEFINED> instruction: 0xc7380672
    ce70:	27803bf7 			; <UNDEFINED> instruction: 0x27803bf7
    ce74:	7712737f 			; <UNDEFINED> instruction: 0x7712737f
    ce78:	1d08d41b 	cfstrsne	mvf13, [r8, #-108]	; 0xffffff94
    ce7c:	5ad45e55 	bpl	ff5247d8 <end+0xbf4247d8>
    ce80:	d2d1928e 	sbcsle	r9, r1, #-536870904	; 0xe0000008
    ce84:	eac792c7 	b	ff1f19a8 <end+0xbf0f19a8>
    ce88:	234f1f6d 	movtcs	r1, #65389	; 0xff6d
    ce8c:	51719734 	cmnpl	r1, r4, lsr r7
    ce90:	26591dea 	ldrbcs	r1, [r9], -sl, ror #27
    ce94:	29721907 	ldmdbcs	r2!, {r0, r1, r2, r8, fp, ip}^
    ce98:	36d8b24a 	ldrbcc	fp, [r8], sl, asr #4
    ce9c:	729e6863 	addsvc	r6, lr, #6488064	; 0x630000
    cea0:	3b48a4b0 	blcc	1236168 <ZAG+0x1228350>
    cea4:	dcec9f35 	stclle	15, cr9, [ip], #212	; 0xd4
    cea8:	42136ee4 	andsmi	r6, r3, #228, 28	; 0xe40
    ceac:	e91de2b5 	ldmdb	sp, {r0, r2, r4, r5, r7, r9, sp, lr, pc}
    ceb0:	21729352 	cmncs	r2, r2, asr r3
    ceb4:	0c984cbe 	ldceq	12, cr4, [r8], {190}	; 0xbe
    ceb8:	a02a8758 	eorge	r8, sl, r8, asr r7
    cebc:	58622480 	stmdapl	r2!, {r7, sl, sp}^
    cec0:	be321391 	mrclt	3, 1, r1, cr2, cr1, {4}
    cec4:	6afdd832 	bvs	fff82f94 <end+0xbfe82f94>
    cec8:	94f0bfe4 	ldrbtls	fp, [r0], #4068	; 0xfe4
    cecc:	425a2aee 	subsmi	r2, sl, #974848	; 0xee000
    ced0:	ea0c902a 	b	330f80 <ZAG+0x323168>
    ced4:	0952a988 	ldmdbeq	r2, {r3, r7, r8, fp, sp, pc}^
    ced8:	d971f93f 	ldmdble	r1!, {r0, r1, r2, r3, r4, r5, r8, fp, ip, sp, lr, pc}^
    cedc:	85063bfb 	strhi	r3, [r6, #-3067]	; 0xbfb
    cee0:	1a20f195 	bne	84953c <ZAG+0x83b724>
    cee4:	959e6820 	ldrls	r6, [lr, #2080]	; 0x820
    cee8:	bf52a9e2 	svclt	0x0052a9e2
    ceec:	a3eeb4a5 	mvnge	fp, #-1526726656	; 0xa5000000
    cef0:	11b0e2ce 	asrsne	lr, lr, #5
    cef4:	5c1934cf 	cfldrspl	mvf3, [r9], {207}	; 0xcf
    cef8:	5eb1a326 	cdppl	3, 11, cr10, cr1, cr6, {1}
    cefc:	131c398e 	tstne	ip, #2326528	; 0x238000
    cf00:	7b664133 	blvc	199d3d4 <ZAG+0x198f5bc>
    cf04:	6d43c4b0 	cfstrdvs	mvd12, [r3, #-704]	; 0xfffffd40
    cf08:	ccc09020 	stclgt	0, cr9, [r0], {32}
    cf0c:	3809a314 	stmdacc	r9, {r2, r4, r8, r9, sp, pc}
    cf10:	f843819d 			; <UNDEFINED> instruction: 0xf843819d
    cf14:	290a00e8 	stmdbcs	sl, {r3, r5, r6, r7}
    cf18:	30c17d20 	sbccc	r7, r1, r0, lsr #26
    cf1c:	0f24b13f 	svceq	0x0024b13f
    cf20:	d1e71fef 	mvnle	r1, pc, ror #31
    cf24:	95f2dd6f 	ldrbls	sp, [r2, #3439]!	; 0xd6f
    cf28:	55dda919 	ldrbpl	sl, [sp, #2329]	; 0x919
    cf2c:	0a906a44 	beq	fe427844 <end+0xbe327844>
    cf30:	c42c35b5 	strtgt	r3, [ip], #-1461	; 0x5b5
    cf34:	9b56c97a 	blls	15bf524 <ZAG+0x15b170c>
    cf38:	408eb536 	addmi	fp, lr, r6, lsr r5
    cf3c:	d7b3824c 	ldrle	r8, [r3, ip, asr #4]!
    cf40:	7c39ab67 	ldcvc	11, cr10, [r9], #-412	; 0xfffffe64
    cf44:	dee89266 	cdple	2, 14, cr9, cr8, cr6, {3}
    cf48:	0b6dcd0e 	bleq	1b80388 <ZAG+0x1b72570>
    cf4c:	cc34cb8d 	ldcgt	11, cr12, [r4], #-564	; 0xfffffdcc
    cf50:	61c3d091 			; <UNDEFINED> instruction: 0x61c3d091
    cf54:	4e6bb1a4 	lgnmi<illegal precision>p	f3, f4
    cf58:	8ad92c46 	bhi	ff658078 <end+0xbf558078>
    cf5c:	219de728 	orrscs	lr, sp, r8, lsr #14
    cf60:	73d25689 	bicsvc	r5, r2, #143654912	; 0x8900000
    cf64:	2516199e 	ldrcs	r1, [r6, #-2462]	; 0x99e
    cf68:	6267e581 	rsbvs	lr, r7, #541065216	; 0x20400000
    cf6c:	caab5f62 	bgt	feae4cfc <end+0xbe9e4cfc>
    cf70:	18673cac 	stmdane	r7!, {r2, r3, r5, r7, sl, fp, ip, sp}^
    cf74:	6c7c939c 	ldclvs	3, cr9, [ip], #-624	; 0xfffffd90
    cf78:	7e0280ea 	cdpvc	0, 0, cr8, cr2, cr10, {7}
    cf7c:	b40518c4 	strlt	r1, [r5], #-2244	; 0x8c4
    cf80:	24745009 	ldrbtcs	r5, [r4], #-9
    cf84:	eea32a96 	mcr	10, 5, r2, cr3, cr6, {4}
    cf88:	952b91c0 	strls	r9, [fp, #-448]!	; 0x1c0
    cf8c:	77d60af9 			; <UNDEFINED> instruction: 0x77d60af9
    cf90:	8cddc12e 	ldfhip	f4, [sp], {46}	; 0x2e
    cf94:	d4184980 	ldrle	r4, [r8], #-2432	; 0x980
    cf98:	cdcb88d6 	stclgt	8, cr8, [fp, #856]	; 0x358
    cf9c:	2e00ff90 	mcrcs	15, 0, pc, cr0, cr0, {4}	; <UNPREDICTABLE>
    cfa0:	11ec9189 	mvnne	r9, r9, lsl #3
    cfa4:	b1c1bcae 	biclt	fp, r1, lr, lsr #25
    cfa8:	bf3eb5ac 	svclt	0x003eb5ac
    cfac:	5a14b68e 	bpl	53a9ec <ZAG+0x52cbd4>
    cfb0:	7ab19aa3 	bvc	fec73a44 <end+0xbeb73a44>
    cfb4:	f5b135a1 			; <UNDEFINED> instruction: 0xf5b135a1
    cfb8:	251453c3 	ldrcs	r5, [r4, #-963]	; 0x3c3
    cfbc:	0a9bd58e 	beq	fe7025fc <end+0xbe6025fc>
    cfc0:	a8bdc4b1 	popge	{r0, r4, r5, r7, sl, lr, pc}
    cfc4:	b365729e 	cmnlt	r5, #-536870903	; 0xe0000009
    cfc8:	0e1255db 	mrceq	5, 0, r5, cr2, cr11, {6}
    cfcc:	00513b37 	subseq	r3, r1, r7, lsr fp
    cfd0:	0b2f51e5 	bleq	be176c <ZAG+0xbd3954>
    cfd4:	6ddc71c4 	ldfvse	f7, [ip, #784]	; 0x310
    cfd8:	a314982c 	tstge	r4, #44, 16	; 0x2c0000
    cfdc:	8e83b44c 	cdphi	4, 8, cr11, cr3, cr12, {2}
    cfe0:	1ca0ae0c 	stcne	14, cr10, [r0], #48	; 0x30
    cfe4:	200a7da0 	andcs	r7, sl, r0, lsr #27
    cfe8:	ce718019 	mrcgt	0, 3, r8, cr1, cr9, {0}
    cfec:	d26744a6 	rsble	r4, r7, #-1509949440	; 0xa6000000
    cff0:	1557f2f3 	ldrbne	pc, [r7, #-755]	; 0x2f3	; <UNPREDICTABLE>
    cff4:	cda41aaa 	stcgt	10, cr1, [r4, #680]!	; 0x2a8
    cff8:	49cac746 	stmibmi	sl, {r1, r2, r6, r8, r9, sl, lr, pc}^
    cffc:	09ee5760 	stmibeq	lr!, {r5, r6, r8, r9, sl, ip, lr}^
    d000:	19200926 	stmdbne	r0!, {r1, r2, r5, r8, fp}
    d004:	e24a1f1b 	sub	r1, sl, #27, 30	; 0x6c
    d008:	f0aba9a4 			; <UNDEFINED> instruction: 0xf0aba9a4
    d00c:	a1147a1a 	tstge	r4, sl, lsl sl
    d010:	8cc9cd9c 	stclhi	13, cr12, [r9], {156}	; 0x9c
    d014:	d7f48b3a 			; <UNDEFINED> instruction: 0xd7f48b3a
    d018:	b678bcc3 	ldrbtlt	fp, [r8], -r3, asr #25
    d01c:	1f9b59c1 	svcne	0x009b59c1
    d020:	6e859235 	mcrvs	2, 4, r9, cr5, cr5, {1}
    d024:	0e671dc7 	cdpeq	13, 6, cr1, cr7, cr7, {6}
    d028:	66760c8b 	ldrbtvs	r0, [r6], -fp, lsl #25
    d02c:	c2ec20b1 	rscgt	r2, ip, #177	; 0xb1
    d030:	4b9257b3 	blmi	fe4a2f04 <end+0xbe3a2f04>
    d034:	fd09616a 	stc2	1, cr6, [r9, #-424]	; 0xfffffe58
    d038:	eaeeb999 	b	ffbbb6a4 <end+0xbfabb6a4>
    d03c:	1cfc29ed 	ldclne	9, cr2, [ip], #948	; 0x3b4
    d040:	0adf0a75 	beq	ff7cfa1c <end+0xbf6cfa1c>
    d044:	9a4115d4 	bls	105279c <ZAG+0x1044984>
    d048:	2c28c494 	cfstrscs	mvf12, [r8], #-592	; 0xfffffdb0
    d04c:	170ccde8 	strne	ip, [ip, -r8, ror #27]
    d050:	58055837 	stmdapl	r5, {r0, r1, r2, r4, r5, fp, ip, lr}
    d054:	cd14179a 	ldcgt	7, cr1, [r4, #-616]	; 0xfffffd98
    d058:	6abaae22 	bvs	feeb88e8 <end+0xbedb88e8>
    d05c:	dc5eeb45 	mrrcle	11, 4, lr, lr, cr5	; <UNPREDICTABLE>
    d060:	5537565d 	ldrpl	r5, [r7, #-1629]!	; 0x65d
    d064:	0441b03e 	strbeq	fp, [r1], #-62	; 0x3e
    d068:	07802003 	streq	r2, [r0, r3]
    d06c:	02e3a8bf 	rsceq	sl, r3, #12517376	; 0xbf0000
    d070:	c9942509 	ldmibgt	r4, {r0, r3, r8, sl, sp}
    d074:	53c84932 	bicpl	r4, r8, #819200	; 0xc8000
    d078:	f4473fdc 			; <UNDEFINED> instruction: 0xf4473fdc
    d07c:	ba056cf5 	blt	168458 <ZAG+0x15a640>
    d080:	59b5d674 	ldmibpl	r5!, {r2, r4, r5, r6, r9, sl, ip, lr, pc}
    d084:	c76135f0 			; <UNDEFINED> instruction: 0xc76135f0
    d088:	12d9ece2 	sbcsne	lr, r9, #57856	; 0xe200
    d08c:	663815c5 	ldrtvs	r1, [r8], -r5, asr #11
    d090:	098edeb1 	stmibeq	lr, {r0, r4, r5, r7, r9, sl, fp, ip, lr, pc}
    d094:	c98b2a76 	stmibgt	fp, {r1, r2, r4, r5, r6, r9, fp, sp}
    d098:	eb8e75de 	bl	fe3aa818 <end+0xbe2aa818>
    d09c:	cf8b8986 	svcgt	0x008b8986
    d0a0:	8b4ce41c 	blhi	1346118 <ZAG+0x1338300>
    d0a4:	ceec6031 	mcrgt	0, 7, r6, cr12, cr1, {1}
    d0a8:	d76ae4ea 	strble	lr, [sl, -sl, ror #9]!
    d0ac:	5a97b847 	bpl	fe5fb1d0 <end+0xbe4fb1d0>
    d0b0:	208099c5 	addcs	r9, r0, r5, asr #19
    d0b4:	9e615592 	mcrls	5, 3, r5, cr1, cr2, {4}
    d0b8:	0560b29f 	strbeq	fp, [r0, #-671]!	; 0x29f
    d0bc:	3ac42d35 	bcc	ff118598 <end+0xbf018598>
    d0c0:	53512a8c 	cmppl	r1, #140, 20	; 0x8c000
    d0c4:	26308d4d 	ldrtcs	r8, [r0], -sp, asr #26
    d0c8:	030182e6 	movweq	r8, #4838	; 0x12e6
    d0cc:	3700ff51 	smusdcc	r0, r1, pc	; <UNPREDICTABLE>
    d0d0:	faf000ff 	blx	ffc0d4d4 <end+0xbfb0d4d4>
    d0d4:	d4f70ef6 	ldrbtle	r0, [r7], #3830	; 0xef6
    d0d8:	0f31ab9f 	svceq	0x0031ab9f
    d0dc:	63b2b3a5 			; <UNDEFINED> instruction: 0x63b2b3a5
    d0e0:	b1c3af5e 	biclt	sl, r3, lr, asr pc
    d0e4:	7ae63a5e 	bvc	ff99ba64 <end+0xbf89ba64>
    d0e8:	d38a58f3 	orrle	r5, sl, #15925248	; 0xf30000
    d0ec:	0c653f47 	stcleq	15, cr3, [r5], #-284	; 0xfffffee4
    d0f0:	02aacc8a 	adceq	ip, sl, #35328	; 0x8a00
    d0f4:	c4db6c9e 	ldrbgt	r6, [fp], #3230	; 0xc9e
    d0f8:	f6cf2847 			; <UNDEFINED> instruction: 0xf6cf2847
    d0fc:	2621b3dc 			; <UNDEFINED> instruction: 0x2621b3dc
    d100:	975a67f5 	smmlsrls	sl, r5, r7, r6
    d104:	4ab76a2d 	bmi	fede79c0 <end+0xbece79c0>
    d108:	140c175b 	strne	r1, [ip], #-1883	; 0x75b
    d10c:	3aa924f9 	bcc	fea564f8 <end+0xbe9564f8>
    d110:	c07d0360 	rsbsgt	r0, sp, r0, ror #6
    d114:	064d5b05 	strbeq	r5, [sp], -r5, lsl #22
    d118:	d6113946 	ldrle	r3, [r1], -r6, asr #18
    d11c:	aaec4ca5 	bge	ffb203b8 <end+0xbfa203b8>
    d120:	2aa9409a 	bcs	fea5d390 <end+0xbe95d390>
    d124:	4818f441 	ldmdami	r8, {r0, r6, sl, ip, sp, lr, pc}
    d128:	808da41e 	addhi	sl, sp, lr, lsl r4
    d12c:	56090449 	strpl	r0, [r9], -r9, asr #8
    d130:	1e00e68f 	cfmadd32ne	mvax4, mvfx14, mvfx0, mvfx15
    d134:	03eef4b5 	mvneq	pc, #-1258291200	; 0xb5000000
    d138:	36cc6be7 	strbcc	r6, [ip], r7, ror #23
    d13c:	a7e64b0b 	strbge	r4, [r6, fp, lsl #22]!
    d140:	bc4a36b3 	mcrrlt	6, 11, r3, sl, cr3
    d144:	b07ac930 	rsbslt	ip, sl, r0, lsr r9
    d148:	9abd6f5a 	bls	fef68eb8 <end+0xbee68eb8>
    d14c:	51546dc1 	cmppl	r4, r1, asr #27
    d150:	6587b134 	strvs	fp, [r7, #308]	; 0x134
    d154:	163b342f 	ldrtne	r3, [fp], -pc, lsr #8
    d158:	03709b55 	cmneq	r0, #87040	; 0x15400
    d15c:	1f152711 	svcne	0x00152711
    d160:	b454c879 	ldrblt	ip, [r4], #-2169	; 0x879
    d164:	7b7775a3 	blvc	1dea7f8 <ZAG+0x1ddc9e0>
    d168:	403aad44 	eorsmi	sl, sl, r4, asr #26
    d16c:	4a4a3e11 	bmi	129c9b8 <ZAG+0x128eba0>
    d170:	8ad010b3 	bhi	ff411444 <end+0xbf311444>
    d174:	2ce8a3ee 	stclcs	3, cr10, [r8], #952	; 0x3b8
    d178:	857d1cc4 	ldrbhi	r1, [sp, #-3268]!	; 0xcc4
    d17c:	d26f9618 	rsble	r9, pc, #24, 12	; 0x1800000
    d180:	6b3a8d94 	blvs	eb07d8 <ZAG+0xea29c0>
    d184:	33c9a54d 	biccc	sl, r9, #322961408	; 0x13400000
    d188:	80068200 	andhi	r8, r6, r0, lsl #4
    d18c:	3a019204 	bcc	719a4 <ZAG+0x63b8c>
    d190:	89fb0026 	ldmibhi	fp!, {r1, r2, r5}^
    d194:	752d4c62 	strvc	r4, [sp, #-3170]!	; 0xc62
    d198:	986eb4a4 	stmdals	lr!, {r2, r5, r7, sl, ip, sp, pc}^
    d19c:	2de3f4c3 	cfstrdcs	mvd15, [r3, #780]!	; 0x30c
    d1a0:	8d889e8c 	stchi	14, cr9, [r8, #560]	; 0x230
    d1a4:	5eb05dac 	cdppl	13, 11, cr5, cr0, cr12, {5}
    d1a8:	742c900b 	strtvc	r9, [ip], #-11
    d1ac:	b8d562ad 	ldmlt	r5, {r0, r2, r3, r5, r7, r9, sp, lr}^
    d1b0:	19c36113 	stmibne	r3, {r0, r1, r4, r8, sp, lr}^
    d1b4:	4fa73896 	svcmi	0x00a73896
    d1b8:	343b3f12 	ldrtcc	r3, [fp], #-3858	; 0xf12
    d1bc:	6d12641a 	cfldrsvs	mvf6, [r2, #-104]	; 0xffffff98
    d1c0:	cf4d3b1a 	svcgt	0x004d3b1a
    d1c4:	d585fc57 	strle	pc, [r5, #3159]	; 0xc57
    d1c8:	e855fa6b 	ldmda	r5, {r0, r1, r3, r5, r6, r9, fp, ip, sp, lr, pc}^
    d1cc:	76a10cb1 			; <UNDEFINED> instruction: 0x76a10cb1
    d1d0:	b06a59a6 	rsblt	r5, sl, r6, lsr #19
    d1d4:	a642c0cb 	strbge	ip, [r2], -fp, asr #1
    d1d8:	b16aa76e 	cmnlt	sl, lr, ror #14
    d1dc:	8da17c6f 	stchi	12, cr7, [r1, #444]!	; 0x1bc
    d1e0:	2154a838 	cmpcs	r4, r8, lsr r8
    d1e4:	664ea92f 	strbvs	sl, [lr], -pc, lsr #18
    d1e8:	0dfcdb7e 	ldcleq	11, cr13, [ip, #504]!	; 0x1f8
    d1ec:	1081f901 	addne	pc, r1, r1, lsl #18
    d1f0:	eba1e93e 	bl	fe8876f0 <end+0xbe7876f0>
    d1f4:	74969ea3 	ldrvc	r9, [r6], #3747	; 0xea3
    d1f8:	39bda7a3 	ldmibcc	sp!, {r0, r1, r5, r7, r8, r9, sl, sp, pc}
    d1fc:	be4c95eb 	cdplt	5, 4, cr9, cr12, cr11, {7}
    d200:	9f871717 	svcls	0x00871717
    d204:	c65af138 			; <UNDEFINED> instruction: 0xc65af138
    d208:	7f3493cb 	svcvc	0x003493cb
    d20c:	0a5a114c 	beq	1691744 <ZAG+0x168392c>
    d210:	ab40bde4 	blge	103c9a8 <ZAG+0x102eb90>
    d214:	0a6d1bc6 	beq	1b54134 <ZAG+0x1b4631c>
    d218:	28deddc3 	ldmcs	lr, {r0, r1, r6, r7, r8, sl, fp, ip, lr, pc}^
    d21c:	69a57896 	stmibvs	r5!, {r1, r2, r4, r7, fp, ip, sp, lr}
    d220:	2831da62 	ldmdacs	r1!, {r1, r5, r6, r9, fp, ip, lr, pc}
    d224:	9d5cb770 	ldclls	7, cr11, [ip, #-448]	; 0xfffffe40
    d228:	a9396ecd 	ldmdbge	r9!, {r0, r2, r3, r6, r7, r9, sl, fp, sp, lr}
    d22c:	f89f3255 			; <UNDEFINED> instruction: 0xf89f3255
    d230:	1f49ab80 	svcne	0x0049ab80
    d234:	424d0224 	submi	r0, sp, #36, 4	; 0x40000002
    d238:	cacb3433 	bgt	ff2da30c <end+0xbf1da30c>
    d23c:	4d6396ab 	stclmi	6, cr9, [r3, #-684]!	; 0xfffffd54
    d240:	2471a1c1 	ldrbtcs	sl, [r1], #-449	; 0x1c1
    d244:	a8f675d3 	ldmge	r6!, {r0, r1, r4, r6, r7, r8, sl, ip, sp, lr}^
    d248:	6f7fe4a1 	svcvs	0x007fe4a1
    d24c:	a69efef4 			; <UNDEFINED> instruction: 0xa69efef4
    d250:	7d6cd43f 	cfstrdvc	mvd13, [ip, #-252]!	; 0xffffff04
    d254:	b6be4ec7 	ldrtlt	r4, [lr], r7, asr #29
    d258:	46fdab68 	ldrbtmi	sl, [sp], r8, ror #22
    d25c:	d2a7c6e8 	adcle	ip, r7, #232, 12	; 0xe800000
    d260:	c862e838 	stmdagt	r2!, {r3, r4, r5, fp, sp, lr, pc}^
    d264:	f7184aa6 			; <UNDEFINED> instruction: 0xf7184aa6
    d268:	8f4e34af 	svchi	0x004e34af
    d26c:	24c9a41b 	strbcs	sl, [r9], #1051	; 0x41b
    d270:	4612949d 			; <UNDEFINED> instruction: 0x4612949d
    d274:	bb11f5bd 	bllt	48a970 <ZAG+0x47cb58>
    d278:	a1222dac 	teqge	r2, ip, lsr #27
    d27c:	6d4f4275 	sfmvs	f4, 2, [pc, #-468]	; d0b0 <jpegdata+0xad00>
    d280:	ab3d0f9c 	blge	f510f8 <ZAG+0xf432e0>
    d284:	f2847fc9 			; <UNDEFINED> instruction: 0xf2847fc9
    d288:	2616ab14 			; <UNDEFINED> instruction: 0x2616ab14
    d28c:	04119998 	ldreq	r9, [r1], #-2456	; 0x998
    d290:	10401034 	subne	r1, r0, r4, lsr r0
    d294:	04cdf7d1 	strbeq	pc, [sp], #2001	; 0x7d1	; <UNPREDICTABLE>
    d298:	607a59b0 	ldrhtvs	r5, [sl], #-144	; 0xffffff70
    d29c:	bafa8893 	blt	ffeaf4f0 <end+0xbfdaf4f0>
    d2a0:	df47887c 	svcle	0x0047887c
    d2a4:	fec17ffe 	mcr2	15, 6, r7, cr1, cr14, {7}
    d2a8:	b3fa40fd 	mvnslt	r4, #253	; 0xfd
    d2ac:	00ff5aa5 	rscseq	r5, pc, r5, lsr #21
    d2b0:	e82f644b 	stmda	pc!, {r0, r1, r3, r6, sl, sp, lr}	; <UNPREDICTABLE>
    d2b4:	c8a116dc 	stmiagt	r1!, {r2, r3, r4, r6, r7, r9, sl, ip}
    d2b8:	f1d633e0 			; <UNDEFINED> instruction: 0xf1d633e0
    d2bc:	d5e922fc 	strble	r2, [r9, #764]!	; 0x2fc
    d2c0:	6ce7b71b 	stclvs	7, cr11, [r7], #108	; 0x6c
    d2c4:	16552886 	ldrbne	r2, [r5], -r6, lsl #17
    d2c8:	afc28a37 	svcge	0x00c28a37
    d2cc:	9b77b6c7 	blls	1dfadf0 <ZAG+0x1decfd8>
    d2d0:	5140dd21 	cmppl	r0, r1, lsr #26
    d2d4:	4260c90c 	rsbmi	ip, r0, #12, 18	; 0x30000
    d2d8:	c758ddad 	ldrbgt	sp, [r8, -sp, lsr #27]
    d2dc:	36f2da49 	ldrbtcc	sp, [r2], r9, asr #20
    d2e0:	f5d27417 			; <UNDEFINED> instruction: 0xf5d27417
    d2e4:	cf9c5ed1 	svcgt	0x009c5ed1
    d2e8:	8b0109cb 	blhi	4fa1c <ZAG+0x41c04>
    d2ec:	a2e4c446 	rscge	ip, r4, #1174405120	; 0x46000000
    d2f0:	71766202 	cmnvc	r6, r2, lsl #4
    d2f4:	2788582a 	strcs	r5, [r8, sl, lsr #16]
    d2f8:	a78eaca0 	strge	sl, [lr, r0, lsr #25]
    d2fc:	37fe6010 			; <UNDEFINED> instruction: 0x37fe6010
    d300:	3d3f00ff 	ldccc	0, cr0, [pc, #-1020]!	; cf0c <jpegdata+0xab5c>
    d304:	749a7d3f 	ldrvc	r7, [sl], #3391	; 0xd3f
    d308:	ecea5527 	cfstr64	mvdx5, [sl], #156	; 0x9c
    d30c:	67a03e9d 			; <UNDEFINED> instruction: 0x67a03e9d
    d310:	38d3d32d 	ldmcc	r3, {r0, r2, r3, r5, r8, r9, ip, lr, pc}^
    d314:	29a9358c 	stmibcs	r9!, {r2, r3, r7, r8, sl, ip, sp}
    d318:	6170d150 	cmnvs	r0, r0, asr r1
    d31c:	395eafe5 	ldmdbcc	lr, {r0, r2, r5, r6, r7, r8, r9, sl, fp, sp, pc}^
    d320:	7182b263 	orrvc	fp, r2, r3, ror #4
    d324:	fb582766 	blx	16170c6 <ZAG+0x16092ae>
    d328:	8bc727b2 	blhi	ff1d71f8 <end+0xbf0d71f8>
    d32c:	93e6e58c 	mvnls	lr, #140, 10	; 0x23000000
    d330:	2c0d04bd 	cfstrscs	mvf0, [sp], {189}	; 0xbd
    d334:	654cf58c 	strbvs	pc, [ip, #-1420]	; 0x58c	; <UNPREDICTABLE>
    d338:	4bf9b85b 	blmi	ffe7b4ac <end+0xbfd7b4ac>
    d33c:	5436746b 	ldrtpl	r7, [r6], #-1131	; 0x46b
    d340:	09707641 	ldmdbeq	r0!, {r0, r6, r9, sl, ip, sp, lr}^
    d344:	051358a8 	ldreq	r5, [r3, #-2216]	; 0x8a8
    d348:	c044624c 	subgt	r6, r4, ip, asr #4
    d34c:	55581939 	ldrbpl	r1, [r8, #-2361]	; 0x939
    d350:	0155b0c4 	cmpeq	r5, r4, asr #1
    d354:	8562ebf2 	strbhi	lr, [r2, #-3058]!	; 0xbf2
    d358:	d4996336 	ldrle	r6, [r9], #822	; 0x336
    d35c:	fce7bf7d 	stc2l	15, cr11, [r7], #500	; 0x1f4
    d360:	af4e00ff 	svcge	0x004e00ff
    d364:	88ae525f 	stmiahi	lr!, {r0, r1, r2, r3, r4, r6, r9, ip, lr}
    d368:	5777e375 			; <UNDEFINED> instruction: 0x5777e375
    d36c:	153bbef4 	ldrne	fp, [fp, #-3828]!	; 0xef4
    d370:	1a943cd4 	bne	fe51c6c8 <end+0xbe41c6c8>
    d374:	b0d4acbe 	ldrhlt	sl, [r4], #206	; 0xce
    d378:	6b450d58 	blvs	11508e0 <ZAG+0x1142ac8>
    d37c:	b474d610 	ldrbtlt	sp, [r4], #-1552	; 0x610
    d380:	e1f69ab0 	ldrh	r9, [r6, #160]!	; 0xa0
    d384:	e025bf6b 	eor	fp, r5, fp, ror #30
    d388:	dd495aa7 	vstrle	s11, [r9, #-668]	; 0xfffffd64
    d38c:	4f51346b 	svcmi	0x0051346b
    d390:	69639961 	stmdbvs	r3!, {r0, r5, r6, r8, fp, ip, pc}^
    d394:	d17a2612 	cmnle	sl, r2, lsl r6
    d398:	3b721ccb 	blcc	1c946cc <ZAG+0x1c868b4>
    d39c:	f14527c9 			; <UNDEFINED> instruction: 0xf14527c9
    d3a0:	b654ead5 			; <UNDEFINED> instruction: 0xb654ead5
    d3a4:	dd656a53 	vstmdble	r5!, {s13-s95}
    d3a8:	83cc4303 	bichi	r4, ip, #201326592	; 0xc000000
    d3ac:	05b3208e 	ldreq	r2, [r3, #142]!	; 0x8e
    d3b0:	82406419 	subhi	r6, r0, #419430400	; 0x19000000
    d3b4:	32032c40 	andcc	r2, r3, #64, 24	; 0x4000
    d3b8:	0828a092 	stmdaeq	r8!, {r1, r4, r7, sp, pc}
    d3bc:	f4f206e0 			; <UNDEFINED> instruction: 0xf4f206e0
    d3c0:	eea4db0f 	vfma.f64	d13, d4, d15
    d3c4:	c24cc566 	subgt	ip, ip, #427819008	; 0x19800000
    d3c8:	1a5ef835 	bne	17cb4a4 <ZAG+0x17bd68c>
    d3cc:	ea540c4d 	b	1510508 <ZAG+0x15026f0>
    d3d0:	4ba00c0a 	blmi	fe810400 <end+0xbe710400>
    d3d4:	24fc5a31 	ldrbtcs	r5, [ip], #2609	; 0xa31
    d3d8:	a4504c99 	ldrbge	r4, [r0], #-3225	; 0xc99
    d3dc:	b945797c 	stmdblt	r5, {r2, r3, r4, r5, r6, r8, fp, ip, sp, lr}^
    d3e0:	66c2fde5 	strbvs	pc, [r2], r5, ror #27	; <UNPREDICTABLE>
    d3e4:	dcadcc5d 	stcle	12, cr12, [sp], #372	; 0x174
    d3e8:	3015d393 	mulscc	r5, r3, r3
    d3ec:	e70efcd4 			; <UNDEFINED> instruction: 0xe70efcd4
    d3f0:	b9613f23 	stmdblt	r1!, {r0, r1, r5, r8, r9, sl, fp, ip, sp}^
    d3f4:	479f6403 	ldrmi	r6, [pc, r3, lsl #8]
    d3f8:	a41fad51 	ldrge	sl, [pc], #-3409	; d400 <jpegdata+0xb050>
    d3fc:	de09eb40 	vmlsle.f64	d14, d9, d0
    d400:	abb5d1fa 	blge	fed81bf0 <end+0xbec81bf0>
    d404:	170d79f1 			; <UNDEFINED> instruction: 0x170d79f1
    d408:	4a630953 	bmi	18cf95c <ZAG+0x18c1b44>
    d40c:	d1c86163 	bicle	r6, r8, r3, ror #2
    d410:	f56ca588 			; <UNDEFINED> instruction: 0xf56ca588
    d414:	721b9617 	andsvc	r9, fp, #24117248	; 0x1700000
    d418:	45483b93 	strbmi	r3, [r8, #-2963]	; 0xb93
    d41c:	4cd12c95 	ldclmi	12, cr2, [r1], {149}	; 0x95
    d420:	047464bc 	ldrbteq	r6, [r4], #-1212	; 0x4bc
    d424:	c3384822 	teqgt	r8, #2228224	; 0x220000
    d428:	94b1c2fd 	ldrtls	ip, [r1], #765	; 0x2fd
    d42c:	516f2b7c 	smcpl	62140	; 0xf2bc
    d430:	54cb9a2b 	strbpl	r9, [fp], #2603	; 0xa2b
    d434:	c1d4dee2 	bicsgt	sp, r4, r2, ror #29
    d438:	e8784003 	ldmda	r8!, {r0, r1, lr}^
    d43c:	641fe811 	ldrvs	lr, [pc], #-2065	; d444 <jpegdata+0xb094>
    d440:	23935a7d 	orrscs	r5, r3, #512000	; 0x7d000
    d444:	474420f7 			; <UNDEFINED> instruction: 0x474420f7
    d448:	fe6d0f4f 	cdp2	15, 6, cr0, cr13, cr15, {2}
    d44c:	13dd71e1 	bicsne	r7, sp, #1073741880	; 0x40000038
    d450:	cfa366c3 	svcgt	0x00a366c3
    d454:	d3505a69 	cmple	r0, #430080	; 0x69000
    d458:	254bc5c8 	strbcs	ip, [fp, #-1480]	; 0x5c8
    d45c:	09c6678a 	stmibeq	r6, {r1, r3, r7, r8, r9, sl, sp, lr}^
    d460:	362353fe 			; <UNDEFINED> instruction: 0x362353fe
    d464:	9429d33e 	strtls	sp, [r9], #-830	; 0x33e
    d468:	329c9317 	addscc	r9, ip, #1543503872	; 0x5c000000
    d46c:	78fe93dc 	ldmvc	lr!, {r2, r3, r4, r6, r7, r8, r9, ip, pc}^
    d470:	9a2159e3 	bls	863c04 <ZAG+0x855dec>
    d474:	3ab3e035 	bcc	fed05550 <end+0xbec05550>
    d478:	38e7557a 	stmiacc	r7!, {r1, r3, r4, r5, r6, r8, sl, ip, lr}^
    d47c:	27abbc6a 	strcs	fp, [fp, sl, ror #24]!
    d480:	e4ca54c1 	strb	r5, [sl], #1217	; 0x4c1
    d484:	7c00bdad 	stcvc	13, cr11, [r0], {173}	; 0xad
    d488:	203410d4 	ldrsbtcs	r1, [r4], -r4
    d48c:	62491f85 	subvs	r1, r9, #532	; 0x214
    d490:	419cb10a 	orrsmi	fp, ip, sl, lsl #2
    d494:	cd40cdeb 	stclgt	13, cr12, [r0, #-940]	; 0xfffffc54
    d498:	2790a248 	ldrcs	sl, [r0, r8, asr #4]
    d49c:	3d02b9f2 	stccc	9, cr11, [r2, #-968]	; 0xfffffc38
    d4a0:	04894610 	streq	r4, [r9], #1552	; 0x610
    d4a4:	8f8de813 	svchi	0x008de813
    d4a8:	e8c982c4 	stmia	r9, {r2, r6, r7, r9, pc}^
    d4ac:	5e1cbde7 	cdppl	13, 1, cr11, cr12, cr7, {7}
    d4b0:	53e95303 	mvnpl	r5, #201326592	; 0xc000000
    d4b4:	2c118b3d 	ldccs	11, cr8, [r1], {61}	; 0x3d
    d4b8:	7e43afb7 	mcrvc	15, 2, sl, cr3, cr7, {5}
    d4bc:	5623920b 	strtpl	r9, [r3], -fp, lsl #4
    d4c0:	d14a46ab 	smlaltble	r4, sl, fp, r6
    d4c4:	75d8c00a 	ldrbvc	ip, [r8, #10]
    d4c8:	0c8f2c57 	stceq	12, cr2, [pc], {87}	; 0x57
    d4cc:	7e2a230b 	cdpvc	3, 2, cr2, cr10, cr11, {0}
    d4d0:	8cdbedda 	ldclhi	13, cr14, [fp], {218}	; 0xda
    d4d4:	5b7555f2 	blpl	1d62ca4 <ZAG+0x1d54e8c>
    d4d8:	a9acd4de 	stmibge	ip!, {r1, r2, r3, r4, r6, r7, sl, ip, lr, pc}
    d4dc:	28609759 	stmdacs	r0!, {r0, r3, r4, r6, r8, r9, sl, ip, pc}^
    d4e0:	775af2c7 	ldrbvc	pc, [sl, -r7, asr #5]	; <UNPREDICTABLE>
    d4e4:	494427e2 	stmdbmi	r4, {r1, r5, r6, r7, r8, r9, sl, sp}^
    d4e8:	914bd61b 	cmpls	fp, fp, lsl r6
    d4ec:	85bd42d3 	ldrhi	r4, [sp, #723]!	; 0x2d3
    d4f0:	b92a5ea5 	stmdblt	sl!, {r0, r2, r5, r7, r9, sl, fp, ip, lr}
    d4f4:	288a19ac 	stmcs	sl, {r2, r3, r5, r7, r8, fp, ip}
    d4f8:	26860160 	strcs	r0, [r6], r0, ror #2
    d4fc:	158f2a42 	strne	r2, [pc, #2626]	; df46 <ZAG+0x12e>
    d500:	30098f66 	andcc	r8, r9, r6, ror #30
    d504:	fa40b834 	blx	103b5dc <ZAG+0x102d7c4>
    d508:	e97e58c7 	ldmdb	lr!, {r0, r1, r2, r6, r7, fp, ip, lr}^
    d50c:	de69d77d 	mcrle	7, 3, sp, cr9, cr13, {3}
    d510:	d26e60b7 	rsble	r6, lr, #183	; 0xb7
    d514:	d94e4ba5 	stmdble	lr, {r0, r2, r5, r7, r8, r9, fp, lr}^
    d518:	a4ab357a 	strtge	r3, [fp], #1402	; 0x57a
    d51c:	b655ef76 	usub16lt	lr, r5, r6
    d520:	9b33aeb6 	blls	cf9000 <ZAG+0xceb1e8>
    d524:	a37dc501 	cmnge	sp, #4194304	; 0x400000
    d528:	2a1f33da 	bcs	7da498 <ZAG+0x7cc680>
    d52c:	8fe47d93 	svchi	0x00e47d93
    d530:	4a3cc783 	bmi	f3f344 <ZAG+0xf3152c>
    d534:	b995a2d6 	ldmiblt	r5, {r1, r2, r4, r6, r7, r9, sp, pc}
    d538:	7a7be099 	bvc	1f057a4 <ZAG+0x1ef798c>
    d53c:	6b551bb7 	blvs	1554420 <ZAG+0x1546608>
    d540:	99092c54 	stmdbls	r9, {r2, r4, r6, sl, fp, sp}
    d544:	933eb082 	teqls	lr, #130	; 0x82
    d548:	30ccbde5 	sbccc	fp, ip, r5, ror #27
    d54c:	5b0569d0 	blpl	167c94 <ZAG+0x159e7c>
    d550:	089a86c1 	ldmeq	sl, {r0, r6, r7, r9, sl, pc}
    d554:	2a6ec54a 	bcs	1bbea84 <ZAG+0x1bb0c6c>
    d558:	8231f920 	eorshi	pc, r1, #32, 18	; 0x80000
    d55c:	46f60e62 	ldrbtmi	r0, [r6], r2, ror #28
    d560:	f63b1a89 			; <UNDEFINED> instruction: 0xf63b1a89
    d564:	09126063 	ldmdbeq	r2, {r0, r1, r5, r6, sp, lr}
    d568:	c5c17226 	strbgt	r7, [r1, #550]	; 0x226
    d56c:	513735a7 	teqpl	r7, r7, lsr #11
    d570:	d972e4e8 	ldmdble	r2!, {r3, r5, r6, r7, sl, sp, lr, pc}^
    d574:	03036e4c 	movweq	r6, #15948	; 0x3e4c
    d578:	d62c337f 			; <UNDEFINED> instruction: 0xd62c337f
    d57c:	3cab5eeb 	stccc	14, cr5, [fp], #940	; 0x3ac
    d580:	65a84ecb 	strvs	r4, [r8, #3787]!	; 0xecb
    d584:	a7236993 			; <UNDEFINED> instruction: 0xa7236993
    d588:	c3954114 	orrsgt	r4, r5, #20, 2
    d58c:	fbb56a34 	blx	fed67e66 <end+0xbec67e66>
    d590:	203e647f 	eorscs	r6, lr, pc, ror r4
    d594:	dae9ad52 	ble	ffa78ae4 <end+0xbf978ae4>
    d598:	d542afa9 	strble	sl, [r2, #-4009]	; 0xfa9
    d59c:	ce52d2a9 	cdpgt	2, 5, cr13, cr2, cr9, {5}
    d5a0:	812000aa 	smulwbhi	r0, sl, r0
    d5a4:	968bd627 	strls	sp, [fp], r7, lsr #12
    d5a8:	654bf688 	strbvs	pc, [fp, #-1672]	; 0x688	; <UNPREDICTABLE>
    d5ac:	47c6fca3 	strbmi	pc, [r6, r3, lsr #25]	; <UNPREDICTABLE>
    d5b0:	9316c45e 	tstls	r6, #1577058304	; 0x5e000000
    d5b4:	3a7efeeb 	bcc	1fcd168 <ZAG+0x1fbf350>
    d5b8:	eb4e7b71 	bl	13ac384 <ZAG+0x139e56c>
    d5bc:	79d2b866 	ldmibvc	r2, {r1, r2, r5, r6, fp, ip, sp, pc}^
    d5c0:	8f820bdd 	svchi	0x00820bdd
    d5c4:	97344c58 			; <UNDEFINED> instruction: 0x97344c58
    d5c8:	0d6e17f5 	stcleq	7, cr1, [lr, #-980]!	; 0xfffffc2c
    d5cc:	62d45a2b 	sbcsvs	r5, r4, #176128	; 0x2b000
    d5d0:	8964c9d5 	stmdbhi	r4!, {r0, r2, r4, r6, r7, r8, fp, lr, pc}^
    d5d4:	a29c4683 	addsge	r4, ip, #137363456	; 0x8300000
    d5d8:	c93b117e 	ldmdbgt	fp!, {r1, r2, r3, r4, r5, r6, r8, ip}
    d5dc:	a295841a 	addsge	r8, r5, #436207616	; 0x1a000000
    d5e0:	929be589 	addsls	lr, fp, #574619648	; 0x22400000
    d5e4:	cf926cbc 	svcgt	0x00926cbc
    d5e8:	c63fef02 	ldrtgt	lr, [pc], -r2, lsl #30
    d5ec:	af53dc59 	svcge	0x0053dc59
    d5f0:	26fed158 	usatcs	sp, #30, r8, asr #2
    d5f4:	000c721b 	andeq	r7, ip, fp, lsl r2
    d5f8:	92d8d908 	sbcsls	sp, r8, #8, 18	; 0x20000
    d5fc:	33542600 	cmpcc	r4, #0, 12
    d600:	05411005 	strbeq	r1, [r1, #-5]
    d604:	a8d1b351 	ldmge	r1, {r0, r4, r6, r8, r9, ip, sp, pc}^
    d608:	9f3a81c0 	svcls	0x003a81c0
    d60c:	7ffef35f 	svcvc	0x00fef35f
    d610:	dcd7abdf 	fldmiaxle	r7, {d26-d136}	;@ Deprecated
    d614:	3f0db79f 	svccc	0x000db79f
    d618:	a57e0cd5 	ldrbge	r0, [lr, #-3285]!	; 0xcd5
    d61c:	391bf9d4 	ldmdbcc	fp, {r2, r4, r6, r7, r8, fp, ip, sp, lr, pc}
    d620:	769abcf7 			; <UNDEFINED> instruction: 0x769abcf7
    d624:	61a75f4a 			; <UNDEFINED> instruction: 0x61a75f4a
    d628:	64538ea2 	ldrbvs	r8, [r3], #-3746	; 0xea2
    d62c:	004d2c42 	subeq	r2, sp, r2, asr #24
    d630:	66598511 			; <UNDEFINED> instruction: 0x66598511
    d634:	90559a65 	subsls	r9, r5, r5, ror #20
    d638:	e4482640 	strb	r2, [r8], #-1600	; 0x640
    d63c:	83391892 	teqhi	r9, #9568256	; 0x920000
    d640:	e12a11c0 	smlawt	sl, r0, r1, r1
    d644:	2df69ab9 	ldclcs	10, cr9, [r6, #740]!	; 0x2e4
    d648:	c602dd4e 	strgt	sp, [r2], -lr, asr #26
    d64c:	8948cb60 	stmdbhi	r8, {r5, r6, r8, r9, fp, lr, pc}^
    d650:	47ed1dc4 	strbmi	r1, [sp, r4, asr #27]!
    d654:	25b18c88 	ldrcs	r8, [r1, #3208]!	; 0xc88
    d658:	7af66841 	bvc	ffda7764 <end+0xbfca7764>
    d65c:	79905621 	ldmibvc	r0, {r0, r5, r9, sl, ip, lr}
    d660:	64eaf863 	strbtvs	pc, [sl], #2147	; 0x863	; <UNPREDICTABLE>
    d664:	c9127bc2 	ldmdbgt	r2, {r1, r6, r7, r8, r9, fp, ip, sp, lr}
    d668:	6acb72f5 	bvs	ff2ea244 <end+0xbf1ea244>
    d66c:	367cf81b 			; <UNDEFINED> instruction: 0x367cf81b
    d670:	cad7ca81 	bgt	ff60007c <end+0xbf50007c>
    d674:	35719624 	ldrbcc	r9, [r1, #-1572]!	; 0x624
    d678:	c3a3d771 			; <UNDEFINED> instruction: 0xc3a3d771
    d67c:	2ac9aa64 	bcs	ff278014 <end+0xbf178014>
    d680:	2c47ba49 	mcrrcs	10, 4, fp, r7, cr9
    d684:	041962c9 	ldreq	r6, [r9], #-713	; 0x2c9
    d688:	a7314646 	ldrge	r4, [r1, -r6, asr #12]!
    d68c:	1124e304 	teqne	r4, r4, lsl #6
    d690:	d8d10403 	ldmle	r1, {r0, r1, sl}^
    d694:	eed5ba11 	mrc	10, 6, fp, cr5, cr1, {0}
    d698:	f8787c9a 			; <UNDEFINED> instruction: 0xf8787c9a
    d69c:	95aada11 	strls	sp, [sl, #2577]!	; 0xa11
    d6a0:	a9b912d3 	ldmibge	r9!, {r0, r1, r4, r6, r7, r9, ip}
    d6a4:	a5908d00 	ldrge	r8, [r0, #3328]	; 0xd00
    d6a8:	99009848 	stmdbls	r0, {r3, r6, fp, ip, pc}
    d6ac:	d4bc1932 	ldrtle	r1, [ip], #2354	; 0x932
    d6b0:	dca25aa6 	vstmiale	r2!, {s10-s175}
    d6b4:	fb8fc8be 	blx	fe3ff9b6 <end+0xbe2ff9b6>
    d6b8:	f9f9cf7f 			; <UNDEFINED> instruction: 0xf9f9cf7f
    d6bc:	7dd1f5ea 	cfldr64vc	mvdx15, [r1, #936]	; 0x3a8
    d6c0:	3b7dd33e 	blcc	1f823c0 <ZAG+0x1f745a8>
    d6c4:	69c654c4 	stmibvs	r6, {r2, r6, r7, sl, ip, lr}^
    d6c8:	3d3c25bc 	cfldr32cc	mvfx2, [ip, #-752]!	; 0xfffffd10
    d6cc:	a563d53a 	strbge	sp, [r3, #-1338]!	; 0x53a
    d6d0:	0788d61a 	usada8eq	r8, sl, r6, sp
    d6d4:	c8cec630 	stmiagt	lr, {r4, r5, r9, sl, lr, pc}^
    d6d8:	fbece7ac 	blx	ffb47592 <end+0xbfa47592>
    d6dc:	ecbeb234 	lfm	f3, 1, [lr], #208	; 0xd0
    d6e0:	8c2c2d49 	stchi	13, cr2, [ip], #-292	; 0xfffffedc
    d6e4:	cac42e49 	bgt	ff119010 <end+0xbf019010>
    d6e8:	2fee6eae 	svccs	0x00ee6eae
    d6ec:	72b8d41c 	adcsvc	sp, r8, #28, 8	; 0x1c000000
    d6f0:	f97792c4 			; <UNDEFINED> instruction: 0xf97792c4
    d6f4:	0dbd0e30 	ldceq	14, cr0, [sp, #192]!	; 0xc0
    d6f8:	00f63500 	rscseq	r3, r6, r0, lsl #10
    d6fc:	0aa2037a 	beq	fe88e4ec <end+0xbe78e4ec>
    d700:	d60144a1 	strle	r4, [r1], -r1, lsr #9
    d704:	d221bd7c 	eorle	fp, r1, #124, 26	; 0x1f00
    d708:	3adbea53 	bcc	ff70805c <end+0xbf60805c>
    d70c:	7f4f6c9a 	svcvc	0x004f6c9a
    d710:	57d46233 			; <UNDEFINED> instruction: 0x57d46233
    d714:	336b9664 	cmncc	fp, #100, 12	; 0x6400000
    d718:	e368663c 	cmn	r8, #60, 12	; 0x3c00000
    d71c:	4584118d 	strmi	r1, [r4, #397]	; 0x18d
    d720:	0ae26bcc 	beq	ff8a8658 <end+0xbf7a8658>
    d724:	0b5040ec 	bleq	141dadc <ZAG+0x140fcc4>
    d728:	0521afd6 	streq	sl, [r1, #-4054]!	; 0xfd6
    d72c:	30978de1 	addscc	r8, r7, r1, ror #27
    d730:	11452ee4 	smlalttne	r2, r5, r4, lr
    d734:	02141e6e 	andseq	r1, r4, #1760	; 0x6e0
    d738:	92440f3d 	subls	r0, r4, #61, 30	; 0xf4
    d73c:	61f71377 	mvnsvs	r1, r7, ror r3
    d740:	0d9841ef 	ldfeqs	f4, [r8, #956]	; 0x3bc
    d744:	82f90333 	rscshi	r0, r9, #-872415232	; 0xcc000000
    d748:	c9175dce 	ldmdbgt	r7, {r1, r2, r3, r6, r7, r8, sl, fp, ip, lr}
    d74c:	231b4d1a 	tstcs	fp, #1664	; 0x680
    d750:	556074a8 	strbpl	r7, [r0, #-1192]!	; 0x4a8
    d754:	83e08695 	mvnhi	r8, #156237824	; 0x9500000
    d758:	187a04f9 	ldmdane	sl!, {r0, r3, r4, r5, r6, r7, sl}^
    d75c:	61151cca 	tstvs	r5, sl, asr #25
    d760:	a1eff520 	mvnge	pc, r0, lsr #10
    d764:	696df4e9 	stmdbvs	sp!, {r0, r3, r5, r6, r7, sl, ip, sp, lr, pc}^
    d768:	860a052c 	strhi	r0, [sl], -ip, lsr #10
    d76c:	1b0d5591 	blne	362db8 <ZAG+0x354fa0>
    d770:	20f52d96 	smlalscs	r2, r5, r6, sp
    d774:	c67fdf28 	ldrbtgt	sp, [pc], -r8, lsr #30
    d778:	b83fb6c5 	ldmdalt	pc!, {r0, r2, r6, r7, r9, sl, ip, sp, pc}	; <UNPREDICTABLE>
    d77c:	fa951b78 	blx	fe554564 <end+0xbe454564>
    d780:	1a7e5ffa 	bne	1fa5770 <ZAG+0x1f97958>
    d784:	30003c93 	mulcc	r0, r3, ip
    d788:	ebcc2081 	bl	ff315994 <end+0xbf215994>
    d78c:	13f599d0 	mvnsne	r9, #208, 18	; 0x340000
    d790:	a41eea07 	ldrge	lr, [lr], #-2567	; 0xa07
    d794:	45598fa7 	ldrbmi	r8, [r9, #-4007]	; 0xfa7
    d798:	627dfe43 	rsbsvs	pc, sp, #1072	; 0x430
    d79c:	5d65ac6a 	stclpl	12, cr10, [r5, #-424]!	; 0xfffffe58
    d7a0:	94bb831d 	ldrtls	r8, [fp], #797	; 0x31d
    d7a4:	e190c49a 			; <UNDEFINED> instruction: 0xe190c49a
    d7a8:	e696ac68 	ldr	sl, [r6], r8, ror #24
    d7ac:	ae31a331 	mrcge	3, 1, sl, cr1, cr1, {1}
    d7b0:	9e33398a 	cdpls	9, 3, cr3, cr3, cr10, {4}
    d7b4:	b1e3b13b 	mvnlt	fp, fp, lsr r1
    d7b8:	0017d421 	andseq	sp, r7, r1, lsr #8
    d7bc:	038f436c 	orreq	r4, pc, #108, 6	; 0xb0000001
    d7c0:	fd8be742 	stc2	7, cr14, [fp, #264]	; 0x108
    d7c4:	0800ffb2 	stmdaeq	r0, {r1, r4, r5, r7, r8, r9, sl, fp, ip, sp, lr, pc}
    d7c8:	7d60269c 	stclvc	6, cr2, [r0, #-624]!	; 0xfffffd90
    d7cc:	47feefa7 	ldrbmi	lr, [lr, r7, lsr #31]!
    d7d0:	465980d3 			; <UNDEFINED> instruction: 0x465980d3
    d7d4:	d8d07588 	ldmle	r0, {r3, r7, r8, sl, ip, sp, lr}^
    d7d8:	5171afa0 	cmnpl	r1, r0, lsr #31
    d7dc:	62962069 	addsvs	r2, r6, #105	; 0x69
    d7e0:	e8a4fe00 	stmia	r4!, {r9, sl, fp, ip, sp, lr, pc}
    d7e4:	db5fcf7f 	blle	18015e8 <ZAG+0x17f37d0>
    d7e8:	9d712aad 	vldmdbls	r1!, {s5-s177}
    d7ec:	48236135 	stmdami	r3!, {r0, r2, r4, r5, r8, sp, lr}
    d7f0:	5a72bd62 	bpl	1cbcd80 <ZAG+0x1caef68>
    d7f4:	d214d933 	andsle	sp, r4, #835584	; 0xcc000
    d7f8:	e6b6a258 	ssat	sl, #23, r8, asr #4
    d7fc:	70fb8f36 	rscsvc	r8, fp, r6, lsr pc
    d800:	245edf44 	ldrbcs	sp, [lr], #-3908	; 0xf44
    d804:	5526f6c9 	strpl	pc, [r6, #-1737]!	; 0x6c9
    d808:	c04f7644 	subgt	r7, pc, r4, asr #12
    d80c:	8dc5d47d 	cfstrdhi	mvd13, [r5, #500]	; 0x1f4
    d810:	1d19b498 	cfldrsne	mvf11, [r9, #-608]	; 0xfffffda0
    d814:	23801fb1 	orrcs	r1, r0, #708	; 0x2c4
    d818:	801b40ee 	andshi	r4, fp, lr, ror #1
    d81c:	10cbc84e 	sbcne	ip, fp, lr, asr #16
    d820:	5f0f007d 	svcpl	0x000f007d
    d824:	e4aa828a 	strt	r8, [sl], #650	; 0x28a
    d828:	6002094c 	andvs	r0, r2, ip, asr #18
    d82c:	487626e2 	ldmdami	r6!, {r1, r5, r6, r7, r9, sl, sp}^
    d830:	0240ebdc 	subeq	lr, r0, #220, 22	; 0x37000
    d834:	f2c69f48 			; <UNDEFINED> instruction: 0xf2c69f48
    d838:	1cd285fa 	cfldr64ne	mvdx8, [r2], {250}	; 0xfa
    d83c:	67c0ab16 	bfivs	sl, r6, (invalid: 22:0)
    d840:	e14e8b64 	cmp	lr, r4, ror #22
    d844:	c6a29a72 			; <UNDEFINED> instruction: 0xc6a29a72
    d848:	590af52e 	stmdbpl	sl, {r1, r2, r3, r5, r8, sl, ip, sp, lr, pc}
    d84c:	8e3ce20c 	cdphi	2, 3, cr14, cr12, cr12, {0}
    d850:	0626219f 			; <UNDEFINED> instruction: 0x0626219f
    d854:	bfa7b216 	svclt	0x00a7b216
    d858:	22cf041c 	sbccs	r0, pc, #28, 8	; 0x1c000000
    d85c:	14878995 	strne	r8, [r7], #2453	; 0x995
    d860:	6cc40976 	stclvs	9, cr0, [r4], {118}	; 0x76
    d864:	de58363d 	mrcle	6, 2, r3, cr8, cr13, {1}
    d868:	5f74b4d5 	svcpl	0x0074b4d5
    d86c:	c1308591 			; <UNDEFINED> instruction: 0xc1308591
    d870:	41f00788 	mvnsmi	r0, r8, lsl #15
    d874:	e8243e98 	stmda	r4!, {r3, r4, r7, r9, sl, fp, ip, sp}
    d878:	fbd08844 	blx	ff42f992 <end+0xbf32f992>
    d87c:	f857a575 			; <UNDEFINED> instruction: 0xf857a575
    d880:	474c20bb 			; <UNDEFINED> instruction: 0x474c20bb
    d884:	f6d13ea0 			; <UNDEFINED> instruction: 0xf6d13ea0
    d888:	ec7300ff 	ldcl	0, cr0, [r3], #-1020	; 0xfffffc04
    d88c:	223d3bfb 	eorscs	r3, sp, #257024	; 0x3ec00
    d890:	a50efb69 	strge	pc, [lr, #-2921]	; 0xb69
    d894:	41f6b4a8 	mvnsmi	fp, r8, lsr #9
    d898:	7345ae75 	movtvc	sl, #24181	; 0x5e75
    d89c:	c3afa1ba 			; <UNDEFINED> instruction: 0xc3afa1ba
    d8a0:	c8a09676 	stmiagt	r0!, {r1, r2, r4, r5, r6, r9, sl, ip, pc}
    d8a4:	ea7eb5db 	b	1fbb018 <ZAG+0x1fad200>
    d8a8:	6099f02e 	addsvs	pc, r9, lr, lsr #32
    d8ac:	ed7a659e 	cfldr64	mvdx6, [sl, #-632]!	; 0xfffffd88
    d8b0:	96b85d34 			; <UNDEFINED> instruction: 0x96b85d34
    d8b4:	5d060405 	cfstrspl	mvf0, [r6, #-20]	; 0xffffffec
    d8b8:	331a99a5 	tstcc	sl, #2703360	; 0x294000
    d8bc:	f7138638 			; <UNDEFINED> instruction: 0xf7138638
    d8c0:	19eac45d 	stmibne	sl!, {r0, r2, r3, r4, r6, sl, lr, pc}^
    d8c4:	4754f438 	smmulrmi	r4, r8, r4
    d8c8:	b8e03204 	stmialt	r0!, {r2, r9, ip, sp}^
    d8cc:	6f38111d 	svcvs	0x0038111d
    d8d0:	08ee6c64 	stmiaeq	lr!, {r2, r5, r6, sl, fp, sp, lr}^
    d8d4:	926008c5 	rsbls	r0, r0, #12910592	; 0xc50000
    d8d8:	2ae1adde 	bcs	ff879058 <end+0xbf779058>
    d8dc:	422cd723 	eormi	sp, ip, #9175040	; 0x8c0000
    d8e0:	1b86867a 	blne	fe1af2d0 <end+0xbe0af2d0>
    d8e4:	20060d91 	mulcs	r6, r1, sp
    d8e8:	3ab9d7ef 	bcc	fee838ac <end+0xbed838ac>
    d8ec:	9d985a27 	vldrls	s10, [r8, #156]	; 0x9c
    d8f0:	bee99955 	mcrlt	9, 7, r9, cr9, cr5, {2}
    d8f4:	d28e3b43 	addle	r3, lr, #68608	; 0x10c00
    d8f8:	41ca399d 			; <UNDEFINED> instruction: 0x41ca399d
    d8fc:	05219793 	streq	r9, [r1, #-1939]!	; 0x793
    d900:	1d56866c 	ldclne	6, cr8, [r6, #-432]	; 0xfffffe50
    d904:	b0b09418 	adcslt	r9, r0, r8, lsl r4
    d908:	13738e56 	cmnne	r3, #1376	; 0x560
    d90c:	760dadd9 			; <UNDEFINED> instruction: 0x760dadd9
    d910:	64fd6d36 	ldrbtvs	r6, [sp], #3382	; 0xd36
    d914:	b93223e4 	ldmdblt	r2!, {r2, r5, r6, r7, r8, r9, sp}
    d918:	05afb320 	streq	fp, [pc, #800]!	; dc40 <jpegdata+0xb890>
    d91c:	e1a69e0c 			; <UNDEFINED> instruction: 0xe1a69e0c
    d920:	9a2291da 	bls	8b2090 <ZAG+0x8a4278>
    d924:	609c9d19 	addsvs	r9, ip, r9, lsl sp
    d928:	b311fb44 	tstlt	r1, #68, 22	; 0x11000
    d92c:	aad7bffe 	bge	ff5fd92c <end+0xbf4fd92c>
    d930:	377a4b0d 	ldrbcc	r4, [sl, -sp, lsl #22]!
    d934:	dda54ee9 	stcle	14, cr4, [r5, #932]!	; 0x3a4
    d938:	4a0a95ca 	bmi	2b3068 <ZAG+0x2a5250>
    d93c:	a15aaaa9 	cmpge	sl, r9, lsr #21
    d940:	8b15b262 	blhi	57a2d0 <ZAG+0x56c4b8>
    d944:	4ed4130c 	cdpmi	3, 13, cr1, cr4, cr12, {0}
    d948:	26537a20 	ldrbcs	r7, [r3], -r0, lsr #20
    d94c:	271a450f 	ldrcs	r4, [sl, -pc, lsl #10]
    d950:	7dbdea4f 	ldcvc	10, cr14, [sp, #316]!	; 0x13c
    d954:	eacf66ad 	b	ff3e7410 <end+0xbf2e7410>
    d958:	9281396d 	addls	r3, r1, #1785856	; 0x1b4000
    d95c:	6c20763a 	stcvs	6, cr7, [r0], #-232	; 0xffffff18
    d960:	872b7f7e 			; <UNDEFINED> instruction: 0x872b7f7e
    d964:	8a204902 	bhi	81fd74 <ZAG+0x811f5c>
    d968:	542a2147 	strtpl	r2, [sl], #-327	; 0x147
    d96c:	53ed3896 	mvnpl	r3, #9830400	; 0x960000
    d970:	ec993c7f 	ldc	12, cr3, [r9], {127}	; 0x7f
    d974:	0659284d 	ldrbeq	r2, [r9], -sp, asr #16
    d978:	ee2323f1 	mcr	3, 1, r2, cr3, cr1, {7}
    d97c:	a857d332 	ldmdage	r7, {r1, r4, r5, r8, r9, ip, lr, pc}^
    d980:	7a8dbaf9 	bvc	fe37c56c <end+0xbe27c56c>
    d984:	7bd87f24 	blvc	ff62d61c <end+0xbf52d61c>
    d988:	fd4ee61f 	stc2l	6, cr14, [lr, #-124]	; 0xffffff84
    d98c:	bdee3e74 	stcllt	14, cr3, [lr, #464]!	; 0x1d0
    d990:	b7b095ad 	ldrlt	r9, [r0, sp, lsr #11]!
    d994:	40deaab6 	ldrhmi	sl, [lr], #166	; 0xa6
    d998:	92da8ae4 	sbcsls	r8, sl, #228, 20	; 0xe4000
    d99c:	2881d906 	stmcs	r1, {r1, r2, r8, fp, ip, lr, pc}
    d9a0:	2a02ece3 	bcs	c8d34 <ZAG+0xbaf1c>
    d9a4:	2288e9ca 	addcs	lr, r8, #3309568	; 0x328000
    d9a8:	9ebc3f0f 	cdpls	15, 11, cr3, cr12, cr15, {0}
    d9ac:	3fead09a 	svccc	0x00ead09a
    d9b0:	3e50b343 	cdpcc	3, 5, cr11, cr0, cr3, {2}
    d9b4:	396ffd9d 	stmdbcc	pc!, {r0, r2, r3, r4, r7, r8, sl, fp, ip, sp, lr, pc}^	; <UNPREDICTABLE>
    d9b8:	6d2c6217 	sfmvs	f6, 4, [ip, #-92]!	; 0xffffffa4
    d9bc:	6b1af59a 	blvs	6cb02c <ZAG+0x6bd214>
    d9c0:	304b5a54 	subcc	r5, fp, r4, asr sl
    d9c4:	8e19cb2b 	vnmlshi.f64	d12, d9, d27
    d9c8:	a811a519 	ldmdage	r1, {r0, r3, r4, r8, sl, sp, pc}
    d9cc:	9058e501 	subsls	lr, r8, r1, lsl #10
    d9d0:	281bc7b3 	ldmdacs	fp, {r0, r1, r4, r5, r7, r8, r9, sl, lr, pc}
    d9d4:	cf4390d8 	svcgt	0x004390d8
    d9d8:	9fbd5e6e 	svcls	0x00bd5e6e
    d9dc:	622a8c20 	eorvs	r8, sl, #32, 24	; 0x2000
    d9e0:	c0047286 	andgt	r7, r4, r6, lsl #5
    d9e4:	9601a630 			; <UNDEFINED> instruction: 0x9601a630
    d9e8:	92d22751 	sbcsls	r2, r2, #21233664	; 0x1440000
    d9ec:	f40f1260 	vst1.16	{d1-d4}, [pc :128], r0
    d9f0:	86ba16e9 	ldrthi	r1, [sl], r9, ror #13
    d9f4:	e7f5ad43 	ldrb	sl, [r5, r3, asr #26]!
    d9f8:	d4aba696 	strtle	sl, [fp], #1686	; 0x696
    d9fc:	574f11ad 	strbpl	r1, [pc, -sp, lsr #3]
    da00:	0cb78cc1 	ldceq	12, cr8, [r7], #772	; 0x304
    da04:	8f276a4b 	svchi	0x00276a4b
    da08:	8cce8931 	stclhi	9, cr8, [lr], {49}	; 0x31
    da0c:	58969a74 	ldmpl	r6, {r2, r4, r5, r6, r9, fp, ip, pc}
    da10:	254d9b9a 	strbcs	r9, [sp, #-2970]	; 0xb9a
    da14:	3365e0e9 	cmncc	r5, #233	; 0xe9
    da18:	9d1c9286 	lfmls	f1, 1, [ip, #-536]	; 0xfffffde8
    da1c:	a48d67b6 	strge	r6, [sp], #1974	; 0x7b6
    da20:	d1cc1896 			; <UNDEFINED> instruction: 0xd1cc1896
    da24:	391827cb 	ldmdbcc	r8, {r0, r1, r3, r6, r7, r8, r9, sl, sp}
    da28:	b006ed1a 	andlt	lr, r6, sl, lsl sp
    da2c:	a0466ab9 	strhge	r6, [r6], #-169	; 0xffffff57
    da30:	e7b2f4f5 			; <UNDEFINED> instruction: 0xe7b2f4f5
    da34:	059483f1 	ldreq	r8, [r4, #1009]	; 0x3f1
    da38:	a6d17106 	ldrbge	r7, [r1], r6, lsl #2
    da3c:	c60a08b0 			; <UNDEFINED> instruction: 0xc60a08b0
    da40:	3a5a5619 	bcc	16a32ac <ZAG+0x1695494>
    da44:	8f59731c 	svchi	0x0059731c
    da48:	ff9300ff 			; <UNDEFINED> instruction: 0xff9300ff
    da4c:	0fd13700 	svceq	0x00d13700
    da50:	a9933a49 	ldmibge	r3, {r0, r3, r6, r9, fp, ip, sp}
    da54:	f561daf1 			; <UNDEFINED> instruction: 0xf561daf1
    da58:	58ceb686 	stmiapl	lr, {r1, r2, r7, r9, sl, ip, sp, pc}^
    da5c:	43afa7a7 			; <UNDEFINED> instruction: 0x43afa7a7
    da60:	65ae3e36 	strvs	r3, [lr, #3638]!	; 0xe36
    da64:	64f0482d 	ldrbtvs	r4, [r0], #2093	; 0x82d
    da68:	8d21c62c 	stchi	6, cr12, [r1, #-176]!	; 0xffffff50
    da6c:	8a5adda9 	bhi	16c5118 <ZAG+0x16b7300>
    da70:	c264c3f2 	rsbgt	ip, r4, #-939524093	; 0xc8000003
    da74:	c2b4e2bc 	adcsgt	lr, r4, #188, 4	; 0xc000000b
    da78:	6da1c239 	sfmvs	f4, 1, [r1, #228]!	; 0xe4
    da7c:	27a840e7 	strcs	r4, [r8, r7, ror #1]!
    da80:	b6dac7dd 			; <UNDEFINED> instruction: 0xb6dac7dd
    da84:	b86d5995 	stmdalt	sp!, {r0, r2, r4, r7, r8, fp, ip, lr}^
    da88:	acce0a8a 	vstmiage	lr, {s1-s138}
    da8c:	482ea418 	stmdami	lr!, {r3, r4, sl, sp, pc}
    da90:	91ce6609 	bicls	r6, lr, r9, lsl #12
    da94:	c81442a8 	ldmdagt	r4, {r3, r5, r7, r9, lr}
    da98:	4933d0f9 	ldmdbmi	r3!, {r0, r3, r4, r5, r6, r7, ip, lr, pc}
    da9c:	725214a6 	subsvc	r1, r2, #-1509949440	; 0xa6000000
    daa0:	aed1ed58 	mrcge	13, 6, lr, cr1, cr8, {2}
    daa4:	d7a1cac3 	strle	ip, [r1, r3, asr #21]!
    daa8:	e3fdf3e7 	mvns	pc, #-1677721597	; 0x9c000003
    daac:	ff3ef8ef 			; <UNDEFINED> instruction: 0xff3ef8ef
    dab0:	99eab800 	stmibls	sl!, {fp, ip, sp, pc}^
    dab4:	3770e1c1 	ldrbcc	lr, [r0, -r1, asr #3]!
    dab8:	6203b3e7 	andvs	fp, r3, #-1677721597	; 0x9c000003
    dabc:	e41c39f3 	ldr	r3, [ip], #-2547	; 0x9f3
    dac0:	74362c69 	ldrtvc	r2, [r6], #-3177	; 0xc69
    dac4:	c5a242fe 	strgt	r4, [r2, #766]!	; 0x2fe
    dac8:	32244f33 	eorcc	r4, r4, #51, 30	; 0xcc
    dacc:	8ad3019b 	bhi	ff4ce140 <end+0xbf3ce140>
    dad0:	89c9c243 	stmibhi	r9, {r0, r1, r6, r9, lr, pc}^
    dad4:	125f1e83 	subsne	r1, pc, #2096	; 0x830
    dad8:	9f0ce259 	svcls	0x000ce259
    dadc:	0d9adddc 	ldceq	13, cr13, [sl, #880]	; 0x370
    dae0:	b528fe71 	strlt	pc, [r8, #-3697]!	; 0xe71
    dae4:	22ba9216 	adcscs	r9, sl, #1610612737	; 0x60000001
    dae8:	62753192 	rsbsvs	r3, r5, #-2147483612	; 0x80000024
    daec:	002e2344 	eoreq	r2, lr, r4, asr #6
    daf0:	74a65a12 	strtvc	r5, [r6], #2578	; 0xa12
    daf4:	feb86264 	cdp2	2, 11, cr6, cr8, cr4, {3}
    daf8:	0cb629e9 	ldceq	9, cr2, [r6], #932	; 0x3a4
    dafc:	46058530 			; <UNDEFINED> instruction: 0x46058530
    db00:	f44f3011 	vst4.8	{d19-d22}, [pc :64], r1
    db04:	f4bf00ff 			; <UNDEFINED> instruction: 0xf4bf00ff
    db08:	ea00ff83 	b	4d91c <ZAG+0x3fb04>
    db0c:	a0ae4a4f 	adcge	r4, lr, pc, asr #20
    db10:	ddc44b7b 	vstrle	d20, [r4, #492]	; 0x1ec
    db14:	e3c82791 	bic	r2, r8, #38010880	; 0x2440000
    db18:	fd34632e 	ldc2	3, cr6, [r4, #-184]!	; 0xffffff48
    db1c:	6bd5547c 	blvs	ff562d14 <end+0xbf462d14>
    db20:	6291e2e6 	addsvs	lr, r1, #1610612750	; 0x6000000e
    db24:	04236bbb 	strteq	r6, [r3], #-3003	; 0xbbb
    db28:	46a9203c 			; <UNDEFINED> instruction: 0x46a9203c
    db2c:	25c9b3b4 	strbcs	fp, [r9, #948]	; 0x3b4
    db30:	41d691d4 	ldrsbmi	r9, [r6, #20]
    db34:	7670521c 			; <UNDEFINED> instruction: 0x7670521c
    db38:	a3dd5e54 	bicsge	r5, sp, #84, 28	; 0x540
    db3c:	563f6a17 			; <UNDEFINED> instruction: 0x563f6a17
    db40:	5beede6e 	blpl	ffbc5500 <end+0xbfac5500>
    db44:	d58d7ccb 	strle	r7, [sp, #3275]	; 0xccb
    db48:	52470d40 	subpl	r0, r7, #64, 26	; 0x1000
    db4c:	61144aaa 	tstvs	r4, sl, lsr #21
    db50:	cccce450 	cfstrdgt	mvd14, [ip], {80}	; 0x50
    db54:	fb750480 	blx	1d4ed5e <ZAG+0x1d40f46>
    db58:	25b142b2 	ldrcs	r4, [r1, #690]!	; 0x2b2
    db5c:	5da8809a 	stcpl	0, cr8, [r8, #616]!	; 0x268
    db60:	8f53c1ba 	svchi	0x0053c1ba
    db64:	0f3550f9 	svceq	0x003550f9
    db68:	002c0132 	eoreq	r0, ip, r2, lsr r1
    db6c:	93ba5069 			; <UNDEFINED> instruction: 0x93ba5069
    db70:	00ff2022 	rscseq	r2, pc, r2, lsr #32
    db74:	34721f73 	ldrbtcc	r1, [r2], #-3955	; 0xf73
    db78:	fbc1073a 	blx	ff04f86a <end+0xbef4f86a>
    db7c:	88d6b54c 	ldmhi	r6, {r2, r3, r6, r8, sl, ip, sp, pc}^
    db80:	b51e66ea 	ldrlt	r6, [lr, #-1770]	; 0x6ea
    db84:	c8930d6d 	ldmgt	r3, {r0, r2, r3, r5, r6, r8, sl, fp}
    db88:	2311096a 	tstcs	r1, #1736704	; 0x1a8000
    db8c:	fab987a5 	blx	fee6fa28 <end+0xbed6fa28>
    db90:	2b1b536e 	blcs	6e2950 <ZAG+0x6d4b38>
    db94:	3ae5a2ac 	bcc	ff97664c <end+0xbf87664c>
    db98:	8ee379e7 	cdphi	9, 14, cr7, cr3, cr7, {7}
    db9c:	eeae3221 	cdp	2, 10, cr3, cr14, cr1, {1}
    dba0:	c9edd790 	stmibgt	sp!, {r4, r7, r8, r9, sl, ip, lr, pc}^
    dba4:	c8914c59 	ldmgt	r1, {r0, r3, r4, r6, sl, fp, lr}
    dba8:	af9edd25 	svcge	0x009edd25
    dbac:	51b0d276 	rorspl	sp, r6, r2
    dbb0:	aada4d6f 	bge	ff6a1174 <end+0xbf5a1174>
    dbb4:	2a3120b0 	bcs	c55e7c <ZAG+0xc48064>
    dbb8:	4f04485d 	svcmi	0x0004485d
    dbbc:	9865958a 	stmdals	r5!, {r1, r3, r7, r8, sl, ip, pc}^
    dbc0:	994e9a01 	stmdbls	lr, {r0, r9, fp, ip, pc}^
    dbc4:	b65068ce 	ldrblt	r6, [r0], -lr, asr #17
    dbc8:	66b9c561 	ldrtvs	ip, [r9], r1, ror #10
    dbcc:	a0a0eaa8 	adcge	lr, r0, r8, lsr #21
    dbd0:	cfc2ae04 	svcgt	0x00c2ae04
    dbd4:	024b2cfd 	subeq	r2, fp, #64768	; 0xfd00
    dbd8:	aa588018 	bge	162dc40 <ZAG+0x161fe28>
    dbdc:	02e2d392 	rsceq	sp, r2, #1207959554	; 0x48000002
    dbe0:	5d2bc190 	stfpld	f4, [fp, #-576]!	; 0xfffffdc0
    dbe4:	51cdd011 	bicpl	sp, sp, r1, lsl r0
    dbe8:	6f3aeb2f 	svcvs	0x003aeb2f
    dbec:	c8994555 	ldmgt	r9, {r0, r2, r4, r6, r8, sl, lr}
    dbf0:	27777ae9 	ldrbcs	r7, [r7, -r9, ror #21]!
    dbf4:	b2e44f93 	rsclt	r4, r4, #588	; 0x24c
    dbf8:	2bdf5879 	blcs	ff7e3de4 <end+0xbf6e3de4>
    dbfc:	a58c2458 	strge	r2, [ip, #1112]	; 0x458
    dc00:	4925c8c5 	stmdbmi	r5!, {r0, r2, r6, r7, fp, lr, pc}
    dc04:	1e8ecc0a 	cdpne	12, 8, cr12, cr14, cr10, {0}
    dc08:	56195530 			; <UNDEFINED> instruction: 0x56195530
    dc0c:	55c8704b 	strbpl	r7, [r8, #75]	; 0x4b
    dc10:	ab346f44 	blge	d29928 <ZAG+0xd1bb10>
    dc14:	02b7b597 	adcseq	fp, r7, #633339904	; 0x25c00000
    dc18:	5418d795 	ldrpl	sp, [r8], #-1941	; 0x795
    dc1c:	8a1ac354 	bhi	6be974 <ZAG+0x6b0b5c>
    dc20:	01d26010 	bicseq	r6, r2, r0, lsl r0
    dc24:	e3974d91 	orrs	r4, r7, #9280	; 0x2440
    dc28:	53f26595 	mvnspl	r6, #624951296	; 0x25400000
    dc2c:	d4d832fc 	ldrble	r3, [r8], #764	; 0x2fc
    dc30:	5cb11c4c 	ldcpl	12, cr1, [r1], #304	; 0x130
    dc34:	6433cb41 	ldrtvs	ip, [r3], #-2881	; 0xb41
    dc38:	67231320 	strvs	r1, [r3, -r0, lsr #6]!
    dc3c:	9864d25f 	stmdals	r4!, {r0, r1, r2, r3, r4, r6, r9, ip, lr, pc}^
    dc40:	d1986cfc 			; <UNDEFINED> instruction: 0xd1986cfc
    dc44:	9b1ea627 	blls	7b74e8 <ZAG+0x7a96d0>
    dc48:	e04bc7d3 	ldrd	ip, [fp], #-115	; 0xffffff8d
    dc4c:	c4ea5831 	strbtgt	r5, [sl], #2097	; 0x831
    dc50:	1a2b34a4 	bne	adaee8 <ZAG+0xacd0d0>
    dc54:	d611b9d0 			; <UNDEFINED> instruction: 0xd611b9d0
    dc58:	8e801166 	rmfhisz	f1, f0, f6
    dc5c:	4d454540 	cfstr64mi	mvdx4, [r5, #-256]	; 0xffffff00
    dc60:	a2ba6ff8 	adcsge	r6, sl, #248, 30	; 0x3e0
    dc64:	288b03f0 	stmcs	fp, {r4, r5, r6, r7, r8, r9}
    dc68:	73ea638f 	mvnvc	r6, #1006632962	; 0x3c000002
    dc6c:	aa55ab55 	bge	15789c8 <ZAG+0x156abb0>
    dc70:	8b4507d7 	blhi	114fbd4 <ZAG+0x1141dbc>
    dc74:	2483a89f 	strcs	sl, [r3], #2207	; 0x89f
    dc78:	9798a19c 			; <UNDEFINED> instruction: 0x9798a19c
    dc7c:	973924f6 			; <UNDEFINED> instruction: 0x973924f6
    dc80:	9eb2aa51 	mrcls	10, 5, sl, cr2, cr1, {2}
    dc84:	02886c5d 	addeq	r6, r8, #23808	; 0x5d00
    dc88:	fffce73f 			; <UNDEFINED> instruction: 0xfffce73f
    dc8c:	1ba28300 	blne	fe8ae894 <end+0xbe7ae894>
    dc90:	6f9dec58 	svcvs	0x009dec58
    dc94:	163f928c 	ldrtne	r9, [pc], -ip, lsl #5
    dc98:	4535da65 	ldrmi	sp, [r5, #-2661]!	; 0xa65
    dc9c:	b0bb123b 	adcslt	r1, fp, fp, lsr r2
    dca0:	0dfc1352 	ldcleq	3, cr1, [ip, #328]!	; 0x148
    dca4:	52f71dcf 	rscspl	r1, r7, #13248	; 0x33c0
    dca8:	db9f8837 	blle	fe7efd8c <end+0xbe6efd8c>
    dcac:	bdad6eeb 	stclt	14, cr6, [sp, #940]!	; 0x3ac
    dcb0:	ce152cdd 	mrcgt	12, 0, r2, cr5, cr13, {6}
    dcb4:	da0f50e3 	ble	3e2048 <ZAG+0x3d4230>
    dcb8:	04fe784c 	ldrbteq	r7, [lr], #2124	; 0x84c
    dcbc:	ee54669c 	mrc	6, 2, r6, cr4, cr12, {4}
    dcc0:	5f4f3f89 	svcpl	0x004f3f89
    dcc4:	00ffa980 	rscseq	sl, pc, r0, lsl #19
    dcc8:	7bfef39f 	blvc	fffcab4c <end+0xbfecab4c>
    dccc:	a557b1eb 	ldrbge	fp, [r7, #-491]	; 0x1eb
    dcd0:	41ef7d5a 	mvnmi	r7, sl, asr sp
    dcd4:	ea62c892 	b	18bff24 <ZAG+0x18b210c>
    dcd8:	6cc5ca5b 	vstmiavs	r5, {s25-s115}
    dcdc:	10b8165e 	adcsne	r1, r8, lr, asr r6
    dce0:	c05828cd 	subsgt	r2, r8, sp, asr #17
    dce4:	4ad80869 	bmi	ff60fe90 <end+0xbf50fe90>
    dce8:	6ebb8241 	cdpvs	2, 11, cr8, cr11, cr1, {2}
    dcec:	abf562c3 	blge	ffd66800 <end+0xbfc66800>
    dcf0:	8de1dcbe 	stclhi	12, cr13, [r1, #760]!	; 0x2f8
    dcf4:	6b8ecb95 	blvs	fe3c0b50 <end+0xbe2c0b50>
    dcf8:	440d2aab 	strmi	r2, [sp], #-2731	; 0xaab
    dcfc:	7b4426d5 	blvc	1117858 <ZAG+0x1109a40>
    dd00:	09cc0626 	stmibeq	ip, {r1, r2, r5, r9, sl}^
    dd04:	b234f9d4 	eorslt	pc, r4, #212, 18	; 0x350000
    dd08:	48932d85 	ldmmi	r3, {r0, r2, r7, r8, sl, fp, sp}
    dd0c:	70d669f2 	ldrshvc	r6, [r6], #146	; 0x92
    dd10:	323a66ac 	eorscc	r6, sl, #172, 12	; 0xac00000
    dd14:	baaf9bf5 	blt	febf4cf0 <end+0xbeaf4cf0>
    dd18:	beeeebfd 	mcrlt	11, 7, lr, cr14, cr13, {7}
    dd1c:	00d9ffeb 	sbcseq	pc, r9, fp, ror #31
    dd20:	000016c2 	andeq	r1, r0, r2, asr #13
    dd24:	00001668 	andeq	r1, r0, r8, ror #12
    dd28:	00001700 	andeq	r1, r0, r0, lsl #14
    dd2c:	000015b0 			; <UNDEFINED> instruction: 0x000015b0
    dd30:	000016ca 	andeq	r1, r0, sl, asr #13
    dd34:	000014a8 	andeq	r1, r0, r8, lsr #9
    dd38:	00001522 	andeq	r1, r0, r2, lsr #10
    dd3c:	000014f8 	strdeq	r1, [r0], -r8
    dd40:	00000ea6 	andeq	r0, r0, r6, lsr #29
    dd44:	000015a0 	andeq	r1, r0, r0, lsr #11
    dd48:	000014a8 	andeq	r1, r0, r8, lsr #9
    dd4c:	000017ca 	andeq	r1, r0, sl, asr #15
    dd50:	000017d4 	ldrdeq	r1, [r0], -r4
    dd54:	00001a50 	andeq	r1, r0, r0, asr sl
    dd58:	00001a90 	muleq	r0, r0, sl
    dd5c:	00001a5a 	andeq	r1, r0, sl, asr sl
    dd60:	000017ba 			; <UNDEFINED> instruction: 0x000017ba
    dd64:	000017f0 	strdeq	r1, [r0], -r0
    dd68:	000017de 	ldrdeq	r1, [r0], -lr
    dd6c:	00001a4c 	andeq	r1, r0, ip, asr #20
    dd70:	0000192a 	andeq	r1, r0, sl, lsr #18
    dd74:	000017f4 	strdeq	r1, [r0], -r4

0000dd78 <gWinogradQuant>:
    dd78:	a7b2b280 	ldrge	fp, [r2, r0, lsl #5]!
    dd7c:	e897a7f6 	ldm	r7, {r1, r2, r4, r5, r6, r7, r8, r9, sl, sp, pc}
    dd80:	d18097e8 	orrle	r9, r0, r8, ror #15
    dd84:	6580d1db 	strvs	sp, [r0, #475]	; 0x1db
    dd88:	b2c5c5b2 	sbclt	ip, r5, #746586112	; 0x2c800000
    dd8c:	a78b4565 	strge	r4, [fp, r5, ror #10]
    dd90:	458ba7b1 	strmi	sl, [fp, #1969]	; 0x7b1
    dd94:	97836023 	strls	r6, [r3, r3, lsr #32]
    dd98:	23608397 	cmncs	r0, #1543503874	; 0x5c000002
    dd9c:	80765b31 	rsbshi	r5, r6, r1, lsr fp
    dda0:	2e315b76 	vmovcs.s16	r5, d1[3]
    dda4:	51656551 	cmnpl	r5, r1, asr r5
    dda8:	4f452a2e 	svcmi	0x00452a2e
    ddac:	36232a45 	strtcc	r2, [r3], -r5, asr #20
    ddb0:	251c2336 	ldrcs	r2, [ip, #-822]	; 0x336
    ddb4:	0a13131c 	beq	4d2a2c <ZAG+0x4c4c14>

0000ddb8 <CSWTCH.244>:
    ddb8:	400005f8 	strdmi	r0, [r0], -r8
    ddbc:	40000598 	mulmi	r0, r8, r5
    ddc0:	400007a8 	andmi	r0, r0, r8, lsr #15
    ddc4:	40000658 	andmi	r0, r0, r8, asr r6

0000ddc8 <CSWTCH.246>:
    ddc8:	40000648 	andmi	r0, r0, r8, asr #12
    ddcc:	400005e8 	andmi	r0, r0, r8, ror #11
    ddd0:	400007f8 	strdmi	r0, [r0], -r8
    ddd4:	400006a8 	andmi	r0, r0, r8, lsr #13

0000ddd8 <CSWTCH.237>:
    ddd8:	00020001 	andeq	r0, r2, r1
    dddc:	00080004 	andeq	r0, r8, r4
    dde0:	00200010 	eoreq	r0, r0, r0, lsl r0
    dde4:	00800040 	addeq	r0, r0, r0, asr #32
    dde8:	02000100 	andeq	r0, r0, #0, 2
    ddec:	08000400 	stmdaeq	r0, {sl}
    ddf0:	20001000 	andcs	r1, r0, r0
    ddf4:	00004000 	andeq	r4, r0, r0

0000ddf8 <CSWTCH.239>:
    ddf8:	fffdffff 			; <UNDEFINED> instruction: 0xfffdffff
    ddfc:	fff1fff9 			; <UNDEFINED> instruction: 0xfff1fff9
    de00:	ffc1ffe1 			; <UNDEFINED> instruction: 0xffc1ffe1
    de04:	ff01ff81 			; <UNDEFINED> instruction: 0xff01ff81
    de08:	fc01fe01 	stc2	14, cr15, [r1], {1}
    de0c:	f001f801 			; <UNDEFINED> instruction: 0xf001f801
    de10:	c001e001 	andgt	lr, r1, r1
    de14:	00008001 	andeq	r8, r0, r1

0000de18 <ZAG>:
    de18:	10080100 	andne	r0, r8, r0, lsl #2
    de1c:	0a030209 	beq	ce648 <ZAG+0xc0830>
    de20:	19201811 	stmdbne	r0!, {r0, r4, fp, ip}
    de24:	05040b12 	streq	r0, [r4, #-2834]	; 0xb12
    de28:	211a130c 	tstcs	sl, ip, lsl #6
    de2c:	22293028 	eorcs	r3, r9, #40	; 0x28
    de30:	060d141b 			; <UNDEFINED> instruction: 0x060d141b
    de34:	1c150e07 	ldcne	14, cr0, [r5], {7}
    de38:	38312a23 	ldmdacc	r1!, {r0, r1, r5, r9, fp, sp}
    de3c:	242b3239 	strtcs	r3, [fp], #-569	; 0x239
    de40:	170f161d 	smladne	pc, sp, r6, r1	; <UNPREDICTABLE>
    de44:	332c251e 	teqcc	ip, #125829120	; 0x7800000
    de48:	2d343b3a 	vldmdbcs	r4!, {d3-d31}
    de4c:	2e271f26 	cdpcs	15, 2, cr1, cr7, cr6, {1}
    de50:	363d3c35 			; <UNDEFINED> instruction: 0x363d3c35
    de54:	3f3e372f 	svccc	0x003e372f

Disassembly of section .bss:

40000000 <gCoeffBuf>:
	...

40000080 <gMCUBufG>:
	...

40000180 <gMCUBufB>:
	...

40000280 <gMCUBufR>:
	...

40000380 <gInBufLeft>:
	...

40000381 <gInBufOfs>:
40000381:	00000000 	andeq	r0, r0, r0

40000384 <g_pNeedBytesCallback>:
40000384:	00000000 	andeq	r0, r0, r0

40000388 <gInBuf>:
	...

40000488 <g_pCallback_data>:
40000488:	00000000 	andeq	r0, r0, r0

4000048c <gCallbackStatus>:
	...

4000048d <gTemFlag>:
	...

4000048e <gBitBuf>:
	...

40000490 <gBitsLeft>:
40000490:	00000000 	andeq	r0, r0, r0

40000494 <gQuant1>:
	...

40000514 <gQuant0>:
	...

40000594 <gValidHuffTables>:
	...

40000595 <gValidQuantTables>:
	...

40000596 <gRestartInterval>:
	...

40000598 <gHuffTab1>:
	...

400005e8 <gHuffVal1>:
	...

400005f8 <gHuffTab0>:
	...

40000648 <gHuffVal0>:
	...

40000658 <gHuffTab3>:
	...

400006a8 <gHuffVal3>:
	...

400007a8 <gHuffTab2>:
	...

400007f8 <gHuffVal2>:
	...

400008f8 <gNumMCUSRemaining>:
	...

400008fa <gRestartsLeft>:
	...

400008fc <gLastDC>:
400008fc:	00000000 	andeq	r0, r0, r0
	...

40000902 <gNextRestartNum>:
	...

40000904 <gMaxBlocksPerMCU>:
40000904:	00000000 	andeq	r0, r0, r0

40000908 <gMCUOrg>:
	...

40000910 <gCompDCTab>:
40000910:	00000000 	andeq	r0, r0, r0

40000914 <gCompQuant>:
40000914:	00000000 	andeq	r0, r0, r0

40000918 <gCompACTab>:
40000918:	00000000 	andeq	r0, r0, r0

4000091b <gReduce>:
	...

4000091c <gScanType>:
	...

4000091e <gImageXSize>:
	...

40000920 <gImageYSize>:
	...

40000922 <gCompsInFrame>:
	...

40000923 <gCompsInScan>:
	...

40000924 <gCompIdent>:
40000924:	00000000 	andeq	r0, r0, r0

40000928 <gCompHSamp>:
40000928:	00000000 	andeq	r0, r0, r0

4000092c <gCompVSamp>:
4000092c:	00000000 	andeq	r0, r0, r0

4000092f <gMaxMCUXSize>:
	...

40000930 <gMaxMCUYSize>:
	...

40000932 <gMaxMCUSPerRow>:
	...

40000934 <gMaxMCUSPerCol>:
40000934:	00000000 	andeq	r0, r0, r0

40000938 <gCompList>:
40000938:	00000000 	andeq	r0, r0, r0

4000093c <doff>:
4000093c:	00000000 	andeq	r0, r0, r0

Disassembly of section .ARM.attributes:

00000000 <.ARM.attributes>:
   0:	00002a41 	andeq	r2, r0, r1, asr #20
   4:	61656100 	cmnvs	r5, r0, lsl #2
   8:	01006962 	tsteq	r0, r2, ror #18
   c:	00000020 	andeq	r0, r0, r0, lsr #32
  10:	4d524105 	ldfmie	f4, [r2, #-20]	; 0xffffffec
  14:	4b367620 	blmi	d9d89c <ZAG+0xd8fa84>
  18:	07090600 	streq	r0, [r9, -r0, lsl #12]
  1c:	1201094d 	andne	r0, r1, #1261568	; 0x134000
  20:	15011404 	strne	r1, [r1, #-1028]	; 0x404
  24:	18031701 	stmdane	r3, {r0, r8, r9, sl, ip}
  28:	Address 0x0000000000000028 is out of bounds.


Disassembly of section .comment:

00000000 <.comment>:
   0:	3a434347 	bcc	10d0d24 <ZAG+0x10c2f0c>
   4:	4e472820 	cdpmi	8, 4, cr2, cr7, cr0, {1}
   8:	34202955 	strtcc	r2, [r0], #-2389	; 0x955
   c:	322e382e 	eorcc	r3, lr, #3014656	; 0x2e0000
	...
